

Microchip MPLAB XC8 Assembler V2.41 build 20230208172133 
                                                                                               Wed Aug 30 05:00:59 2023

Microchip MPLAB XC8 C Compiler v2.41 (Free license) build 20230208172133 Og1 
     1                           	processor	18F4620
     2                           	fnconf	rparam,??,?,0
     3                           	pagewidth 120
     4                           	opt	flic
     5                           	psect	idataCOMRAM,global,class=CODE,delta=1,noexec
     6                           	psect	idataBANK0,global,class=CODE,delta=1,noexec
     7                           	psect	smallconst,global,reloc=2,class=SMALLCONST,delta=1,noexec
     8                           	psect	nvBANK0,global,class=BANK0,space=1,delta=1,lowdata,noexec
     9                           	psect	cinit,global,reloc=2,class=CODE,delta=1
    10                           	psect	bssCOMRAM,global,class=COMRAM,space=1,delta=1,lowdata,noexec
    11                           	psect	dataCOMRAM,global,class=COMRAM,space=1,delta=1,lowdata,noexec
    12                           	psect	bssBANK0,global,class=BANK0,space=1,delta=1,lowdata,noexec
    13                           	psect	dataBANK0,global,class=BANK0,space=1,delta=1,lowdata,noexec
    14                           	psect	cstackBANK0,global,class=BANK0,space=1,delta=1,lowdata,noexec
    15                           	psect	cstackCOMRAM,global,class=COMRAM,space=1,delta=1,lowdata,noexec
    16                           	psect	text0,global,reloc=2,class=CODE,delta=1
    17                           	psect	text1,global,reloc=2,class=CODE,delta=1
    18                           	psect	text2,global,reloc=2,class=CODE,delta=1
    19                           	psect	text3,global,reloc=2,class=CODE,delta=1
    20                           	psect	text4,global,reloc=2,class=CODE,delta=1
    21                           	psect	text5,global,reloc=2,class=CODE,delta=1
    22                           	psect	text6,global,reloc=2,class=CODE,delta=1
    23                           	psect	text7,global,reloc=2,class=CODE,delta=1
    24                           	psect	text8,global,reloc=2,class=CODE,delta=1
    25                           	psect	text9,global,reloc=2,class=CODE,delta=1
    26                           	psect	text10,global,reloc=2,class=CODE,delta=1
    27                           	psect	text11,global,reloc=2,class=CODE,delta=1,group=1
    28                           	psect	text12,global,reloc=2,class=CODE,delta=1,group=1
    29                           	psect	text13,global,reloc=2,class=CODE,delta=1,group=1
    30                           	psect	text14,global,reloc=2,class=CODE,delta=1,group=1
    31                           	psect	text15,global,reloc=2,class=CODE,delta=1
    32                           	psect	text16,global,reloc=2,class=CODE,delta=1
    33                           	psect	text17,global,reloc=2,class=CODE,delta=1
    34                           	psect	text18,global,reloc=2,class=CODE,delta=1
    35                           	psect	text19,global,reloc=2,class=CODE,delta=1
    36                           	psect	text20,global,reloc=2,class=CODE,delta=1
    37                           	psect	text21,global,reloc=2,class=CODE,delta=1
    38                           	psect	text22,global,reloc=2,class=CODE,delta=1
    39                           	psect	text23,global,reloc=2,class=CODE,delta=1
    40                           	psect	intcode,global,reloc=2,class=CODE,delta=1
    41                           	psect	intcode_body,global,reloc=2,class=CODE,delta=1
    42                           	psect	text25,global,reloc=2,class=CODE,delta=1
    43                           	psect	text26,global,reloc=2,class=CODE,delta=1
    44                           	psect	text27,global,reloc=2,class=CODE,delta=1
    45                           	psect	text28,global,reloc=2,class=CODE,delta=1
    46                           	psect	text29,global,reloc=2,class=CODE,delta=1
    47                           	psect	text30,global,reloc=2,class=CODE,delta=1
    48                           	psect	text31,global,reloc=2,class=CODE,delta=1
    49                           	psect	text32,global,reloc=2,class=CODE,delta=1
    50                           	psect	text33,global,reloc=2,class=CODE,delta=1
    51                           	psect	text34,global,reloc=2,class=CODE,delta=1
    52                           	psect	text35,global,reloc=2,class=CODE,delta=1
    53                           	psect	text36,global,reloc=2,class=CODE,delta=1
    54                           	psect	text37,global,reloc=2,class=CODE,delta=1
    55                           	psect	text38,global,reloc=2,class=CODE,delta=1
    56                           	psect	text39,global,reloc=2,class=CODE,delta=1
    57                           	psect	text40,global,reloc=2,class=CODE,delta=1
    58                           	psect	text41,global,reloc=2,class=CODE,delta=1
    59                           	psect	text42,global,reloc=2,class=CODE,delta=1
    60                           	psect	text43,global,reloc=2,class=CODE,delta=1
    61                           	psect	text44,global,reloc=2,class=CODE,delta=1
    62                           	psect	text45,global,reloc=2,class=CODE,delta=1
    63                           	psect	text46,global,reloc=2,class=CODE,delta=1
    64                           	psect	intsave_regs,global,class=BIGRAM,space=1,delta=1,noexec
    65                           	psect	text47,global,reloc=2,class=CODE,delta=1
    66                           	psect	rparam,global,class=COMRAM,space=1,delta=1,noexec
    67                           	psect	temp,global,ovrld,common,class=COMRAM,space=1,delta=1
    68                           	psect	idloc,global,abs,ovrld,class=IDLOC,space=5,delta=1,noexec
    69                           	psect	config,global,abs,ovrld,class=CONFIG,space=4,delta=1,noexec
    70   000000                     
    71                           ; Version 2.40
    72                           ; Generated 17/11/2021 GMT
    73                           ; 
    74                           ; Copyright © 2021, Microchip Technology Inc. and its subsidiaries ("Microchip")
    75                           ; All rights reserved.
    76                           ; 
    77                           ; This software is developed by Microchip Technology Inc. and its subsidiaries ("Microch
      +                          ip").
    78                           ; 
    79                           ; Redistribution and use in source and binary forms, with or without modification, are
    80                           ; permitted provided that the following conditions are met:
    81                           ; 
    82                           ;     1. Redistributions of source code must retain the above copyright notice, this lis
      +                          t of
    83                           ;        conditions and the following disclaimer.
    84                           ; 
    85                           ;     2. Redistributions in binary form must reproduce the above copyright notice, this 
      +                          list
    86                           ;        of conditions and the following disclaimer in the documentation and/or other
    87                           ;        materials provided with the distribution. Publication is not required when
    88                           ;        this file is used in an embedded application.
    89                           ; 
    90                           ;     3. Microchip's name may not be used to endorse or promote products derived from th
      +                          is
    91                           ;        software without specific prior written permission.
    92                           ; 
    93                           ; THIS SOFTWARE IS PROVIDED BY MICROCHIP "AS IS" AND ANY EXPRESS OR IMPLIED WARRANTIES,
    94                           ; INCLUDING, BUT NOT LIMITED TO, THE IMPLIED WARRANTIES OF MERCHANTABILITY AND FITNESS F
      +                          OR
    95                           ; PURPOSE ARE DISCLAIMED.  IN NO EVENT SHALL MICROCHIP BE LIABLE FOR ANY DIRECT, INDIREC
      +                          T,
    96                           ; INCIDENTAL, SPECIAL, EXEMPLARY, OR CONSEQUENTIAL DAMAGES (INCLUDING BUT NOT LIMITED TO
    97                           ; PROCUREMENT OF SUBSTITUTE GOODS OR SERVICES; LOSS OF USE, DATA OR PROFITS; OR BUSINESS
    98                           ; INTERRUPTION) HOWSOEVER CAUSED AND ON ANY THEORY OF LIABILITY, WHETHER IN CONTRACT, ST
      +                          RICT
    99                           ; LIABILITY, OR TORT (INCLUDING NEGLIGENCE OR OTHERWISE) ARISING IN ANY WAY OUT OF THE U
      +                          SE OF
   100                           ; THIS SOFTWARE, EVEN IF ADVISED OF THE POSSIBILITY OF SUCH DAMAGE.
   101                           ; 
   102                           ; 
   103                           ; Code-generator required, PIC18F4620 Definitions
   104                           ; 
   105                           ; SFR Addresses
   106   000000                     
   107                           	psect	idataCOMRAM
   108   002B66                     __pidataCOMRAM:
   109                           	callstack 0
   110                           
   111                           ;initializer for MSSP_SPI_Slave_Mode_GPIO_PIN_Configurations@F2878
   112   002B66  68                 	db	104
   113                           
   114                           ;initializer for MSSP_SPI_Slave_Mode_GPIO_PIN_Configurations@F2876
   115   002B67  5A                 	db	90
   116                           
   117                           ;initializer for MSSP_SPI_Slave_Mode_GPIO_PIN_Configurations@F2874
   118   002B68  62                 	db	98
   119                           
   120                           ;initializer for MSSP_SPI_Slave_Mode_GPIO_PIN_Configurations@F2872
   121   002B69  2A                 	db	42
   122                           
   123                           ;initializer for MSSP_SPI_Msster_Mode_GPIO_PIN_Configurations@F2867
   124   002B6A  1A                 	db	26
   125                           
   126                           ;initializer for MSSP_SPI_Msster_Mode_GPIO_PIN_Configurations@F2865
   127   002B6B  62                 	db	98
   128                           
   129                           ;initializer for MSSP_SPI_Msster_Mode_GPIO_PIN_Configurations@F2863
   130   002B6C  2A                 	db	42
   131                           
   132                           ;initializer for _RB7_flag
   133   002B6D  01                 	db	1
   134                           
   135                           ;initializer for _RB6_flag
   136   002B6E  01                 	db	1
   137                           
   138                           ;initializer for _RB5_flag
   139   002B6F  01                 	db	1
   140                           
   141                           ;initializer for _RB4_flag
   142   002B70  01                 	db	1
   143                           
   144                           ;initializer for _led_Air_con
   145   002B71  39                 	db	57
   146                           
   147                           ;initializer for _led_TV
   148   002B72  31                 	db	49
   149                           
   150                           ;initializer for _led_Room4
   151   002B73  1B                 	db	27
   152                           
   153                           ;initializer for _led_Room3
   154   002B74  13                 	db	19
   155                           
   156                           ;initializer for _led_Room2
   157   002B75  0B                 	db	11
   158                           
   159                           ;initializer for _led_Room1
   160   002B76  03                 	db	3
   161                           
   162                           ;initializer for _led_Guest
   163   002B77  08                 	db	8
   164                           
   165                           ;initializer for _led_Block
   166   002B78  10                 	db	16
   167                           
   168                           	psect	idataBANK0
   169   0029E2                     __pidataBANK0:
   170                           	callstack 0
   171                           
   172                           ;initializer for _Port_Reg
   173   0029E2  80                 	db	128
   174   0029E3  0F                 	db	15
   175   0029E4  81                 	db	129
   176   0029E5  0F                 	db	15
   177   0029E6  82                 	db	130
   178   0029E7  0F                 	db	15
   179   0029E8  83                 	db	131
   180   0029E9  0F                 	db	15
   181   0029EA  84                 	db	132
   182   0029EB  0F                 	db	15
   183                           
   184                           ;initializer for _Lat_Reg
   185   0029EC  89                 	db	137
   186   0029ED  0F                 	db	15
   187   0029EE  8A                 	db	138
   188   0029EF  0F                 	db	15
   189   0029F0  8B                 	db	139
   190   0029F1  0F                 	db	15
   191   0029F2  8C                 	db	140
   192   0029F3  0F                 	db	15
   193   0029F4  8D                 	db	141
   194   0029F5  0F                 	db	15
   195                           
   196                           ;initializer for _Tris_Reg
   197   0029F6  92                 	db	146
   198   0029F7  0F                 	db	15
   199   0029F8  93                 	db	147
   200   0029F9  0F                 	db	15
   201   0029FA  94                 	db	148
   202   0029FB  0F                 	db	15
   203   0029FC  95                 	db	149
   204   0029FD  0F                 	db	15
   205   0029FE  96                 	db	150
   206   0029FF  0F                 	db	15
   207                           
   208                           ;initializer for _key_pad1
   209   002A00  03                 	db	3
   210   002A01  0B                 	db	11
   211   002A02  13                 	db	19
   212   002A03  1B                 	db	27
   213   002A04  63                 	db	99
   214   002A05  6B                 	db	107
   215   002A06  73                 	db	115
   216   002A07  7B                 	db	123
   217                           
   218                           ;initializer for _adc_1
   219   002A08  AC                 	db	low _ADC1_ISR
   220   002A09  2A                 	db	high _ADC1_ISR
   221   002A0A  00                 	db	0
   222   002A0B  05                 	db	5
   223   002A0C  05                 	db	5
   224   002A0D  02                 	db	2
   225                           
   226                           ;initializer for _lcd1
   227   002A0E  02                 	db	2
   228   002A0F  0A                 	db	10
   229   002A10  12                 	db	18
   230   002A11  18                 	db	24
   231   002A12  32                 	db	50
   232   002A13  3A                 	db	58
   233                           
   234                           ;initializer for _spi_slave
   235   002A14  05                 	db	5
   236   002A15  11                 	db	17
   237                           
   238                           	psect	smallconst
   239   001000                     __psmallconst:
   240                           	callstack 0
   241   001000  00                 	db	0
   242   001001                     _Key_Pad_Array:
   243                           	callstack 0
   244   001001  37                 	db	55
   245   001002  38                 	db	56
   246   001003  39                 	db	57
   247   001004  2F                 	db	47
   248   001005  34                 	db	52
   249   001006  35                 	db	53
   250   001007  36                 	db	54
   251   001008  2A                 	db	42
   252   001009  31                 	db	49
   253   00100A  32                 	db	50
   254   00100B  33                 	db	51
   255   00100C  2D                 	db	45
   256   00100D  40                 	db	64
   257   00100E  30                 	db	48
   258   00100F  3D                 	db	61
   259   001010  2B                 	db	43
   260   001011                     __end_of_Key_Pad_Array:
   261                           	callstack 0
   262   000000                     _SPBRGH	set	4016
   263   000000                     _SPBRG	set	4015
   264   000000                     _TXREG	set	4013
   265   000000                     _TXSTAbits	set	4012
   266   000000                     _RCREG	set	4014
   267   000000                     _RCSTAbits	set	4011
   268   000000                     _TMR3L	set	4018
   269   000000                     _TMR3H	set	4019
   270   000000                     _TMR2	set	4044
   271   000000                     _T2CONbits	set	4042
   272   000000                     _TMR1L	set	4046
   273   000000                     _TMR1H	set	4047
   274   000000                     _T1CONbits	set	4045
   275   000000                     _TMR0L	set	4054
   276   000000                     _TMR0H	set	4055
   277   000000                     _T0CONbits	set	4053
   278   000000                     _INTCON2bits	set	4081
   279   000000                     _INTCON3bits	set	4080
   280   000000                     _SSPBUF	set	4041
   281   000000                     _SSPSTATbits	set	4039
   282   000000                     _SSPADD	set	4040
   283   000000                     _SSPCON2bits	set	4037
   284   000000                     _SSPCON1bits	set	4038
   285   000000                     _EECON2	set	4007
   286   000000                     _ECCP1ASbits	set	4022
   287   000000                     _PWM1CONbits	set	4023
   288   000000                     _PR2	set	4043
   289   000000                     _CCPR2H	set	4028
   290   000000                     _CCPR2L	set	4027
   291   000000                     _CCPR1H	set	4031
   292   000000                     _CCPR1L	set	4030
   293   000000                     _ADCON1bits	set	4033
   294   000000                     _ADRESL	set	4035
   295   000000                     _ADRESH	set	4036
   296   000000                     _INTCONbits	set	4082
   297   000000                     _TRISD	set	3989
   298   000000                     _TRISC	set	3988
   299   000000                     _TRISB	set	3987
   300   000000                     _TRISE	set	3990
   301   001011                     STR_1:
   302   001011  25                 	db	37
   303   001012  69                 	db	105	;'i'
   304   001013  00                 	db	0
   305   001014  00                 	db	0	; dummy byte at the end
   306   000000                     
   307                           	psect	nvBANK0
   308   0000F6                     __pnvBANK0:
   309                           	callstack 0
   310   0000F6                     _ret:
   311                           	callstack 0
   312   0000F6                     	ds	2
   313   000000                     _PORTBbits	set	3969
   314   000000                     _TRISCbits	set	3988
   315   000000                     _PIE1bits	set	3997
   316   000000                     _ADCON2bits	set	4032
   317   000000                     _ADCON0bits	set	4034
   318   000000                     _PORTE	set	3972
   319   000000                     _PORTD	set	3971
   320   000000                     _PORTC	set	3970
   321   000000                     _PORTB	set	3969
   322   000000                     _PORTA	set	3968
   323   000000                     _LATA	set	3977
   324   000000                     _TRISA	set	3986
   325   000000                     _PIE2bits	set	4000
   326   000000                     _CCP2CONbits	set	4026
   327   000000                     _CCP1CONbits	set	4029
   328   000000                     _PIR1bits	set	3998
   329   000000                     _EECON1bits	set	4006
   330   000000                     _EEDATA	set	4008
   331   000000                     _EEADR	set	4009
   332   000000                     _EEADRH	set	4010
   333   000000                     _T3CONbits	set	4017
   334   000000                     _PIR2bits	set	4001
   335   000000                     _BAUDCONbits	set	4024
   336   000000                     _LATE	set	3981
   337   000000                     _LATD	set	3980
   338   000000                     _LATC	set	3979
   339   000000                     _LATB	set	3978
   340                           
   341                           ; #config settings
   342                           
   343                           	psect	cinit
   344   0027F2                     __pcinit:
   345                           	callstack 0
   346   0027F2                     start_initialization:
   347                           	callstack 0
   348   0027F2                     __initialization:
   349                           	callstack 0
   350                           
   351                           ; Initialize objects allocated to BANK0 (52 bytes)
   352                           ; load TBLPTR registers with __pidataBANK0
   353   0027F2  0EE2               	movlw	low __pidataBANK0
   354   0027F4  6EF6               	movwf	tblptrl,c
   355   0027F6  0E29               	movlw	high __pidataBANK0
   356   0027F8  6EF7               	movwf	tblptrh,c
   357   0027FA  0E00               	movlw	low (__pidataBANK0 shr (0+16))
   358   0027FC  6EF8               	movwf	tblptru,c
   359   0027FE  EE00  F0B5         	lfsr	0,__pdataBANK0
   360   002802  EE10 F034          	lfsr	1,52
   361   002806                     copy_data0:
   362   002806  0009               	tblrd		*+
   363   002808  CFF5 FFEE          	movff	tablat,postinc0
   364   00280C  50E5               	movf	postdec1,w,c
   365   00280E  50E1               	movf	fsr1l,w,c
   366   002810  E1FA               	bnz	copy_data0
   367                           
   368                           ; Initialize objects allocated to COMRAM (19 bytes)
   369                           ; load TBLPTR registers with __pidataCOMRAM
   370   002812  0E66               	movlw	low __pidataCOMRAM
   371   002814  6EF6               	movwf	tblptrl,c
   372   002816  0E2B               	movlw	high __pidataCOMRAM
   373   002818  6EF7               	movwf	tblptrh,c
   374   00281A  0E00               	movlw	low (__pidataCOMRAM shr (0+16))
   375   00281C  6EF8               	movwf	tblptru,c
   376   00281E  EE00  F05F         	lfsr	0,__pdataCOMRAM
   377   002822  EE10 F013          	lfsr	1,19
   378   002826                     copy_data1:
   379   002826  0009               	tblrd		*+
   380   002828  CFF5 FFEE          	movff	tablat,postinc0
   381   00282C  50E5               	movf	postdec1,w,c
   382   00282E  50E1               	movf	fsr1l,w,c
   383   002830  E1FA               	bnz	copy_data1
   384                           
   385                           ; Clear objects allocated to BANK0 (53 bytes)
   386   002832  EE00  F080         	lfsr	0,__pbssBANK0
   387   002836  0E35               	movlw	53
   388   002838                     clear_0:
   389   002838  6AEE               	clrf	postinc0,c
   390   00283A  06E8               	decf	wreg,f,c
   391   00283C  E1FD               	bnz	clear_0
   392                           
   393                           ; Clear objects allocated to COMRAM (43 bytes)
   394   00283E  EE00  F034         	lfsr	0,__pbssCOMRAM
   395   002842  0E2B               	movlw	43
   396   002844                     clear_1:
   397   002844  6AEE               	clrf	postinc0,c
   398   002846  06E8               	decf	wreg,f,c
   399   002848  E1FD               	bnz	clear_1
   400   00284A                     end_of_initialization:
   401                           	callstack 0
   402   00284A                     __end_of__initialization:
   403                           	callstack 0
   404   00284A  9072               	bcf	int$flags,0,c	;clear compiler interrupt flag (level 1)
   405   00284C  9272               	bcf	int$flags,1,c	;clear compiler interrupt flag (level 2)
   406   00284E  0100               	movlb	0
   407   002850  EF44  F00C         	goto	_main	;jump to C main() function
   408                           
   409                           	psect	bssCOMRAM
   410   000034                     __pbssCOMRAM:
   411                           	callstack 0
   412   000034                     _temperature:
   413                           	callstack 0
   414   000034                     	ds	2
   415   000036                     _timer3_preload_value:
   416                           	callstack 0
   417   000036                     	ds	2
   418   000038                     _pre_load@mcal_timer2$F3864:
   419                           	callstack 0
   420   000038                     	ds	2
   421   00003A                     _pre_load@mcal_timer1$F3694:
   422                           	callstack 0
   423   00003A                     	ds	2
   424   00003C                     _pre_load:
   425                           	callstack 0
   426   00003C                     	ds	2
   427   00003E                     _RB4_interruptHandler_High:
   428                           	callstack 0
   429   00003E                     	ds	2
   430   000040                     _INT2_interruptHandler:
   431                           	callstack 0
   432   000040                     	ds	2
   433   000042                     _INT1_interruptHandler:
   434                           	callstack 0
   435   000042                     	ds	2
   436   000044                     _INT0_interruptHandler:
   437                           	callstack 0
   438   000044                     	ds	2
   439   000046                     _I2C_DefaultInterruptHandle:
   440                           	callstack 0
   441   000046                     	ds	2
   442   000048                     _I2C_Report_Write_Collision_InterruptHandler:
   443                           	callstack 0
   444   000048                     	ds	2
   445   00004A                     _ECCP_IntterruptHandeler_:
   446                           	callstack 0
   447   00004A                     	ds	2
   448   00004C                     CCP_Capture_Read_Value@F2943:
   449                           	callstack 0
   450   00004C                     	ds	2
   451   00004E                     _CCP2_IntterruptHandeler:
   452                           	callstack 0
   453   00004E                     	ds	2
   454   000050                     _CCP1_IntterruptHandeler:
   455                           	callstack 0
   456   000050                     	ds	2
   457   000052                     _ADC_interruptHandler:
   458                           	callstack 0
   459   000052                     	ds	2
   460   000054                     Relay_Turn_Off@F2829:
   461                           	callstack 0
   462   000054                     	ds	1
   463   000055                     Relay_Turn_On@F2823:
   464                           	callstack 0
   465   000055                     	ds	1
   466   000056                     Relay_Intialize@F2818:
   467                           	callstack 0
   468   000056                     	ds	1
   469   000057                     Led_Toggle@F2835:
   470                           	callstack 0
   471   000057                     	ds	1
   472   000058                     Led_Turn_Off@F2830:
   473                           	callstack 0
   474   000058                     	ds	1
   475   000059                     Led_Turn_On@F2825:
   476                           	callstack 0
   477   000059                     	ds	1
   478   00005A                     Led_Intialize@F2820:
   479                           	callstack 0
   480   00005A                     	ds	1
   481   00005B                     _conv_result_temp:
   482                           	callstack 0
   483   00005B                     	ds	2
   484   00005D                     _spi_read_master:
   485                           	callstack 0
   486   00005D                     	ds	1
   487   00005E                     _led_Admin:
   488                           	callstack 0
   489   00005E                     	ds	1
   490                           
   491                           	psect	dataCOMRAM
   492   00005F                     __pdataCOMRAM:
   493                           	callstack 0
   494   00005F                     MSSP_SPI_Slave_Mode_GPIO_PIN_Configurations@F2878:
   495                           	callstack 0
   496   00005F                     	ds	1
   497   000060                     MSSP_SPI_Slave_Mode_GPIO_PIN_Configurations@F2876:
   498                           	callstack 0
   499   000060                     	ds	1
   500   000061                     MSSP_SPI_Slave_Mode_GPIO_PIN_Configurations@F2874:
   501                           	callstack 0
   502   000061                     	ds	1
   503   000062                     MSSP_SPI_Slave_Mode_GPIO_PIN_Configurations@F2872:
   504                           	callstack 0
   505   000062                     	ds	1
   506   000063                     MSSP_SPI_Msster_Mode_GPIO_PIN_Configurations@F2867:
   507                           	callstack 0
   508   000063                     	ds	1
   509   000064                     MSSP_SPI_Msster_Mode_GPIO_PIN_Configurations@F2865:
   510                           	callstack 0
   511   000064                     	ds	1
   512   000065                     MSSP_SPI_Msster_Mode_GPIO_PIN_Configurations@F2863:
   513                           	callstack 0
   514   000065                     	ds	1
   515   000066                     _RB7_flag:
   516                           	callstack 0
   517   000066                     	ds	1
   518   000067                     _RB6_flag:
   519                           	callstack 0
   520   000067                     	ds	1
   521   000068                     _RB5_flag:
   522                           	callstack 0
   523   000068                     	ds	1
   524   000069                     _RB4_flag:
   525                           	callstack 0
   526   000069                     	ds	1
   527   00006A                     _led_Air_con:
   528                           	callstack 0
   529   00006A                     	ds	1
   530   00006B                     _led_TV:
   531                           	callstack 0
   532   00006B                     	ds	1
   533   00006C                     _led_Room4:
   534                           	callstack 0
   535   00006C                     	ds	1
   536   00006D                     _led_Room3:
   537                           	callstack 0
   538   00006D                     	ds	1
   539   00006E                     _led_Room2:
   540                           	callstack 0
   541   00006E                     	ds	1
   542   00006F                     _led_Room1:
   543                           	callstack 0
   544   00006F                     	ds	1
   545   000070                     _led_Guest:
   546                           	callstack 0
   547   000070                     	ds	1
   548   000071                     _led_Block:
   549                           	callstack 0
   550   000071                     	ds	1
   551                           
   552                           	psect	bssBANK0
   553   000080                     __pbssBANK0:
   554                           	callstack 0
   555   000080                     	ds	11
   556   00008B                     	ds	6
   557   000091                     	ds	4
   558   000095                     _EUSART_OVERRUNERRORDefaultHandler_:
   559                           	callstack 0
   560   000095                     	ds	2
   561   000097                     _EUSART_FRAMINGERRORDefaultHandler_:
   562                           	callstack 0
   563   000097                     	ds	2
   564   000099                     _USART_RX_IntterruptHandeler_:
   565                           	callstack 0
   566   000099                     	ds	2
   567   00009B                     _USART_TX_IntterruptHandeler_:
   568                           	callstack 0
   569   00009B                     	ds	2
   570   00009D                     _TIMER3_InterruptHandler:
   571                           	callstack 0
   572   00009D                     	ds	2
   573   00009F                     _TIMER2_IntterruptHandeler_:
   574                           	callstack 0
   575   00009F                     	ds	2
   576   0000A1                     _TIMER1_IntterruptHandeler:
   577                           	callstack 0
   578   0000A1                     	ds	2
   579   0000A3                     _TIMER0_IntterruptHandeler:
   580                           	callstack 0
   581   0000A3                     	ds	2
   582   0000A5                     _RB7_interruptHandler_Low:
   583                           	callstack 0
   584   0000A5                     	ds	2
   585   0000A7                     _RB7_interruptHandler_High:
   586                           	callstack 0
   587   0000A7                     	ds	2
   588   0000A9                     _RB6_interruptHandler_Low:
   589                           	callstack 0
   590   0000A9                     	ds	2
   591   0000AB                     _RB6_interruptHandler_High:
   592                           	callstack 0
   593   0000AB                     	ds	2
   594   0000AD                     _RB5_interruptHandler_Low:
   595                           	callstack 0
   596   0000AD                     	ds	2
   597   0000AF                     _RB5_interruptHandler_High:
   598                           	callstack 0
   599   0000AF                     	ds	2
   600   0000B1                     _RB4_interruptHandler_Low:
   601                           	callstack 0
   602   0000B1                     	ds	2
   603   0000B3                     	ds	2
   604                           
   605                           	psect	dataBANK0
   606   0000B5                     __pdataBANK0:
   607                           	callstack 0
   608   0000B5                     _Port_Reg:
   609                           	callstack 0
   610   0000B5                     	ds	10
   611   0000BF                     _Lat_Reg:
   612                           	callstack 0
   613   0000BF                     	ds	10
   614   0000C9                     _Tris_Reg:
   615                           	callstack 0
   616   0000C9                     	ds	10
   617   0000D3                     _key_pad1:
   618                           	callstack 0
   619   0000D3                     	ds	8
   620   0000DB                     _adc_1:
   621                           	callstack 0
   622   0000DB                     	ds	6
   623   0000E1                     _lcd1:
   624                           	callstack 0
   625   0000E1                     	ds	6
   626   0000E7                     _spi_slave:
   627                           	callstack 0
   628   0000E7                     	ds	2
   629                           
   630                           	psect	cstackBANK0
   631   0000E9                     __pcstackBANK0:
   632                           	callstack 0
   633   0000E9                     ___flmul@sign:
   634                           	callstack 0
   635                           
   636                           ; 1 bytes @ 0x0
   637   0000E9                     	ds	1
   638   0000EA                     ___flmul@aexp:
   639                           	callstack 0
   640                           
   641                           ; 1 bytes @ 0x1
   642   0000EA                     	ds	1
   643   0000EB                     ___flmul@grs:
   644                           	callstack 0
   645                           
   646                           ; 4 bytes @ 0x2
   647   0000EB                     	ds	4
   648   0000EF                     ___flmul@bexp:
   649                           	callstack 0
   650                           
   651                           ; 1 bytes @ 0x6
   652   0000EF                     	ds	1
   653   0000F0                     ___flmul@prod:
   654                           	callstack 0
   655                           
   656                           ; 4 bytes @ 0x7
   657   0000F0                     	ds	4
   658   0000F4                     ___flmul@temp:
   659                           	callstack 0
   660                           
   661                           ; 2 bytes @ 0xB
   662   0000F4                     	ds	2
   663                           
   664                           	psect	cstackCOMRAM
   665   000001                     __pcstackCOMRAM:
   666                           	callstack 0
   667   000001                     ?_ADC_Get_Conversion_Result:
   668                           	callstack 0
   669   000001                     RB4_ISR@state:
   670                           	callstack 0
   671   000001                     RB5_ISR@state:
   672                           	callstack 0
   673   000001                     RB6_ISR@state:
   674                           	callstack 0
   675   000001                     RB7_ISR@state:
   676                           	callstack 0
   677   000001                     ADC_Get_Conversion_Result@adc_:
   678                           	callstack 0
   679                           
   680                           ; 2 bytes @ 0x0
   681   000001                     	ds	2
   682   000003                     ADC_Get_Conversion_Result@conversion_Result:
   683                           	callstack 0
   684                           
   685                           ; 2 bytes @ 0x2
   686   000003                     	ds	2
   687   000005                     ??_ADC_Get_Conversion_Result:
   688                           
   689                           ; 1 bytes @ 0x4
   690   000005                     	ds	3
   691   000008                     ADC_Get_Conversion_Result@ret:
   692                           	callstack 0
   693                           
   694                           ; 2 bytes @ 0x7
   695   000008                     	ds	2
   696   00000A                     ??_InterruptManagerHigh:
   697                           
   698                           ; 1 bytes @ 0x9
   699   00000A                     	ds	4
   700   00000E                     ??_ADC_Set_Channel_As_Inbut:
   701   00000E                     ?_GPIO_Pin_Direction_Intialize:
   702                           	callstack 0
   703   00000E                     ?_GPIO_Pin_Write_Logic:
   704                           	callstack 0
   705   00000E                     ?_ADC_Start_Conversion:
   706                           	callstack 0
   707   00000E                     ?_SPI_Send_Byte:
   708   00000E                     ?_SPI_Read_Byte:
   709   00000E                     ?___lwdiv:
   710                           	callstack 0
   711   00000E                     ?___xxtofl:
   712                           	callstack 0
   713   00000E                     ADC_Start_Conversion@adc_:
   714                           	callstack 0
   715   00000E                     ADC_Select_format_status@adc_:
   716                           	callstack 0
   717   00000E                     ADC_Select_Voltage_Reference@adc_:
   718                           	callstack 0
   719   00000E                     GPIO_Pin_Direction_Intialize@_Pin_Config_:
   720                           	callstack 0
   721   00000E                     GPIO_Pin_Write_Logic@_Pin_Config_:
   722                           	callstack 0
   723   00000E                     SPI_Read_Byte@_data:
   724                           	callstack 0
   725   00000E                     ___lwdiv@dividend:
   726                           	callstack 0
   727   00000E                     ___xxtofl@val:
   728                           	callstack 0
   729                           
   730                           ; 4 bytes @ 0xD
   731   00000E                     	ds	2
   732   000010                     ??_GPIO_Pin_Direction_Intialize:
   733   000010                     ADC_Set_Channel_As_Inbut@channel:
   734                           	callstack 0
   735   000010                     GPIO_Pin_Write_Logic@Logic:
   736                           	callstack 0
   737   000010                     SPI_Send_Byte@_data:
   738                           	callstack 0
   739   000010                     ADC_Start_Conversion@ret:
   740                           	callstack 0
   741   000010                     ___lwdiv@divisor:
   742                           	callstack 0
   743                           
   744                           ; 2 bytes @ 0xF
   745   000010                     	ds	1
   746   000011                     ??_GPIO_Pin_Write_Logic:
   747   000011                     ?_ADC_Intialization:
   748                           	callstack 0
   749   000011                     ?_ADC_Channel_Selection:
   750                           	callstack 0
   751   000011                     ADC_Intialization@adc_:
   752                           	callstack 0
   753   000011                     ADC_Channel_Selection@adc_:
   754                           	callstack 0
   755                           
   756                           ; 2 bytes @ 0x10
   757   000011                     	ds	1
   758   000012                     ??___xxtofl:
   759   000012                     ___lwdiv@quotient:
   760                           	callstack 0
   761                           
   762                           ; 2 bytes @ 0x11
   763   000012                     	ds	1
   764   000013                     ??_ADC_Intialization:
   765   000013                     ADC_Channel_Selection@channel:
   766                           	callstack 0
   767                           
   768                           ; 1 bytes @ 0x12
   769   000013                     	ds	1
   770   000014                     ??_ADC_Channel_Selection:
   771   000014                     ___lwdiv@counter:
   772                           	callstack 0
   773   000014                     ADC_Intialization@ret:
   774                           	callstack 0
   775                           
   776                           ; 2 bytes @ 0x13
   777   000014                     	ds	1
   778   000015                     ADC_Channel_Selection@ret:
   779                           	callstack 0
   780                           
   781                           ; 2 bytes @ 0x14
   782   000015                     	ds	1
   783   000016                     ___xxtofl@sign:
   784                           	callstack 0
   785   000016                     GPIO_Pin_Direction_Intialize@ret:
   786                           	callstack 0
   787                           
   788                           ; 2 bytes @ 0x15
   789   000016                     	ds	1
   790   000017                     ?_ADC_Start_Conversion_Interrupt_Mode:
   791                           	callstack 0
   792   000017                     ___xxtofl@exp:
   793                           	callstack 0
   794   000017                     ADC_Start_Conversion_Interrupt_Mode@adc_:
   795                           	callstack 0
   796   000017                     GPIO_Pin_Write_Logic@ret:
   797                           	callstack 0
   798                           
   799                           ; 2 bytes @ 0x16
   800   000017                     	ds	1
   801   000018                     MSSP_SPI_Msster_Mode_GPIO_PIN_Configurations@SPI_SDO:
   802                           	callstack 0
   803   000018                     MSSP_SPI_Slave_Mode_GPIO_PIN_Configurations@_SPI_:
   804                           	callstack 0
   805   000018                     ___xxtofl@arg:
   806                           	callstack 0
   807                           
   808                           ; 4 bytes @ 0x17
   809   000018                     	ds	1
   810   000019                     ?_GPIO_Pin_Intialize:
   811                           	callstack 0
   812   000019                     ?_Led_Turn_On:
   813                           	callstack 0
   814   000019                     ?_Led_Turn_Off:
   815                           	callstack 0
   816   000019                     ADC_Start_Conversion_Interrupt_Mode@channel:
   817                           	callstack 0
   818   000019                     MSSP_SPI_Msster_Mode_GPIO_PIN_Configurations@SPI_SDI:
   819                           	callstack 0
   820   000019                     Led_Turn_On@Led:
   821                           	callstack 0
   822   000019                     Led_Turn_Off@Led:
   823                           	callstack 0
   824   000019                     GPIO_Pin_Intialize@_Pin_Config_:
   825                           	callstack 0
   826                           
   827                           ; 2 bytes @ 0x18
   828   000019                     	ds	1
   829   00001A                     MSSP_SPI_Msster_Mode_GPIO_PIN_Configurations@SPI_SCK:
   830                           	callstack 0
   831   00001A                     ADC_Start_Conversion_Interrupt_Mode@ret:
   832                           	callstack 0
   833                           
   834                           ; 2 bytes @ 0x19
   835   00001A                     	ds	1
   836   00001B                     ??_Led_Turn_On:
   837   00001B                     ??_Led_Turn_Off:
   838   00001B                     MSSP_SPI_Slave_Mode_GPIO_PIN_Configurations@SPI_SDO:
   839                           	callstack 0
   840   00001B                     GPIO_Pin_Intialize@ret:
   841                           	callstack 0
   842                           
   843                           ; 2 bytes @ 0x1A
   844   00001B                     	ds	1
   845   00001C                     ?___flmul:
   846                           	callstack 0
   847   00001C                     MSSP_SPI_Slave_Mode_GPIO_PIN_Configurations@SPI_SDI:
   848                           	callstack 0
   849   00001C                     Led_Turn_On@ret:
   850                           	callstack 0
   851   00001C                     Led_Turn_Off@ret:
   852                           	callstack 0
   853   00001C                     ___flmul@b:
   854                           	callstack 0
   855                           
   856                           ; 4 bytes @ 0x1B
   857   00001C                     	ds	1
   858   00001D                     ?_Led_Intialize:
   859                           	callstack 0
   860   00001D                     MSSP_SPI_Slave_Mode_GPIO_PIN_Configurations@SPI_SS:
   861                           	callstack 0
   862   00001D                     Led_Intialize@Led:
   863                           	callstack 0
   864                           
   865                           ; 2 bytes @ 0x1C
   866   00001D                     	ds	1
   867   00001E                     Led_Turn_On@_pin_config_:
   868                           	callstack 0
   869   00001E                     Led_Turn_Off@_pin_config_:
   870                           	callstack 0
   871   00001E                     MSSP_SPI_Slave_Mode_GPIO_PIN_Configurations@SPI_SCK:
   872                           	callstack 0
   873                           
   874                           ; 1 bytes @ 0x1D
   875   00001E                     	ds	1
   876   00001F                     ??_Led_Intialize:
   877   00001F                     ?_SPI_Init:
   878   00001F                     SPI_Init@_SPI_:
   879                           	callstack 0
   880                           
   881                           ; 2 bytes @ 0x1E
   882   00001F                     	ds	1
   883   000020                     Led_Intialize@ret:
   884                           	callstack 0
   885   000020                     ___flmul@a:
   886                           	callstack 0
   887                           
   888                           ; 4 bytes @ 0x1F
   889   000020                     	ds	1
   890   000021                     ??_SPI_Init:
   891                           
   892                           ; 1 bytes @ 0x20
   893   000021                     	ds	1
   894   000022                     Led_Intialize@_pin_config_:
   895                           	callstack 0
   896                           
   897                           ; 1 bytes @ 0x21
   898   000022                     	ds	1
   899   000023                     
   900                           ; 1 bytes @ 0x22
   901   000023                     	ds	1
   902   000024                     ??___flmul:
   903                           
   904                           ; 1 bytes @ 0x23
   905   000024                     	ds	4
   906   000028                     ?___fltol:
   907                           	callstack 0
   908   000028                     ___fltol@f1:
   909                           	callstack 0
   910                           
   911                           ; 4 bytes @ 0x27
   912   000028                     	ds	4
   913   00002C                     ??___fltol:
   914                           
   915                           ; 1 bytes @ 0x2B
   916   00002C                     	ds	4
   917   000030                     ___fltol@sign1:
   918                           	callstack 0
   919                           
   920                           ; 1 bytes @ 0x2F
   921   000030                     	ds	1
   922   000031                     ___fltol@exp1:
   923                           	callstack 0
   924                           
   925                           ; 1 bytes @ 0x30
   926   000031                     	ds	1
   927   000032                     ??_main:
   928                           
   929                           ; 1 bytes @ 0x31
   930   000032                     	ds	2
   931                           
   932 ;;
   933 ;;Main: autosize = 0, tempsize = 2, incstack = 0, save=0
   934 ;;
   935 ;; *************** function _main *****************
   936 ;; Defined at:
   937 ;;		line 14 in file "Application.c"
   938 ;; Parameters:    Size  Location     Type
   939 ;;		None
   940 ;; Auto vars:     Size  Location     Type
   941 ;;		None
   942 ;; Return value:  Size  Location     Type
   943 ;;                  2  1734[None  ] int 
   944 ;; Registers used:
   945 ;;		wreg, fsr2l, fsr2h, status,2, status,0, prodl, prodh, cstack
   946 ;; Tracked objects:
   947 ;;		On entry : 0/0
   948 ;;		On exit  : 0/0
   949 ;;		Unchanged: 0/0
   950 ;; Data sizes:     COMRAM   BANK0   BANK1   BANK2   BANK3   BANK4   BANK5   BANK6   BANK7   BANK8   BANK9  BANK10  BANK1
      +1  BANK12  BANK13  BANK14  BANK15
   951 ;;      Params:         0       0       0       0       0       0       0       0       0       0       0       0       
      +0       0       0       0       0
   952 ;;      Locals:         0       0       0       0       0       0       0       0       0       0       0       0       
      +0       0       0       0       0
   953 ;;      Temps:          2       0       0       0       0       0       0       0       0       0       0       0       
      +0       0       0       0       0
   954 ;;      Totals:         2       0       0       0       0       0       0       0       0       0       0       0       
      +0       0       0       0       0
   955 ;;Total ram usage:        2 bytes
   956 ;; Hardware stack levels required when called: 8
   957 ;; This function calls:
   958 ;;		_ADC_Start_Conversion_Interrupt_Mode
   959 ;;		_Led_Turn_Off
   960 ;;		_Led_Turn_On
   961 ;;		_SPI_Read_Byte
   962 ;;		_SPI_Send_Byte
   963 ;;		___flmul
   964 ;;		___fltol
   965 ;;		___lwdiv
   966 ;;		___xxtofl
   967 ;;		_intialization
   968 ;; This function is called by:
   969 ;;		Startup code after reset
   970 ;; This function uses a non-reentrant model
   971 ;;
   972                           
   973                           	psect	text0
   974   001888                     __ptext0:
   975                           	callstack 0
   976   001888                     _main:
   977                           	callstack 23
   978   001888                     
   979                           ;Application.c: 15:     intialization();
   980   001888  EC61  F012         	call	_intialization	;wreg free
   981   00188C                     l7572:
   982                           
   983                           ;Application.c: 19:        ret = SPI_Read_Byte(&spi_read_master);
   984   00188C  0E5D               	movlw	low _spi_read_master
   985   00188E  6E0E               	movwf	SPI_Read_Byte@_data^0,c
   986   001890  0E00               	movlw	high _spi_read_master
   987   001892  6E0F               	movwf	(SPI_Read_Byte@_data+1)^0,c
   988   001894  EC65  F015         	call	_SPI_Read_Byte	;wreg free
   989   001898  C00E  F0F6         	movff	?_SPI_Read_Byte,_ret
   990   00189C  C00F  F0F7         	movff	?_SPI_Read_Byte+1,_ret+1
   991                           
   992                           ;Application.c: 20:        switch(spi_read_master)
   993   0018A0  EF92  F00D         	goto	l7636
   994   0018A4                     l7574:
   995                           
   996                           ;Application.c: 23:                ret = Led_Turn_On(&led_Room1);
   997   0018A4  0E6F               	movlw	low _led_Room1
   998   0018A6  6E19               	movwf	Led_Turn_On@Led^0,c
   999   0018A8  0E00               	movlw	high _led_Room1
  1000   0018AA  6E1A               	movwf	(Led_Turn_On@Led+1)^0,c
  1001   0018AC  ECB2  F012         	call	_Led_Turn_On	;wreg free
  1002   0018B0  C019  F0F6         	movff	?_Led_Turn_On,_ret
  1003   0018B4  C01A  F0F7         	movff	?_Led_Turn_On+1,_ret+1
  1004   0018B8                     
  1005                           ;Application.c: 24:                ret = SPI_Send_Byte(1);
  1006   0018B8  0E01               	movlw	1
  1007   0018BA  ECA7  F015         	call	_SPI_Send_Byte
  1008   0018BE  C00E  F0F6         	movff	?_SPI_Send_Byte,_ret
  1009   0018C2  C00F  F0F7         	movff	?_SPI_Send_Byte+1,_ret+1
  1010                           
  1011                           ;Application.c: 25:            break;
  1012   0018C6  EF46  F00C         	goto	l7572
  1013   0018CA                     l7578:
  1014                           
  1015                           ;Application.c: 27:                ret = Led_Turn_On(&led_Room2);
  1016   0018CA  0E6E               	movlw	low _led_Room2
  1017   0018CC  6E19               	movwf	Led_Turn_On@Led^0,c
  1018   0018CE  0E00               	movlw	high _led_Room2
  1019   0018D0  6E1A               	movwf	(Led_Turn_On@Led+1)^0,c
  1020   0018D2  ECB2  F012         	call	_Led_Turn_On	;wreg free
  1021   0018D6  C019  F0F6         	movff	?_Led_Turn_On,_ret
  1022   0018DA  C01A  F0F7         	movff	?_Led_Turn_On+1,_ret+1
  1023   0018DE                     
  1024                           ;Application.c: 28:                ret = SPI_Send_Byte(1);
  1025   0018DE  0E01               	movlw	1
  1026   0018E0  ECA7  F015         	call	_SPI_Send_Byte
  1027   0018E4  C00E  F0F6         	movff	?_SPI_Send_Byte,_ret
  1028   0018E8  C00F  F0F7         	movff	?_SPI_Send_Byte+1,_ret+1
  1029                           
  1030                           ;Application.c: 29:                break;
  1031   0018EC  EF46  F00C         	goto	l7572
  1032   0018F0                     l7582:
  1033                           
  1034                           ;Application.c: 31:                ret = Led_Turn_On(&led_Room3);
  1035   0018F0  0E6D               	movlw	low _led_Room3
  1036   0018F2  6E19               	movwf	Led_Turn_On@Led^0,c
  1037   0018F4  0E00               	movlw	high _led_Room3
  1038   0018F6  6E1A               	movwf	(Led_Turn_On@Led+1)^0,c
  1039   0018F8  ECB2  F012         	call	_Led_Turn_On	;wreg free
  1040   0018FC  C019  F0F6         	movff	?_Led_Turn_On,_ret
  1041   001900  C01A  F0F7         	movff	?_Led_Turn_On+1,_ret+1
  1042   001904                     
  1043                           ;Application.c: 32:                ret = SPI_Send_Byte(1);
  1044   001904  0E01               	movlw	1
  1045   001906  ECA7  F015         	call	_SPI_Send_Byte
  1046   00190A  C00E  F0F6         	movff	?_SPI_Send_Byte,_ret
  1047   00190E  C00F  F0F7         	movff	?_SPI_Send_Byte+1,_ret+1
  1048                           
  1049                           ;Application.c: 33:                break;
  1050   001912  EF46  F00C         	goto	l7572
  1051   001916                     l7586:
  1052                           
  1053                           ;Application.c: 35:                ret = Led_Turn_On(&led_Room4);
  1054   001916  0E6C               	movlw	low _led_Room4
  1055   001918  6E19               	movwf	Led_Turn_On@Led^0,c
  1056   00191A  0E00               	movlw	high _led_Room4
  1057   00191C  6E1A               	movwf	(Led_Turn_On@Led+1)^0,c
  1058   00191E  ECB2  F012         	call	_Led_Turn_On	;wreg free
  1059   001922  C019  F0F6         	movff	?_Led_Turn_On,_ret
  1060   001926  C01A  F0F7         	movff	?_Led_Turn_On+1,_ret+1
  1061   00192A                     
  1062                           ;Application.c: 36:                ret = SPI_Send_Byte(1);
  1063   00192A  0E01               	movlw	1
  1064   00192C  ECA7  F015         	call	_SPI_Send_Byte
  1065   001930  C00E  F0F6         	movff	?_SPI_Send_Byte,_ret
  1066   001934  C00F  F0F7         	movff	?_SPI_Send_Byte+1,_ret+1
  1067                           
  1068                           ;Application.c: 37:                break;
  1069   001938  EF46  F00C         	goto	l7572
  1070   00193C                     l7590:
  1071                           
  1072                           ;Application.c: 40:                ret = Led_Turn_Off(&led_Room1);
  1073   00193C  0E6F               	movlw	low _led_Room1
  1074   00193E  6E19               	movwf	Led_Turn_Off@Led^0,c
  1075   001940  0E00               	movlw	high _led_Room1
  1076   001942  6E1A               	movwf	(Led_Turn_Off@Led+1)^0,c
  1077   001944  ECFB  F012         	call	_Led_Turn_Off	;wreg free
  1078   001948  C019  F0F6         	movff	?_Led_Turn_Off,_ret
  1079   00194C  C01A  F0F7         	movff	?_Led_Turn_Off+1,_ret+1
  1080   001950                     
  1081                           ;Application.c: 41:                ret = SPI_Send_Byte(0);
  1082   001950  0E00               	movlw	0
  1083   001952  ECA7  F015         	call	_SPI_Send_Byte
  1084   001956  C00E  F0F6         	movff	?_SPI_Send_Byte,_ret
  1085   00195A  C00F  F0F7         	movff	?_SPI_Send_Byte+1,_ret+1
  1086                           
  1087                           ;Application.c: 42:                break;
  1088   00195E  EF46  F00C         	goto	l7572
  1089   001962                     l7594:
  1090                           
  1091                           ;Application.c: 44:                ret = Led_Turn_Off(&led_Room2);
  1092   001962  0E6E               	movlw	low _led_Room2
  1093   001964  6E19               	movwf	Led_Turn_Off@Led^0,c
  1094   001966  0E00               	movlw	high _led_Room2
  1095   001968  6E1A               	movwf	(Led_Turn_Off@Led+1)^0,c
  1096   00196A  ECFB  F012         	call	_Led_Turn_Off	;wreg free
  1097   00196E  C019  F0F6         	movff	?_Led_Turn_Off,_ret
  1098   001972  C01A  F0F7         	movff	?_Led_Turn_Off+1,_ret+1
  1099   001976                     
  1100                           ;Application.c: 45:                ret = SPI_Send_Byte(0);
  1101   001976  0E00               	movlw	0
  1102   001978  ECA7  F015         	call	_SPI_Send_Byte
  1103   00197C  C00E  F0F6         	movff	?_SPI_Send_Byte,_ret
  1104   001980  C00F  F0F7         	movff	?_SPI_Send_Byte+1,_ret+1
  1105                           
  1106                           ;Application.c: 46:                break;
  1107   001984  EF46  F00C         	goto	l7572
  1108   001988                     l7598:
  1109                           
  1110                           ;Application.c: 48:                ret = Led_Turn_Off(&led_Room3);
  1111   001988  0E6D               	movlw	low _led_Room3
  1112   00198A  6E19               	movwf	Led_Turn_Off@Led^0,c
  1113   00198C  0E00               	movlw	high _led_Room3
  1114   00198E  6E1A               	movwf	(Led_Turn_Off@Led+1)^0,c
  1115   001990  ECFB  F012         	call	_Led_Turn_Off	;wreg free
  1116   001994  C019  F0F6         	movff	?_Led_Turn_Off,_ret
  1117   001998  C01A  F0F7         	movff	?_Led_Turn_Off+1,_ret+1
  1118   00199C                     
  1119                           ;Application.c: 49:                ret = SPI_Send_Byte(0);
  1120   00199C  0E00               	movlw	0
  1121   00199E  ECA7  F015         	call	_SPI_Send_Byte
  1122   0019A2  C00E  F0F6         	movff	?_SPI_Send_Byte,_ret
  1123   0019A6  C00F  F0F7         	movff	?_SPI_Send_Byte+1,_ret+1
  1124                           
  1125                           ;Application.c: 50:                break;
  1126   0019AA  EF46  F00C         	goto	l7572
  1127   0019AE                     l7602:
  1128                           
  1129                           ;Application.c: 52:                ret = Led_Turn_Off(&led_Room4);
  1130   0019AE  0E6C               	movlw	low _led_Room4
  1131   0019B0  6E19               	movwf	Led_Turn_Off@Led^0,c
  1132   0019B2  0E00               	movlw	high _led_Room4
  1133   0019B4  6E1A               	movwf	(Led_Turn_Off@Led+1)^0,c
  1134   0019B6  ECFB  F012         	call	_Led_Turn_Off	;wreg free
  1135   0019BA  C019  F0F6         	movff	?_Led_Turn_Off,_ret
  1136   0019BE  C01A  F0F7         	movff	?_Led_Turn_Off+1,_ret+1
  1137   0019C2                     
  1138                           ;Application.c: 53:                ret = SPI_Send_Byte(0);
  1139   0019C2  0E00               	movlw	0
  1140   0019C4  ECA7  F015         	call	_SPI_Send_Byte
  1141   0019C8  C00E  F0F6         	movff	?_SPI_Send_Byte,_ret
  1142   0019CC  C00F  F0F7         	movff	?_SPI_Send_Byte+1,_ret+1
  1143                           
  1144                           ;Application.c: 54:                break;
  1145   0019D0  EF46  F00C         	goto	l7572
  1146   0019D4                     l7606:
  1147                           
  1148                           ;Application.c: 57:                ret = Led_Turn_On(&led_TV); break;
  1149   0019D4  0E6B               	movlw	low _led_TV
  1150   0019D6  6E19               	movwf	Led_Turn_On@Led^0,c
  1151   0019D8  0E00               	movlw	high _led_TV
  1152   0019DA  6E1A               	movwf	(Led_Turn_On@Led+1)^0,c
  1153   0019DC  ECB2  F012         	call	_Led_Turn_On	;wreg free
  1154   0019E0  C019  F0F6         	movff	?_Led_Turn_On,_ret
  1155   0019E4  C01A  F0F7         	movff	?_Led_Turn_On+1,_ret+1
  1156   0019E8  EF46  F00C         	goto	l7572
  1157   0019EC                     l7610:
  1158                           
  1159                           ;Application.c: 60:                ret = Led_Turn_Off(&led_TV); break;
  1160   0019EC  0E6B               	movlw	low _led_TV
  1161   0019EE  6E19               	movwf	Led_Turn_Off@Led^0,c
  1162   0019F0  0E00               	movlw	high _led_TV
  1163   0019F2  6E1A               	movwf	(Led_Turn_Off@Led+1)^0,c
  1164   0019F4  ECFB  F012         	call	_Led_Turn_Off	;wreg free
  1165   0019F8  C019  F0F6         	movff	?_Led_Turn_Off,_ret
  1166   0019FC  C01A  F0F7         	movff	?_Led_Turn_Off+1,_ret+1
  1167   001A00  EF46  F00C         	goto	l7572
  1168   001A04                     l7614:
  1169                           
  1170                           ;Application.c: 64:                 ret = SPI_Read_Byte(&spi_read_master);
  1171   001A04  0E5D               	movlw	low _spi_read_master
  1172   001A06  6E0E               	movwf	SPI_Read_Byte@_data^0,c
  1173   001A08  0E00               	movlw	high _spi_read_master
  1174   001A0A  6E0F               	movwf	(SPI_Read_Byte@_data+1)^0,c
  1175   001A0C  EC65  F015         	call	_SPI_Read_Byte	;wreg free
  1176   001A10  C00E  F0F6         	movff	?_SPI_Read_Byte,_ret
  1177   001A14  C00F  F0F7         	movff	?_SPI_Read_Byte+1,_ret+1
  1178   001A18                     l7616:
  1179                           
  1180                           ;Application.c: 66:                 {;Application.c: 67:                     ret = ADC_S
      +                          tart_Conversion_Interrupt_Mode(&adc_1 ,ADC_CHANNEL_AN0);
  1181   001A18  0EDB               	movlw	low _adc_1
  1182   001A1A  6E17               	movwf	ADC_Start_Conversion_Interrupt_Mode@adc_^0,c
  1183   001A1C  0E00               	movlw	high _adc_1
  1184   001A1E  6E18               	movwf	(ADC_Start_Conversion_Interrupt_Mode@adc_+1)^0,c
  1185   001A20  0E00               	movlw	0
  1186   001A22  6E19               	movwf	ADC_Start_Conversion_Interrupt_Mode@channel^0,c
  1187   001A24  EC84  F014         	call	_ADC_Start_Conversion_Interrupt_Mode	;wreg free
  1188   001A28  C017  F0F6         	movff	?_ADC_Start_Conversion_Interrupt_Mode,_ret
  1189   001A2C  C018  F0F7         	movff	?_ADC_Start_Conversion_Interrupt_Mode+1,_ret+1
  1190   001A30                     
  1191                           ;Application.c: 68:                     temperature = 4.88f * conv_result_temp;
  1192   001A30  0EF6               	movlw	246
  1193   001A32  6E20               	movwf	___flmul@a^0,c
  1194   001A34  0E28               	movlw	40
  1195   001A36  6E21               	movwf	(___flmul@a+1)^0,c
  1196   001A38  0E9C               	movlw	156
  1197   001A3A  6E22               	movwf	(___flmul@a+2)^0,c
  1198   001A3C  0E40               	movlw	64
  1199   001A3E  6E23               	movwf	(___flmul@a+3)^0,c
  1200   001A40  C05B  F00E         	movff	_conv_result_temp,___xxtofl@val	;volatile
  1201   001A44  C05C  F00F         	movff	_conv_result_temp+1,___xxtofl@val+1	;volatile
  1202   001A48  6A10               	clrf	(___xxtofl@val+2)^0,c
  1203   001A4A  6A11               	clrf	(___xxtofl@val+3)^0,c
  1204   001A4C  0E00               	movlw	0
  1205   001A4E  ECD1  F00D         	call	___xxtofl
  1206   001A52  C00E  F01C         	movff	?___xxtofl,___flmul@b
  1207   001A56  C00F  F01D         	movff	?___xxtofl+1,___flmul@b+1
  1208   001A5A  C010  F01E         	movff	?___xxtofl+2,___flmul@b+2
  1209   001A5E  C011  F01F         	movff	?___xxtofl+3,___flmul@b+3
  1210   001A62  EC2E  F00A         	call	___flmul	;wreg free
  1211   001A66  C01C  F028         	movff	?___flmul,___fltol@f1
  1212   001A6A  C01D  F029         	movff	?___flmul+1,___fltol@f1+1
  1213   001A6E  C01E  F02A         	movff	?___flmul+2,___fltol@f1+2
  1214   001A72  C01F  F02B         	movff	?___flmul+3,___fltol@f1+3
  1215   001A76  EC97  F010         	call	___fltol	;wreg free
  1216   001A7A  C028  F034         	movff	?___fltol,_temperature
  1217   001A7E  C029  F035         	movff	?___fltol+1,_temperature+1
  1218   001A82                     
  1219                           ;Application.c: 69:                     temperature /= 10;
  1220   001A82  C034  F00E         	movff	_temperature,___lwdiv@dividend
  1221   001A86  C035  F00F         	movff	_temperature+1,___lwdiv@dividend+1
  1222   001A8A  0E00               	movlw	0
  1223   001A8C  6E11               	movwf	(___lwdiv@divisor+1)^0,c
  1224   001A8E  0E0A               	movlw	10
  1225   001A90  6E10               	movwf	___lwdiv@divisor^0,c
  1226   001A92  EC8B  F013         	call	___lwdiv	;wreg free
  1227   001A96  C00E  F034         	movff	?___lwdiv,_temperature
  1228   001A9A  C00F  F035         	movff	?___lwdiv+1,_temperature+1
  1229   001A9E                     
  1230                           ;Application.c: 70:                     if(temperature > spi_read_master){
  1231   001A9E  505D               	movf	_spi_read_master^0,w,c	;volatile
  1232   001AA0  6E32               	movwf	??_main^0,c
  1233   001AA2  6A33               	clrf	(??_main+1)^0,c
  1234   001AA4  5034               	movf	_temperature^0,w,c
  1235   001AA6  5C32               	subwf	??_main^0,w,c
  1236   001AA8  5035               	movf	(_temperature+1)^0,w,c
  1237   001AAA  5833               	subwfb	(??_main+1)^0,w,c
  1238   001AAC  B0D8               	btfsc	status,0,c
  1239   001AAE  EF5B  F00D         	goto	u6701
  1240   001AB2  EF5D  F00D         	goto	u6700
  1241   001AB6                     u6701:
  1242   001AB6  EF69  F00D         	goto	l7626
  1243   001ABA                     u6700:
  1244   001ABA                     
  1245                           ;Application.c: 71:                         ret = Led_Turn_On(&led_Air_con);
  1246   001ABA  0E6A               	movlw	low _led_Air_con
  1247   001ABC  6E19               	movwf	Led_Turn_On@Led^0,c
  1248   001ABE  0E00               	movlw	high _led_Air_con
  1249   001AC0  6E1A               	movwf	(Led_Turn_On@Led+1)^0,c
  1250   001AC2  ECB2  F012         	call	_Led_Turn_On	;wreg free
  1251   001AC6  C019  F0F6         	movff	?_Led_Turn_On,_ret
  1252   001ACA  C01A  F0F7         	movff	?_Led_Turn_On+1,_ret+1
  1253                           
  1254                           ;Application.c: 73:                     }else{
  1255   001ACE  EF73  F00D         	goto	l7628
  1256   001AD2                     l7626:
  1257                           
  1258                           ;Application.c: 74:                         ret = Led_Turn_Off(&led_Air_con);
  1259   001AD2  0E6A               	movlw	low _led_Air_con
  1260   001AD4  6E19               	movwf	Led_Turn_Off@Led^0,c
  1261   001AD6  0E00               	movlw	high _led_Air_con
  1262   001AD8  6E1A               	movwf	(Led_Turn_Off@Led+1)^0,c
  1263   001ADA  ECFB  F012         	call	_Led_Turn_Off	;wreg free
  1264   001ADE  C019  F0F6         	movff	?_Led_Turn_Off,_ret
  1265   001AE2  C01A  F0F7         	movff	?_Led_Turn_Off+1,_ret+1
  1266   001AE6                     l7628:
  1267                           
  1268                           ;Application.c: 78:                     if(temperature == 30)
  1269   001AE6  0E1E               	movlw	30
  1270   001AE8  1834               	xorwf	_temperature^0,w,c
  1271   001AEA  1035               	iorwf	(_temperature+1)^0,w,c
  1272   001AEC  A4D8               	btfss	status,2,c
  1273   001AEE  EF7B  F00D         	goto	u6711
  1274   001AF2  EF7D  F00D         	goto	u6710
  1275   001AF6                     u6711:
  1276   001AF6  EF0C  F00D         	goto	l7616
  1277   001AFA                     u6710:
  1278   001AFA  EF46  F00C         	goto	l7572
  1279   001AFE                     l7632:
  1280                           
  1281                           ;Application.c: 86:                ret = Led_Turn_Off(&led_Air_con);
  1282   001AFE  0E6A               	movlw	low _led_Air_con
  1283   001B00  6E19               	movwf	Led_Turn_Off@Led^0,c
  1284   001B02  0E00               	movlw	high _led_Air_con
  1285   001B04  6E1A               	movwf	(Led_Turn_Off@Led+1)^0,c
  1286   001B06  ECFB  F012         	call	_Led_Turn_Off	;wreg free
  1287   001B0A  C019  F0F6         	movff	?_Led_Turn_Off,_ret
  1288   001B0E  C01A  F0F7         	movff	?_Led_Turn_Off+1,_ret+1
  1289   001B12                     
  1290                           ;Application.c: 87:                ret = SPI_Send_Byte(0);
  1291   001B12  0E00               	movlw	0
  1292   001B14  ECA7  F015         	call	_SPI_Send_Byte
  1293   001B18  C00E  F0F6         	movff	?_SPI_Send_Byte,_ret
  1294   001B1C  C00F  F0F7         	movff	?_SPI_Send_Byte+1,_ret+1
  1295                           
  1296                           ;Application.c: 88:                break;
  1297   001B20  EF46  F00C         	goto	l7572
  1298   001B24                     l7636:
  1299   001B24  505D               	movf	_spi_read_master^0,w,c	;volatile
  1300   001B26  6E32               	movwf	??_main^0,c
  1301   001B28  6A33               	clrf	(??_main+1)^0,c
  1302                           
  1303                           ; Switch on 2 bytes has been partitioned into a top level switch of size 1, and 1 sub-sw
      +                          itches
  1304                           ; Switch size 1, requested type "simple"
  1305                           ; Number of cases is 1, Range of values is 0 to 0
  1306                           ; switch strategies available:
  1307                           ; Name         Instructions Cycles
  1308                           ; simple_byte            4     3 (average)
  1309                           ;	Chosen strategy is simple_byte
  1310   001B2A  5033               	movf	(??_main+1)^0,w,c
  1311   001B2C  0A00               	xorlw	0	; case 0
  1312   001B2E  B4D8               	btfsc	status,2,c
  1313   001B30  EF9C  F00D         	goto	l7722
  1314   001B34  EF46  F00C         	goto	l7572
  1315   001B38                     l7722:
  1316                           
  1317                           ; Switch size 1, requested type "simple"
  1318                           ; Number of cases is 12, Range of values is 0 to 11
  1319                           ; switch strategies available:
  1320                           ; Name         Instructions Cycles
  1321                           ; simple_byte           37    19 (average)
  1322                           ;	Chosen strategy is simple_byte
  1323   001B38  5032               	movf	??_main^0,w,c
  1324   001B3A  0A00               	xorlw	0	; case 0
  1325   001B3C  B4D8               	btfsc	status,2,c
  1326   001B3E  EFF6  F00C         	goto	l7610
  1327   001B42  0A01               	xorlw	1	; case 1
  1328   001B44  B4D8               	btfsc	status,2,c
  1329   001B46  EF52  F00C         	goto	l7574
  1330   001B4A  0A03               	xorlw	3	; case 2
  1331   001B4C  B4D8               	btfsc	status,2,c
  1332   001B4E  EF65  F00C         	goto	l7578
  1333   001B52  0A01               	xorlw	1	; case 3
  1334   001B54  B4D8               	btfsc	status,2,c
  1335   001B56  EF78  F00C         	goto	l7582
  1336   001B5A  0A07               	xorlw	7	; case 4
  1337   001B5C  B4D8               	btfsc	status,2,c
  1338   001B5E  EF8B  F00C         	goto	l7586
  1339   001B62  0A01               	xorlw	1	; case 5
  1340   001B64  B4D8               	btfsc	status,2,c
  1341   001B66  EF9E  F00C         	goto	l7590
  1342   001B6A  0A03               	xorlw	3	; case 6
  1343   001B6C  B4D8               	btfsc	status,2,c
  1344   001B6E  EFB1  F00C         	goto	l7594
  1345   001B72  0A01               	xorlw	1	; case 7
  1346   001B74  B4D8               	btfsc	status,2,c
  1347   001B76  EFC4  F00C         	goto	l7598
  1348   001B7A  0A0F               	xorlw	15	; case 8
  1349   001B7C  B4D8               	btfsc	status,2,c
  1350   001B7E  EFD7  F00C         	goto	l7602
  1351   001B82  0A01               	xorlw	1	; case 9
  1352   001B84  B4D8               	btfsc	status,2,c
  1353   001B86  EFEA  F00C         	goto	l7606
  1354   001B8A  0A03               	xorlw	3	; case 10
  1355   001B8C  B4D8               	btfsc	status,2,c
  1356   001B8E  EF02  F00D         	goto	l7614
  1357   001B92  0A01               	xorlw	1	; case 11
  1358   001B94  B4D8               	btfsc	status,2,c
  1359   001B96  EF7F  F00D         	goto	l7632
  1360   001B9A  EF46  F00C         	goto	l7572
  1361   001B9E  EF07  F000         	goto	start
  1362   001BA2                     __end_of_main:
  1363                           	callstack 0
  1364                           
  1365 ;; *************** function _intialization *****************
  1366 ;; Defined at:
  1367 ;;		line 95 in file "Application.c"
  1368 ;; Parameters:    Size  Location     Type
  1369 ;;		None
  1370 ;; Auto vars:     Size  Location     Type
  1371 ;;		None
  1372 ;; Return value:  Size  Location     Type
  1373 ;;                  1    wreg      void 
  1374 ;; Registers used:
  1375 ;;		wreg, fsr2l, fsr2h, status,2, status,0, prodl, prodh, cstack
  1376 ;; Tracked objects:
  1377 ;;		On entry : 0/0
  1378 ;;		On exit  : 0/0
  1379 ;;		Unchanged: 0/0
  1380 ;; Data sizes:     COMRAM   BANK0   BANK1   BANK2   BANK3   BANK4   BANK5   BANK6   BANK7   BANK8   BANK9  BANK10  BANK1
      +1  BANK12  BANK13  BANK14  BANK15
  1381 ;;      Params:         0       0       0       0       0       0       0       0       0       0       0       0       
      +0       0       0       0       0
  1382 ;;      Locals:         0       0       0       0       0       0       0       0       0       0       0       0       
      +0       0       0       0       0
  1383 ;;      Temps:          0       0       0       0       0       0       0       0       0       0       0       0       
      +0       0       0       0       0
  1384 ;;      Totals:         0       0       0       0       0       0       0       0       0       0       0       0       
      +0       0       0       0       0
  1385 ;;Total ram usage:        0 bytes
  1386 ;; Hardware stack levels used: 1
  1387 ;; Hardware stack levels required when called: 7
  1388 ;; This function calls:
  1389 ;;		_ADC_Intialization
  1390 ;;		_Led_Intialize
  1391 ;;		_SPI_Init
  1392 ;; This function is called by:
  1393 ;;		_main
  1394 ;; This function uses a non-reentrant model
  1395 ;;
  1396                           
  1397                           	psect	text1
  1398   0024C2                     __ptext1:
  1399                           	callstack 0
  1400   0024C2                     _intialization:
  1401                           	callstack 23
  1402   0024C2                     
  1403                           ;Application.c: 96:  ret = SPI_Init(&spi_slave);
  1404   0024C2  0EE7               	movlw	low _spi_slave
  1405   0024C4  6E1F               	movwf	SPI_Init@_SPI_^0,c
  1406   0024C6  0E00               	movlw	high _spi_slave
  1407   0024C8  6E20               	movwf	(SPI_Init@_SPI_+1)^0,c
  1408   0024CA  ECF7  F00F         	call	_SPI_Init	;wreg free
  1409   0024CE  C01F  F0F6         	movff	?_SPI_Init,_ret
  1410   0024D2  C020  F0F7         	movff	?_SPI_Init+1,_ret+1
  1411                           
  1412                           ;Application.c: 97:  ret = Led_Intialize(&led_Room1);
  1413   0024D6  0E6F               	movlw	low _led_Room1
  1414   0024D8  6E1D               	movwf	Led_Intialize@Led^0,c
  1415   0024DA  0E00               	movlw	high _led_Room1
  1416   0024DC  6E1E               	movwf	(Led_Intialize@Led+1)^0,c
  1417   0024DE  EC44  F013         	call	_Led_Intialize	;wreg free
  1418   0024E2  C01D  F0F6         	movff	?_Led_Intialize,_ret
  1419   0024E6  C01E  F0F7         	movff	?_Led_Intialize+1,_ret+1
  1420                           
  1421                           ;Application.c: 98:  ret = Led_Intialize(&led_Room2);
  1422   0024EA  0E6E               	movlw	low _led_Room2
  1423   0024EC  6E1D               	movwf	Led_Intialize@Led^0,c
  1424   0024EE  0E00               	movlw	high _led_Room2
  1425   0024F0  6E1E               	movwf	(Led_Intialize@Led+1)^0,c
  1426   0024F2  EC44  F013         	call	_Led_Intialize	;wreg free
  1427   0024F6  C01D  F0F6         	movff	?_Led_Intialize,_ret
  1428   0024FA  C01E  F0F7         	movff	?_Led_Intialize+1,_ret+1
  1429                           
  1430                           ;Application.c: 99:  ret = Led_Intialize(&led_Room3);
  1431   0024FE  0E6D               	movlw	low _led_Room3
  1432   002500  6E1D               	movwf	Led_Intialize@Led^0,c
  1433   002502  0E00               	movlw	high _led_Room3
  1434   002504  6E1E               	movwf	(Led_Intialize@Led+1)^0,c
  1435   002506  EC44  F013         	call	_Led_Intialize	;wreg free
  1436   00250A  C01D  F0F6         	movff	?_Led_Intialize,_ret
  1437   00250E  C01E  F0F7         	movff	?_Led_Intialize+1,_ret+1
  1438                           
  1439                           ;Application.c: 100:  ret = Led_Intialize(&led_Room4);
  1440   002512  0E6C               	movlw	low _led_Room4
  1441   002514  6E1D               	movwf	Led_Intialize@Led^0,c
  1442   002516  0E00               	movlw	high _led_Room4
  1443   002518  6E1E               	movwf	(Led_Intialize@Led+1)^0,c
  1444   00251A  EC44  F013         	call	_Led_Intialize	;wreg free
  1445   00251E  C01D  F0F6         	movff	?_Led_Intialize,_ret
  1446   002522  C01E  F0F7         	movff	?_Led_Intialize+1,_ret+1
  1447                           
  1448                           ;Application.c: 101:  ret = Led_Intialize(&led_TV);
  1449   002526  0E6B               	movlw	low _led_TV
  1450   002528  6E1D               	movwf	Led_Intialize@Led^0,c
  1451   00252A  0E00               	movlw	high _led_TV
  1452   00252C  6E1E               	movwf	(Led_Intialize@Led+1)^0,c
  1453   00252E  EC44  F013         	call	_Led_Intialize	;wreg free
  1454   002532  C01D  F0F6         	movff	?_Led_Intialize,_ret
  1455   002536  C01E  F0F7         	movff	?_Led_Intialize+1,_ret+1
  1456                           
  1457                           ;Application.c: 102:  ret = Led_Intialize(&led_Air_con);
  1458   00253A  0E6A               	movlw	low _led_Air_con
  1459   00253C  6E1D               	movwf	Led_Intialize@Led^0,c
  1460   00253E  0E00               	movlw	high _led_Air_con
  1461   002540  6E1E               	movwf	(Led_Intialize@Led+1)^0,c
  1462   002542  EC44  F013         	call	_Led_Intialize	;wreg free
  1463   002546  C01D  F0F6         	movff	?_Led_Intialize,_ret
  1464   00254A  C01E  F0F7         	movff	?_Led_Intialize+1,_ret+1
  1465   00254E                     
  1466                           ;Application.c: 104:  ret = ADC_Intialization(&adc_1);
  1467   00254E  0EDB               	movlw	low _adc_1
  1468   002550  6E11               	movwf	ADC_Intialization@adc_^0,c
  1469   002552  0E00               	movlw	high _adc_1
  1470   002554  6E12               	movwf	(ADC_Intialization@adc_+1)^0,c
  1471   002556  ECFA  F011         	call	_ADC_Intialization	;wreg free
  1472   00255A  C011  F0F6         	movff	?_ADC_Intialization,_ret
  1473   00255E  C012  F0F7         	movff	?_ADC_Intialization+1,_ret+1
  1474   002562  0012               	return		;funcret
  1475   002564                     __end_of_intialization:
  1476                           	callstack 0
  1477                           
  1478 ;; *************** function _SPI_Init *****************
  1479 ;; Defined at:
  1480 ;;		line 18 in file "MCAL_Layer/SPI/hal_spi.c"
  1481 ;; Parameters:    Size  Location     Type
  1482 ;;  _SPI_           2   30[COMRAM] PTR const struct .
  1483 ;;		 -> spi_slave(2), 
  1484 ;; Auto vars:     Size  Location     Type
  1485 ;;  ret             2    0        unsigned int 
  1486 ;; Return value:  Size  Location     Type
  1487 ;;                  2   30[COMRAM] unsigned int 
  1488 ;; Registers used:
  1489 ;;		wreg, fsr2l, fsr2h, status,2, status,0, prodl, prodh, cstack
  1490 ;; Tracked objects:
  1491 ;;		On entry : 0/0
  1492 ;;		On exit  : 0/0
  1493 ;;		Unchanged: 0/0
  1494 ;; Data sizes:     COMRAM   BANK0   BANK1   BANK2   BANK3   BANK4   BANK5   BANK6   BANK7   BANK8   BANK9  BANK10  BANK1
      +1  BANK12  BANK13  BANK14  BANK15
  1495 ;;      Params:         2       0       0       0       0       0       0       0       0       0       0       0       
      +0       0       0       0       0
  1496 ;;      Locals:         0       0       0       0       0       0       0       0       0       0       0       0       
      +0       0       0       0       0
  1497 ;;      Temps:          1       0       0       0       0       0       0       0       0       0       0       0       
      +0       0       0       0       0
  1498 ;;      Totals:         3       0       0       0       0       0       0       0       0       0       0       0       
      +0       0       0       0       0
  1499 ;;Total ram usage:        3 bytes
  1500 ;; Hardware stack levels used: 1
  1501 ;; Hardware stack levels required when called: 6
  1502 ;; This function calls:
  1503 ;;		_MSSP_SPI_Msster_Mode_GPIO_PIN_Configurations
  1504 ;;		_MSSP_SPI_Slave_Mode_GPIO_PIN_Configurations
  1505 ;; This function is called by:
  1506 ;;		_intialization
  1507 ;; This function uses a non-reentrant model
  1508 ;;
  1509                           
  1510                           	psect	text2
  1511   001FEE                     __ptext2:
  1512                           	callstack 0
  1513   001FEE                     _SPI_Init:
  1514                           	callstack 23
  1515   001FEE                     
  1516                           ;MCAL_Layer/SPI/hal_spi.c: 21:     if(_SPI_ == ((void*)0))
  1517   001FEE  501F               	movf	SPI_Init@_SPI_^0,w,c
  1518   001FF0  1020               	iorwf	(SPI_Init@_SPI_+1)^0,w,c
  1519   001FF2  A4D8               	btfss	status,2,c
  1520   001FF4  EFFE  F00F         	goto	u4021
  1521   001FF8  EF00  F010         	goto	u4020
  1522   001FFC                     u4021:
  1523   001FFC  EF02  F010         	goto	l1258
  1524   002000                     u4020:
  1525   002000                     
  1526                           ;MCAL_Layer/SPI/hal_spi.c: 24:     }
  1527   002000  EF96  F010         	goto	l1268
  1528   002004                     l1258:
  1529                           
  1530                           ;MCAL_Layer/SPI/hal_spi.c: 26:     {;MCAL_Layer/SPI/hal_spi.c: 27:         (SSPCON1bits.
      +                          SSPEN = 0);
  1531   002004  9AC6               	bcf	198,5,c	;volatile
  1532   002006                     
  1533                           ;MCAL_Layer/SPI/hal_spi.c: 29:         SSPCON1bits.SSPM = _SPI_->spi_serial_clk_mod_sele
      +                          ct;
  1534   002006  C01F  FFD9         	movff	SPI_Init@_SPI_,fsr2l
  1535   00200A  C020  FFDA         	movff	SPI_Init@_SPI_+1,fsr2h
  1536   00200E  50DF               	movf	indf2,w,c
  1537   002010  6E21               	movwf	??_SPI_Init^0,c
  1538   002012  50C6               	movf	198,w,c	;volatile
  1539   002014  1821               	xorwf	??_SPI_Init^0,w,c
  1540   002016  0BF0               	andlw	-16
  1541   002018  1821               	xorwf	??_SPI_Init^0,w,c
  1542   00201A  6EC6               	movwf	198,c	;volatile
  1543   00201C                     
  1544                           ;MCAL_Layer/SPI/hal_spi.c: 31:         if(0 == _SPI_->spi_serial_clk_mod_select ||
  1545   00201C  C01F  FFD9         	movff	SPI_Init@_SPI_,fsr2l
  1546   002020  C020  FFDA         	movff	SPI_Init@_SPI_+1,fsr2h
  1547   002024  50DF               	movf	indf2,w,c
  1548   002026  B4D8               	btfsc	status,2,c
  1549   002028  EF18  F010         	goto	u4031
  1550   00202C  EF1A  F010         	goto	u4030
  1551   002030                     u4031:
  1552   002030  EF40  F010         	goto	l5574
  1553   002034                     u4030:
  1554   002034  C01F  FFD9         	movff	SPI_Init@_SPI_,fsr2l
  1555   002038  C020  FFDA         	movff	SPI_Init@_SPI_+1,fsr2h
  1556   00203C  04DE               	decf	postinc2,w,c
  1557   00203E  B4D8               	btfsc	status,2,c
  1558   002040  EF24  F010         	goto	u4041
  1559   002044  EF26  F010         	goto	u4040
  1560   002048                     u4041:
  1561   002048  EF40  F010         	goto	l5574
  1562   00204C                     u4040:
  1563   00204C  C01F  FFD9         	movff	SPI_Init@_SPI_,fsr2l
  1564   002050  C020  FFDA         	movff	SPI_Init@_SPI_+1,fsr2h
  1565   002054  0E02               	movlw	2
  1566   002056  18DE               	xorwf	postinc2,w,c
  1567   002058  B4D8               	btfsc	status,2,c
  1568   00205A  EF31  F010         	goto	u4051
  1569   00205E  EF33  F010         	goto	u4050
  1570   002062                     u4051:
  1571   002062  EF40  F010         	goto	l5574
  1572   002066                     u4050:
  1573   002066  C01F  FFD9         	movff	SPI_Init@_SPI_,fsr2l
  1574   00206A  C020  FFDA         	movff	SPI_Init@_SPI_+1,fsr2h
  1575   00206E  0E03               	movlw	3
  1576   002070  18DE               	xorwf	postinc2,w,c
  1577   002072  A4D8               	btfss	status,2,c
  1578   002074  EF3E  F010         	goto	u4061
  1579   002078  EF40  F010         	goto	u4060
  1580   00207C                     u4061:
  1581   00207C  EF44  F010         	goto	l5576
  1582   002080                     u4060:
  1583   002080                     l5574:
  1584                           
  1585                           ;MCAL_Layer/SPI/hal_spi.c: 35:         {;MCAL_Layer/SPI/hal_spi.c: 36:             MSSP_
      +                          SPI_Msster_Mode_GPIO_PIN_Configurations();
  1586   002080  EC0B  F015         	call	_MSSP_SPI_Msster_Mode_GPIO_PIN_Configurations	;wreg free
  1587                           
  1588                           ;MCAL_Layer/SPI/hal_spi.c: 37:         }
  1589   002084  EF64  F010         	goto	l5582
  1590   002088                     l5576:
  1591   002088  C01F  FFD9         	movff	SPI_Init@_SPI_,fsr2l
  1592   00208C  C020  FFDA         	movff	SPI_Init@_SPI_+1,fsr2h
  1593   002090  0E04               	movlw	4
  1594   002092  18DE               	xorwf	postinc2,w,c
  1595   002094  B4D8               	btfsc	status,2,c
  1596   002096  EF4F  F010         	goto	u4071
  1597   00209A  EF51  F010         	goto	u4070
  1598   00209E                     u4071:
  1599   00209E  EF5E  F010         	goto	l5580
  1600   0020A2                     u4070:
  1601   0020A2  C01F  FFD9         	movff	SPI_Init@_SPI_,fsr2l
  1602   0020A6  C020  FFDA         	movff	SPI_Init@_SPI_+1,fsr2h
  1603   0020AA  0E05               	movlw	5
  1604   0020AC  18DE               	xorwf	postinc2,w,c
  1605   0020AE  A4D8               	btfss	status,2,c
  1606   0020B0  EF5C  F010         	goto	u4081
  1607   0020B4  EF5E  F010         	goto	u4080
  1608   0020B8                     u4081:
  1609   0020B8  EF64  F010         	goto	l5582
  1610   0020BC                     u4080:
  1611   0020BC                     l5580:
  1612                           
  1613                           ;MCAL_Layer/SPI/hal_spi.c: 40:         {;MCAL_Layer/SPI/hal_spi.c: 41:             MSSP_
      +                          SPI_Slave_Mode_GPIO_PIN_Configurations(_SPI_);
  1614   0020BC  C01F  F018         	movff	SPI_Init@_SPI_,MSSP_SPI_Slave_Mode_GPIO_PIN_Configurations@_SPI_
  1615   0020C0  C020  F019         	movff	SPI_Init@_SPI_+1,MSSP_SPI_Slave_Mode_GPIO_PIN_Configurations@_SPI_+1
  1616   0020C4  ECC5  F013         	call	_MSSP_SPI_Slave_Mode_GPIO_PIN_Configurations	;wreg free
  1617   0020C8                     l5582:
  1618                           
  1619                           ;MCAL_Layer/SPI/hal_spi.c: 44:         SSPCON1bits.CKP = _SPI_->spi_control.ClockPolarit
      +                          y;
  1620   0020C8  EE20 F001          	lfsr	2,1
  1621   0020CC  501F               	movf	SPI_Init@_SPI_^0,w,c
  1622   0020CE  26D9               	addwf	fsr2l,f,c
  1623   0020D0  5020               	movf	(SPI_Init@_SPI_+1)^0,w,c
  1624   0020D2  22DA               	addwfc	fsr2h,f,c
  1625   0020D4  50DF               	movf	223,w,c
  1626   0020D6  0B03               	andlw	3
  1627   0020D8  6E21               	movwf	??_SPI_Init^0,c
  1628   0020DA  3A21               	swapf	??_SPI_Init^0,f,c
  1629   0020DC  50C6               	movf	198,w,c	;volatile
  1630   0020DE  1821               	xorwf	??_SPI_Init^0,w,c
  1631   0020E0  0BEF               	andlw	-17
  1632   0020E2  1821               	xorwf	??_SPI_Init^0,w,c
  1633   0020E4  6EC6               	movwf	198,c	;volatile
  1634                           
  1635                           ;MCAL_Layer/SPI/hal_spi.c: 46:         SSPSTATbits.CKE = _SPI_->spi_control.ClockSelect;
  1636   0020E6  EE20 F001          	lfsr	2,1
  1637   0020EA  501F               	movf	SPI_Init@_SPI_^0,w,c
  1638   0020EC  26D9               	addwf	fsr2l,f,c
  1639   0020EE  5020               	movf	(SPI_Init@_SPI_+1)^0,w,c
  1640   0020F0  22DA               	addwfc	fsr2h,f,c
  1641   0020F2  38DF               	swapf	223,w,c
  1642   0020F4  0B03               	andlw	3
  1643   0020F6  6E21               	movwf	??_SPI_Init^0,c
  1644   0020F8  3A21               	swapf	??_SPI_Init^0,f,c
  1645   0020FA  4621               	rlncf	??_SPI_Init^0,f,c
  1646   0020FC  4621               	rlncf	??_SPI_Init^0,f,c
  1647   0020FE  50C7               	movf	199,w,c	;volatile
  1648   002100  1821               	xorwf	??_SPI_Init^0,w,c
  1649   002102  0BBF               	andlw	-65
  1650   002104  1821               	xorwf	??_SPI_Init^0,w,c
  1651   002106  6EC7               	movwf	199,c	;volatile
  1652                           
  1653                           ;MCAL_Layer/SPI/hal_spi.c: 48:         SSPSTATbits.SMP = _SPI_->spi_control.SampleSelect
      +                          ;
  1654   002108  EE20 F001          	lfsr	2,1
  1655   00210C  501F               	movf	SPI_Init@_SPI_^0,w,c
  1656   00210E  26D9               	addwf	fsr2l,f,c
  1657   002110  5020               	movf	(SPI_Init@_SPI_+1)^0,w,c
  1658   002112  22DA               	addwfc	fsr2h,f,c
  1659   002114  30DF               	rrcf	223,w,c
  1660   002116  32E8               	rrcf	wreg,f,c
  1661   002118  0B03               	andlw	3
  1662   00211A  6E21               	movwf	??_SPI_Init^0,c
  1663   00211C  3221               	rrcf	??_SPI_Init^0,f,c
  1664   00211E  3221               	rrcf	??_SPI_Init^0,f,c
  1665   002120  50C7               	movf	199,w,c	;volatile
  1666   002122  1821               	xorwf	??_SPI_Init^0,w,c
  1667   002124  0B7F               	andlw	-129
  1668   002126  1821               	xorwf	??_SPI_Init^0,w,c
  1669   002128  6EC7               	movwf	199,c	;volatile
  1670   00212A                     
  1671                           ;MCAL_Layer/SPI/hal_spi.c: 52:         (SSPCON1bits.SSPEN = 1);
  1672   00212A  8AC6               	bsf	198,5,c	;volatile
  1673   00212C                     l1268:
  1674   00212C  0012               	return		;funcret
  1675   00212E                     __end_of_SPI_Init:
  1676                           	callstack 0
  1677                           
  1678 ;; *************** function _MSSP_SPI_Slave_Mode_GPIO_PIN_Configurations *****************
  1679 ;; Defined at:
  1680 ;;		line 134 in file "MCAL_Layer/SPI/hal_spi.c"
  1681 ;; Parameters:    Size  Location     Type
  1682 ;;  _SPI_           2   23[COMRAM] PTR const struct .
  1683 ;;		 -> spi_slave(2), 
  1684 ;; Auto vars:     Size  Location     Type
  1685 ;;  ret             2    0        unsigned int 
  1686 ;;  SPI_SCK         1   29[COMRAM] struct .
  1687 ;;  SPI_SS          1   28[COMRAM] struct .
  1688 ;;  SPI_SDI         1   27[COMRAM] struct .
  1689 ;;  SPI_SDO         1   26[COMRAM] struct .
  1690 ;; Return value:  Size  Location     Type
  1691 ;;                  1    wreg      void 
  1692 ;; Registers used:
  1693 ;;		wreg, fsr2l, fsr2h, status,2, status,0, prodl, prodh, cstack
  1694 ;; Tracked objects:
  1695 ;;		On entry : 0/0
  1696 ;;		On exit  : 0/0
  1697 ;;		Unchanged: 0/0
  1698 ;; Data sizes:     COMRAM   BANK0   BANK1   BANK2   BANK3   BANK4   BANK5   BANK6   BANK7   BANK8   BANK9  BANK10  BANK1
      +1  BANK12  BANK13  BANK14  BANK15
  1699 ;;      Params:         2       0       0       0       0       0       0       0       0       0       0       0       
      +0       0       0       0       0
  1700 ;;      Locals:         4       0       0       0       0       0       0       0       0       0       0       0       
      +0       0       0       0       0
  1701 ;;      Temps:          1       0       0       0       0       0       0       0       0       0       0       0       
      +0       0       0       0       0
  1702 ;;      Totals:         7       0       0       0       0       0       0       0       0       0       0       0       
      +0       0       0       0       0
  1703 ;;Total ram usage:        7 bytes
  1704 ;; Hardware stack levels used: 1
  1705 ;; Hardware stack levels required when called: 5
  1706 ;; This function calls:
  1707 ;;		_GPIO_Pin_Direction_Intialize
  1708 ;; This function is called by:
  1709 ;;		_SPI_Init
  1710 ;; This function uses a non-reentrant model
  1711 ;;
  1712                           
  1713                           	psect	text3
  1714   00278A                     __ptext3:
  1715                           	callstack 0
  1716   00278A                     _MSSP_SPI_Slave_Mode_GPIO_PIN_Configurations:
  1717                           	callstack 23
  1718   00278A                     
  1719                           ;MCAL_Layer/SPI/hal_spi.c: 137:     Pin_Config_t SPI_SDO = {.port = PortC_Index ,.pin = 
      +                          pin5 ,.direction = Direction_Outpt};
  1720   00278A  C062  F01B         	movff	MSSP_SPI_Slave_Mode_GPIO_PIN_Configurations@F2872,MSSP_SPI_Slave_Mode_GPIO_PIN_Co
      +                          nfigurations@SPI_SDO
  1721   00278E                     
  1722                           ;MCAL_Layer/SPI/hal_spi.c: 138:     Pin_Config_t SPI_SDI = {.port = PortC_Index ,.pin = 
      +                          pin4 ,.direction = Direction_input};
  1723   00278E  C061  F01C         	movff	MSSP_SPI_Slave_Mode_GPIO_PIN_Configurations@F2874,MSSP_SPI_Slave_Mode_GPIO_PIN_Co
      +                          nfigurations@SPI_SDI
  1724   002792                     
  1725                           ;MCAL_Layer/SPI/hal_spi.c: 139:     Pin_Config_t SPI_SCK = {.port = PortC_Index ,.pin = 
      +                          pin3 ,.direction = Direction_input};
  1726   002792  C060  F01E         	movff	MSSP_SPI_Slave_Mode_GPIO_PIN_Configurations@F2876,MSSP_SPI_Slave_Mode_GPIO_PIN_Co
      +                          nfigurations@SPI_SCK
  1727   002796                     
  1728                           ;MCAL_Layer/SPI/hal_spi.c: 140:     Pin_Config_t SPI_SS = {.port = PortA_Index ,.pin = p
      +                          in5 ,.direction = Direction_input};
  1729   002796  C05F  F01D         	movff	MSSP_SPI_Slave_Mode_GPIO_PIN_Configurations@F2878,MSSP_SPI_Slave_Mode_GPIO_PIN_Co
      +                          nfigurations@SPI_SS
  1730   00279A  0E1B               	movlw	low MSSP_SPI_Slave_Mode_GPIO_PIN_Configurations@SPI_SDO
  1731   00279C  6E0E               	movwf	GPIO_Pin_Direction_Intialize@_Pin_Config_^0,c
  1732   00279E  0E00               	movlw	high MSSP_SPI_Slave_Mode_GPIO_PIN_Configurations@SPI_SDO
  1733   0027A0  6E0F               	movwf	(GPIO_Pin_Direction_Intialize@_Pin_Config_+1)^0,c
  1734   0027A2  ECAB  F00E         	call	_GPIO_Pin_Direction_Intialize	;wreg free
  1735   0027A6  0E1C               	movlw	low MSSP_SPI_Slave_Mode_GPIO_PIN_Configurations@SPI_SDI
  1736   0027A8  6E0E               	movwf	GPIO_Pin_Direction_Intialize@_Pin_Config_^0,c
  1737   0027AA  0E00               	movlw	high MSSP_SPI_Slave_Mode_GPIO_PIN_Configurations@SPI_SDI
  1738   0027AC  6E0F               	movwf	(GPIO_Pin_Direction_Intialize@_Pin_Config_+1)^0,c
  1739   0027AE  ECAB  F00E         	call	_GPIO_Pin_Direction_Intialize	;wreg free
  1740   0027B2  0E1E               	movlw	low MSSP_SPI_Slave_Mode_GPIO_PIN_Configurations@SPI_SCK
  1741   0027B4  6E0E               	movwf	GPIO_Pin_Direction_Intialize@_Pin_Config_^0,c
  1742   0027B6  0E00               	movlw	high MSSP_SPI_Slave_Mode_GPIO_PIN_Configurations@SPI_SCK
  1743   0027B8  6E0F               	movwf	(GPIO_Pin_Direction_Intialize@_Pin_Config_+1)^0,c
  1744   0027BA  ECAB  F00E         	call	_GPIO_Pin_Direction_Intialize	;wreg free
  1745   0027BE  0E1E               	movlw	low MSSP_SPI_Slave_Mode_GPIO_PIN_Configurations@SPI_SCK
  1746   0027C0  6E0E               	movwf	GPIO_Pin_Direction_Intialize@_Pin_Config_^0,c
  1747   0027C2  0E00               	movlw	high MSSP_SPI_Slave_Mode_GPIO_PIN_Configurations@SPI_SCK
  1748   0027C4  6E0F               	movwf	(GPIO_Pin_Direction_Intialize@_Pin_Config_+1)^0,c
  1749   0027C6  ECAB  F00E         	call	_GPIO_Pin_Direction_Intialize	;wreg free
  1750   0027CA                     
  1751                           ;MCAL_Layer/SPI/hal_spi.c: 147:      if(4 == _SPI_->spi_serial_clk_mod_select){
  1752   0027CA  C018  FFD9         	movff	MSSP_SPI_Slave_Mode_GPIO_PIN_Configurations@_SPI_,fsr2l
  1753   0027CE  C019  FFDA         	movff	MSSP_SPI_Slave_Mode_GPIO_PIN_Configurations@_SPI_+1,fsr2h
  1754   0027D2  0E04               	movlw	4
  1755   0027D4  18DE               	xorwf	postinc2,w,c
  1756   0027D6  A4D8               	btfss	status,2,c
  1757   0027D8  EFF0  F013         	goto	u3941
  1758   0027DC  EFF2  F013         	goto	u3940
  1759   0027E0                     u3941:
  1760   0027E0  EFF8  F013         	goto	l1322
  1761   0027E4                     u3940:
  1762   0027E4  0E1D               	movlw	low MSSP_SPI_Slave_Mode_GPIO_PIN_Configurations@SPI_SS
  1763   0027E6  6E0E               	movwf	GPIO_Pin_Direction_Intialize@_Pin_Config_^0,c
  1764   0027E8  0E00               	movlw	high MSSP_SPI_Slave_Mode_GPIO_PIN_Configurations@SPI_SS
  1765   0027EA  6E0F               	movwf	(GPIO_Pin_Direction_Intialize@_Pin_Config_+1)^0,c
  1766   0027EC  ECAB  F00E         	call	_GPIO_Pin_Direction_Intialize	;wreg free
  1767   0027F0                     l1322:
  1768   0027F0  0012               	return		;funcret
  1769   0027F2                     __end_of_MSSP_SPI_Slave_Mode_GPIO_PIN_Configurations:
  1770                           	callstack 0
  1771                           
  1772 ;; *************** function _MSSP_SPI_Msster_Mode_GPIO_PIN_Configurations *****************
  1773 ;; Defined at:
  1774 ;;		line 122 in file "MCAL_Layer/SPI/hal_spi.c"
  1775 ;; Parameters:    Size  Location     Type
  1776 ;;		None
  1777 ;; Auto vars:     Size  Location     Type
  1778 ;;  ret             2    0        unsigned int 
  1779 ;;  SPI_SCK         1   25[COMRAM] struct .
  1780 ;;  SPI_SDI         1   24[COMRAM] struct .
  1781 ;;  SPI_SDO         1   23[COMRAM] struct .
  1782 ;; Return value:  Size  Location     Type
  1783 ;;                  1    wreg      void 
  1784 ;; Registers used:
  1785 ;;		wreg, fsr2l, fsr2h, status,2, status,0, prodl, prodh, cstack
  1786 ;; Tracked objects:
  1787 ;;		On entry : 0/0
  1788 ;;		On exit  : 0/0
  1789 ;;		Unchanged: 0/0
  1790 ;; Data sizes:     COMRAM   BANK0   BANK1   BANK2   BANK3   BANK4   BANK5   BANK6   BANK7   BANK8   BANK9  BANK10  BANK1
      +1  BANK12  BANK13  BANK14  BANK15
  1791 ;;      Params:         0       0       0       0       0       0       0       0       0       0       0       0       
      +0       0       0       0       0
  1792 ;;      Locals:         3       0       0       0       0       0       0       0       0       0       0       0       
      +0       0       0       0       0
  1793 ;;      Temps:          0       0       0       0       0       0       0       0       0       0       0       0       
      +0       0       0       0       0
  1794 ;;      Totals:         3       0       0       0       0       0       0       0       0       0       0       0       
      +0       0       0       0       0
  1795 ;;Total ram usage:        3 bytes
  1796 ;; Hardware stack levels used: 1
  1797 ;; Hardware stack levels required when called: 5
  1798 ;; This function calls:
  1799 ;;		_GPIO_Pin_Direction_Intialize
  1800 ;; This function is called by:
  1801 ;;		_SPI_Init
  1802 ;; This function uses a non-reentrant model
  1803 ;;
  1804                           
  1805                           	psect	text4
  1806   002A16                     __ptext4:
  1807                           	callstack 0
  1808   002A16                     _MSSP_SPI_Msster_Mode_GPIO_PIN_Configurations:
  1809                           	callstack 23
  1810   002A16                     
  1811                           ;MCAL_Layer/SPI/hal_spi.c: 125:     Pin_Config_t SPI_SDO = {.port = PortC_Index ,.pin = 
      +                          pin5 ,.direction = Direction_Outpt};
  1812   002A16  C065  F018         	movff	MSSP_SPI_Msster_Mode_GPIO_PIN_Configurations@F2863,MSSP_SPI_Msster_Mode_GPIO_PIN_
      +                          Configurations@SPI_SDO
  1813   002A1A                     
  1814                           ;MCAL_Layer/SPI/hal_spi.c: 126:     Pin_Config_t SPI_SDI = {.port = PortC_Index ,.pin = 
      +                          pin4 ,.direction = Direction_input};
  1815   002A1A  C064  F019         	movff	MSSP_SPI_Msster_Mode_GPIO_PIN_Configurations@F2865,MSSP_SPI_Msster_Mode_GPIO_PIN_
      +                          Configurations@SPI_SDI
  1816   002A1E                     
  1817                           ;MCAL_Layer/SPI/hal_spi.c: 127:     Pin_Config_t SPI_SCK = {.port = PortC_Index ,.pin = 
      +                          pin3 ,.direction = Direction_Outpt};
  1818   002A1E  C063  F01A         	movff	MSSP_SPI_Msster_Mode_GPIO_PIN_Configurations@F2867,MSSP_SPI_Msster_Mode_GPIO_PIN_
      +                          Configurations@SPI_SCK
  1819   002A22  0E18               	movlw	low MSSP_SPI_Msster_Mode_GPIO_PIN_Configurations@SPI_SDO
  1820   002A24  6E0E               	movwf	GPIO_Pin_Direction_Intialize@_Pin_Config_^0,c
  1821   002A26  0E00               	movlw	high MSSP_SPI_Msster_Mode_GPIO_PIN_Configurations@SPI_SDO
  1822   002A28  6E0F               	movwf	(GPIO_Pin_Direction_Intialize@_Pin_Config_+1)^0,c
  1823   002A2A  ECAB  F00E         	call	_GPIO_Pin_Direction_Intialize	;wreg free
  1824   002A2E  0E19               	movlw	low MSSP_SPI_Msster_Mode_GPIO_PIN_Configurations@SPI_SDI
  1825   002A30  6E0E               	movwf	GPIO_Pin_Direction_Intialize@_Pin_Config_^0,c
  1826   002A32  0E00               	movlw	high MSSP_SPI_Msster_Mode_GPIO_PIN_Configurations@SPI_SDI
  1827   002A34  6E0F               	movwf	(GPIO_Pin_Direction_Intialize@_Pin_Config_+1)^0,c
  1828   002A36  ECAB  F00E         	call	_GPIO_Pin_Direction_Intialize	;wreg free
  1829   002A3A  0E1A               	movlw	low MSSP_SPI_Msster_Mode_GPIO_PIN_Configurations@SPI_SCK
  1830   002A3C  6E0E               	movwf	GPIO_Pin_Direction_Intialize@_Pin_Config_^0,c
  1831   002A3E  0E00               	movlw	high MSSP_SPI_Msster_Mode_GPIO_PIN_Configurations@SPI_SCK
  1832   002A40  6E0F               	movwf	(GPIO_Pin_Direction_Intialize@_Pin_Config_+1)^0,c
  1833   002A42  ECAB  F00E         	call	_GPIO_Pin_Direction_Intialize	;wreg free
  1834   002A46  0012               	return		;funcret
  1835   002A48                     __end_of_MSSP_SPI_Msster_Mode_GPIO_PIN_Configurations:
  1836                           	callstack 0
  1837                           
  1838 ;; *************** function _Led_Intialize *****************
  1839 ;; Defined at:
  1840 ;;		line 17 in file "ECU_Layer/LED/ecu_Led.c"
  1841 ;; Parameters:    Size  Location     Type
  1842 ;;  Led             2   28[COMRAM] PTR const struct .
  1843 ;;		 -> led_Air_con(1), led_TV(1), led_Room4(1), led_Room3(1), 
  1844 ;;		 -> led_Room2(1), led_Room1(1), led_Admin(1), led_Guest(1), 
  1845 ;;		 -> led_Block(1), 
  1846 ;; Auto vars:     Size  Location     Type
  1847 ;;  _pin_config_    1   33[COMRAM] struct .
  1848 ;;  ret             2   31[COMRAM] unsigned int 
  1849 ;; Return value:  Size  Location     Type
  1850 ;;                  2   28[COMRAM] unsigned int 
  1851 ;; Registers used:
  1852 ;;		wreg, fsr2l, fsr2h, status,2, status,0, prodl, prodh, cstack
  1853 ;; Tracked objects:
  1854 ;;		On entry : 0/0
  1855 ;;		On exit  : 0/0
  1856 ;;		Unchanged: 0/0
  1857 ;; Data sizes:     COMRAM   BANK0   BANK1   BANK2   BANK3   BANK4   BANK5   BANK6   BANK7   BANK8   BANK9  BANK10  BANK1
      +1  BANK12  BANK13  BANK14  BANK15
  1858 ;;      Params:         2       0       0       0       0       0       0       0       0       0       0       0       
      +0       0       0       0       0
  1859 ;;      Locals:         3       0       0       0       0       0       0       0       0       0       0       0       
      +0       0       0       0       0
  1860 ;;      Temps:          1       0       0       0       0       0       0       0       0       0       0       0       
      +0       0       0       0       0
  1861 ;;      Totals:         6       0       0       0       0       0       0       0       0       0       0       0       
      +0       0       0       0       0
  1862 ;;Total ram usage:        6 bytes
  1863 ;; Hardware stack levels used: 1
  1864 ;; Hardware stack levels required when called: 6
  1865 ;; This function calls:
  1866 ;;		_GPIO_Pin_Intialize
  1867 ;; This function is called by:
  1868 ;;		_intialization
  1869 ;;		_ecu_intialize
  1870 ;; This function uses a non-reentrant model
  1871 ;;
  1872                           
  1873                           	psect	text5
  1874   002688                     __ptext5:
  1875                           	callstack 0
  1876   002688                     _Led_Intialize:
  1877                           	callstack 23
  1878   002688                     
  1879                           ;ECU_Layer/LED/ecu_Led.c: 20:     if(((void*)0) == Led)
  1880   002688  501D               	movf	Led_Intialize@Led^0,w,c
  1881   00268A  101E               	iorwf	(Led_Intialize@Led+1)^0,w,c
  1882   00268C  A4D8               	btfss	status,2,c
  1883   00268E  EF4B  F013         	goto	u3971
  1884   002692  EF4D  F013         	goto	u3970
  1885   002696                     u3971:
  1886   002696  EF53  F013         	goto	l196
  1887   00269A                     u3970:
  1888   00269A                     
  1889                           ;ECU_Layer/LED/ecu_Led.c: 21:     {;ECU_Layer/LED/ecu_Led.c: 22:         ret = (Std_Retu
      +                          rnType)0x00;
  1890   00269A  0E00               	movlw	0
  1891   00269C  6E21               	movwf	(Led_Intialize@ret+1)^0,c
  1892   00269E  0E00               	movlw	0
  1893   0026A0  6E20               	movwf	Led_Intialize@ret^0,c
  1894                           
  1895                           ;ECU_Layer/LED/ecu_Led.c: 23:     }
  1896   0026A2  EF86  F013         	goto	l5504
  1897   0026A6                     l196:
  1898                           
  1899                           ;ECU_Layer/LED/ecu_Led.c: 25:     {;ECU_Layer/LED/ecu_Led.c: 26:         Pin_Config_t _p
      +                          in_config_ =
  1900   0026A6  C05A  F022         	movff	Led_Intialize@F2820,Led_Intialize@_pin_config_
  1901   0026AA  C01D  FFD9         	movff	Led_Intialize@Led,fsr2l
  1902   0026AE  C01E  FFDA         	movff	Led_Intialize@Led+1,fsr2h
  1903   0026B2  50DF               	movf	223,w,c
  1904   0026B4  0B07               	andlw	7
  1905   0026B6  6E1F               	movwf	??_Led_Intialize^0,c
  1906   0026B8  5022               	movf	Led_Intialize@_pin_config_^0,w,c
  1907   0026BA  181F               	xorwf	??_Led_Intialize^0,w,c
  1908   0026BC  0BF8               	andlw	-8
  1909   0026BE  181F               	xorwf	??_Led_Intialize^0,w,c
  1910   0026C0  6E22               	movwf	Led_Intialize@_pin_config_^0,c
  1911   0026C2  C01D  FFD9         	movff	Led_Intialize@Led,fsr2l
  1912   0026C6  C01E  FFDA         	movff	Led_Intialize@Led+1,fsr2h
  1913   0026CA  30DF               	rrcf	223,w,c
  1914   0026CC  32E8               	rrcf	wreg,f,c
  1915   0026CE  32E8               	rrcf	wreg,f,c
  1916   0026D0  0B07               	andlw	7
  1917   0026D2  6E1F               	movwf	??_Led_Intialize^0,c
  1918   0026D4  461F               	rlncf	??_Led_Intialize^0,f,c
  1919   0026D6  461F               	rlncf	??_Led_Intialize^0,f,c
  1920   0026D8  461F               	rlncf	??_Led_Intialize^0,f,c
  1921   0026DA  5022               	movf	Led_Intialize@_pin_config_^0,w,c
  1922   0026DC  181F               	xorwf	??_Led_Intialize^0,w,c
  1923   0026DE  0BC7               	andlw	-57
  1924   0026E0  181F               	xorwf	??_Led_Intialize^0,w,c
  1925   0026E2  6E22               	movwf	Led_Intialize@_pin_config_^0,c
  1926   0026E4  9C22               	bcf	Led_Intialize@_pin_config_^0,6,c
  1927   0026E6  C01D  FFD9         	movff	Led_Intialize@Led,fsr2l
  1928   0026EA  C01E  FFDA         	movff	Led_Intialize@Led+1,fsr2h
  1929   0026EE  ACDF               	btfss	indf2,6,c
  1930   0026F0  D002               	bra	u3985
  1931   0026F2  8E22               	bsf	Led_Intialize@_pin_config_^0,7,c
  1932   0026F4  D001               	bra	u3987
  1933   0026F6                     u3985:
  1934   0026F6  9E22               	bcf	Led_Intialize@_pin_config_^0,7,c
  1935   0026F8                     u3987:
  1936   0026F8                     
  1937                           ;ECU_Layer/LED/ecu_Led.c: 33:         ret = GPIO_Pin_Intialize(&_pin_config_);
  1938   0026F8  0E22               	movlw	low Led_Intialize@_pin_config_
  1939   0026FA  6E19               	movwf	GPIO_Pin_Intialize@_Pin_Config_^0,c
  1940   0026FC  0E00               	movlw	high Led_Intialize@_pin_config_
  1941   0026FE  6E1A               	movwf	(GPIO_Pin_Intialize@_Pin_Config_+1)^0,c
  1942   002700  EC2A  F014         	call	_GPIO_Pin_Intialize	;wreg free
  1943   002704  C019  F020         	movff	?_GPIO_Pin_Intialize,Led_Intialize@ret
  1944   002708  C01A  F021         	movff	?_GPIO_Pin_Intialize+1,Led_Intialize@ret+1
  1945   00270C                     l5504:
  1946                           
  1947                           ;ECU_Layer/LED/ecu_Led.c: 35:     return ret;
  1948   00270C  C020  F01D         	movff	Led_Intialize@ret,?_Led_Intialize
  1949   002710  C021  F01E         	movff	Led_Intialize@ret+1,?_Led_Intialize+1
  1950   002714  0012               	return		;funcret
  1951   002716                     __end_of_Led_Intialize:
  1952                           	callstack 0
  1953                           
  1954 ;; *************** function _GPIO_Pin_Intialize *****************
  1955 ;; Defined at:
  1956 ;;		line 147 in file "MCAL_Layer/GPIO/hal_GPIO.c"
  1957 ;; Parameters:    Size  Location     Type
  1958 ;;  _Pin_Config_    2   24[COMRAM] PTR const struct .
  1959 ;;		 -> lcd1.data_pin(4), lcd1(6), key_pad1.Key_Pad_Coulmns(4), key_pad1.Key_Pad_Rows(4), 
  1960 ;;		 -> key_pad1(8), Relay_Intialize@_pin_config(1), Led_Intialize@_pin_config_(1), 
  1961 ;; Auto vars:     Size  Location     Type
  1962 ;;  ret             2   26[COMRAM] unsigned int 
  1963 ;; Return value:  Size  Location     Type
  1964 ;;                  2   24[COMRAM] unsigned int 
  1965 ;; Registers used:
  1966 ;;		wreg, fsr2l, fsr2h, status,2, status,0, prodl, prodh, cstack
  1967 ;; Tracked objects:
  1968 ;;		On entry : 0/0
  1969 ;;		On exit  : 0/0
  1970 ;;		Unchanged: 0/0
  1971 ;; Data sizes:     COMRAM   BANK0   BANK1   BANK2   BANK3   BANK4   BANK5   BANK6   BANK7   BANK8   BANK9  BANK10  BANK1
      +1  BANK12  BANK13  BANK14  BANK15
  1972 ;;      Params:         2       0       0       0       0       0       0       0       0       0       0       0       
      +0       0       0       0       0
  1973 ;;      Locals:         2       0       0       0       0       0       0       0       0       0       0       0       
      +0       0       0       0       0
  1974 ;;      Temps:          0       0       0       0       0       0       0       0       0       0       0       0       
      +0       0       0       0       0
  1975 ;;      Totals:         4       0       0       0       0       0       0       0       0       0       0       0       
      +0       0       0       0       0
  1976 ;;Total ram usage:        4 bytes
  1977 ;; Hardware stack levels used: 1
  1978 ;; Hardware stack levels required when called: 5
  1979 ;; This function calls:
  1980 ;;		_GPIO_Pin_Direction_Intialize
  1981 ;;		_GPIO_Pin_Write_Logic
  1982 ;; This function is called by:
  1983 ;;		_Led_Intialize
  1984 ;;		_lcd_intialize
  1985 ;;		_Dc_Motor_Intialize
  1986 ;;		_Key_Pad_Intialize
  1987 ;;		_Relay_Intialize
  1988 ;;		_Segment_Intialize
  1989 ;;		_CCP_intialize
  1990 ;;		_ECCP_intialize
  1991 ;;		_Interrupt_RBX_Pin_Intiat
  1992 ;; This function uses a non-reentrant model
  1993 ;;
  1994                           
  1995                           	psect	text6
  1996   002854                     __ptext6:
  1997                           	callstack 0
  1998   002854                     _GPIO_Pin_Intialize:
  1999                           	callstack 23
  2000   002854                     
  2001                           ;MCAL_Layer/GPIO/hal_GPIO.c: 150:     if(_Pin_Config_ == ((void*)0) )
  2002   002854  5019               	movf	GPIO_Pin_Intialize@_Pin_Config_^0,w,c
  2003   002856  101A               	iorwf	(GPIO_Pin_Intialize@_Pin_Config_+1)^0,w,c
  2004   002858  A4D8               	btfss	status,2,c
  2005   00285A  EF31  F014         	goto	u3821
  2006   00285E  EF33  F014         	goto	u3820
  2007   002862                     u3821:
  2008   002862  EF39  F014         	goto	l5336
  2009   002866                     u3820:
  2010   002866                     
  2011                           ;MCAL_Layer/GPIO/hal_GPIO.c: 151:     {;MCAL_Layer/GPIO/hal_GPIO.c: 152:         ret = (
      +                          Std_ReturnType)0x00 ;
  2012   002866  0E00               	movlw	0
  2013   002868  6E1C               	movwf	(GPIO_Pin_Intialize@ret+1)^0,c
  2014   00286A  0E00               	movlw	0
  2015   00286C  6E1B               	movwf	GPIO_Pin_Intialize@ret^0,c
  2016                           
  2017                           ;MCAL_Layer/GPIO/hal_GPIO.c: 153:     }
  2018   00286E  EF55  F014         	goto	l5338
  2019   002872                     l5336:
  2020                           
  2021                           ;MCAL_Layer/GPIO/hal_GPIO.c: 155:     {;MCAL_Layer/GPIO/hal_GPIO.c: 156:         ret = G
      +                          PIO_Pin_Direction_Intialize(_Pin_Config_);
  2022   002872  C019  F00E         	movff	GPIO_Pin_Intialize@_Pin_Config_,GPIO_Pin_Direction_Intialize@_Pin_Config_
  2023   002876  C01A  F00F         	movff	GPIO_Pin_Intialize@_Pin_Config_+1,GPIO_Pin_Direction_Intialize@_Pin_Config_+1
  2024   00287A  ECAB  F00E         	call	_GPIO_Pin_Direction_Intialize	;wreg free
  2025   00287E  C00E  F01B         	movff	?_GPIO_Pin_Direction_Intialize,GPIO_Pin_Intialize@ret
  2026   002882  C00F  F01C         	movff	?_GPIO_Pin_Direction_Intialize+1,GPIO_Pin_Intialize@ret+1
  2027                           
  2028                           ;MCAL_Layer/GPIO/hal_GPIO.c: 157:         ret = GPIO_Pin_Write_Logic(_Pin_Config_ ,_Pin_
      +                          Config_->logic);
  2029   002886  C019  F00E         	movff	GPIO_Pin_Intialize@_Pin_Config_,GPIO_Pin_Write_Logic@_Pin_Config_
  2030   00288A  C01A  F00F         	movff	GPIO_Pin_Intialize@_Pin_Config_+1,GPIO_Pin_Write_Logic@_Pin_Config_+1
  2031   00288E  C019  FFD9         	movff	GPIO_Pin_Intialize@_Pin_Config_,fsr2l
  2032   002892  C01A  FFDA         	movff	GPIO_Pin_Intialize@_Pin_Config_+1,fsr2h
  2033   002896  0E00               	movlw	0
  2034   002898  BEDF               	btfsc	indf2,7,c
  2035   00289A  0E01               	movlw	1
  2036   00289C  6E10               	movwf	GPIO_Pin_Write_Logic@Logic^0,c
  2037   00289E  EC54  F00F         	call	_GPIO_Pin_Write_Logic	;wreg free
  2038   0028A2  C00E  F01B         	movff	?_GPIO_Pin_Write_Logic,GPIO_Pin_Intialize@ret
  2039   0028A6  C00F  F01C         	movff	?_GPIO_Pin_Write_Logic+1,GPIO_Pin_Intialize@ret+1
  2040   0028AA                     l5338:
  2041                           
  2042                           ;MCAL_Layer/GPIO/hal_GPIO.c: 159:     return ret;
  2043   0028AA  C01B  F019         	movff	GPIO_Pin_Intialize@ret,?_GPIO_Pin_Intialize
  2044   0028AE  C01C  F01A         	movff	GPIO_Pin_Intialize@ret+1,?_GPIO_Pin_Intialize+1
  2045   0028B2  0012               	return		;funcret
  2046   0028B4                     __end_of_GPIO_Pin_Intialize:
  2047                           	callstack 0
  2048                           
  2049 ;; *************** function _GPIO_Pin_Direction_Intialize *****************
  2050 ;; Defined at:
  2051 ;;		line 22 in file "MCAL_Layer/GPIO/hal_GPIO.c"
  2052 ;; Parameters:    Size  Location     Type
  2053 ;;  _Pin_Config_    2   13[COMRAM] PTR const struct .
  2054 ;;		 -> MSSP_SPI_Slave_Mode_GPIO_PIN_Configurations@SPI_SS(1), MSSP_SPI_Slave_Mode_GPIO_PIN_Configurations@SPI_SCK(1), M
      +SSP_SPI_Slave_Mode_GPIO_PIN_Configurations@SPI_SDI(1), MSSP_SPI_Slave_Mode_GPIO_PIN_Configurations@SPI_SDO(1), 
  2055 ;;		 -> MSSP_SPI_Msster_Mode_GPIO_PIN_Configurations@SPI_SCK(1), MSSP_SPI_Msster_Mode_GPIO_PIN_Configurations@SPI_SDI(1)
      +, MSSP_SPI_Msster_Mode_GPIO_PIN_Configurations@SPI_SDO(1), lcd1.data_pin(4), 
  2056 ;;		 -> lcd1(6), key_pad1.Key_Pad_Coulmns(4), key_pad1.Key_Pad_Rows(4), key_pad1(8), 
  2057 ;;		 -> Relay_Intialize@_pin_config(1), Led_Intialize@_pin_config_(1), 
  2058 ;; Auto vars:     Size  Location     Type
  2059 ;;  ret             2   21[COMRAM] unsigned int 
  2060 ;; Return value:  Size  Location     Type
  2061 ;;                  2   13[COMRAM] unsigned int 
  2062 ;; Registers used:
  2063 ;;		wreg, fsr2l, fsr2h, status,2, status,0, prodl, prodh
  2064 ;; Tracked objects:
  2065 ;;		On entry : 0/0
  2066 ;;		On exit  : 0/0
  2067 ;;		Unchanged: 0/0
  2068 ;; Data sizes:     COMRAM   BANK0   BANK1   BANK2   BANK3   BANK4   BANK5   BANK6   BANK7   BANK8   BANK9  BANK10  BANK1
      +1  BANK12  BANK13  BANK14  BANK15
  2069 ;;      Params:         2       0       0       0       0       0       0       0       0       0       0       0       
      +0       0       0       0       0
  2070 ;;      Locals:         2       0       0       0       0       0       0       0       0       0       0       0       
      +0       0       0       0       0
  2071 ;;      Temps:          6       0       0       0       0       0       0       0       0       0       0       0       
      +0       0       0       0       0
  2072 ;;      Totals:        10       0       0       0       0       0       0       0       0       0       0       0       
      +0       0       0       0       0
  2073 ;;Total ram usage:       10 bytes
  2074 ;; Hardware stack levels used: 1
  2075 ;; Hardware stack levels required when called: 4
  2076 ;; This function calls:
  2077 ;;		Nothing
  2078 ;; This function is called by:
  2079 ;;		_GPIO_Pin_Intialize
  2080 ;;		_MSSP_SPI_Msster_Mode_GPIO_PIN_Configurations
  2081 ;;		_MSSP_SPI_Slave_Mode_GPIO_PIN_Configurations
  2082 ;;		_Button_Initialize
  2083 ;;		_Interrupt_INTX_Pin_Intiat
  2084 ;; This function uses a non-reentrant model
  2085 ;;
  2086                           
  2087                           	psect	text7
  2088   001D56                     __ptext7:
  2089                           	callstack 0
  2090   001D56                     _GPIO_Pin_Direction_Intialize:
  2091                           	callstack 23
  2092   001D56                     
  2093                           ;MCAL_Layer/GPIO/hal_GPIO.c: 22: Std_ReturnType GPIO_Pin_Direction_Intialize(const Pin_C
      +                          onfig_t *_Pin_Config_);MCAL_Layer/GPIO/hal_GPIO.c: 23: {;MCAL_Layer/GPIO/hal_GPIO.c: 24:
      +                               Std_ReturnType ret = (Std_ReturnType)0x01;
  2094   001D56  0E00               	movlw	0
  2095   001D58  6E17               	movwf	(GPIO_Pin_Direction_Intialize@ret+1)^0,c
  2096   001D5A  0E01               	movlw	1
  2097   001D5C  6E16               	movwf	GPIO_Pin_Direction_Intialize@ret^0,c
  2098   001D5E                     
  2099                           ;MCAL_Layer/GPIO/hal_GPIO.c: 25:     if(_Pin_Config_ == ((void*)0) || _Pin_Config_-> pin
      +                           > (uint8)8 -1)
  2100   001D5E  500E               	movf	GPIO_Pin_Direction_Intialize@_Pin_Config_^0,w,c
  2101   001D60  100F               	iorwf	(GPIO_Pin_Direction_Intialize@_Pin_Config_+1)^0,w,c
  2102   001D62  B4D8               	btfsc	status,2,c
  2103   001D64  EFB6  F00E         	goto	u3721
  2104   001D68  EFB8  F00E         	goto	u3720
  2105   001D6C                     u3721:
  2106   001D6C  EFC9  F00E         	goto	l5296
  2107   001D70                     u3720:
  2108   001D70  C00E  FFD9         	movff	GPIO_Pin_Direction_Intialize@_Pin_Config_,fsr2l
  2109   001D74  C00F  FFDA         	movff	GPIO_Pin_Direction_Intialize@_Pin_Config_+1,fsr2h
  2110   001D78  30DF               	rrcf	223,w,c
  2111   001D7A  32E8               	rrcf	wreg,f,c
  2112   001D7C  32E8               	rrcf	wreg,f,c
  2113   001D7E  0B07               	andlw	7
  2114   001D80  6E10               	movwf	??_GPIO_Pin_Direction_Intialize^0,c
  2115   001D82  0E07               	movlw	7
  2116   001D84  6410               	cpfsgt	??_GPIO_Pin_Direction_Intialize^0,c
  2117   001D86  EFC7  F00E         	goto	u3731
  2118   001D8A  EFC9  F00E         	goto	u3730
  2119   001D8E                     u3731:
  2120   001D8E  EF2E  F00F         	goto	l5304
  2121   001D92                     u3730:
  2122   001D92                     l5296:
  2123                           
  2124                           ;MCAL_Layer/GPIO/hal_GPIO.c: 26:     {;MCAL_Layer/GPIO/hal_GPIO.c: 27:         ret = (St
      +                          d_ReturnType)0x00 ;
  2125   001D92  0E00               	movlw	0
  2126   001D94  6E17               	movwf	(GPIO_Pin_Direction_Intialize@ret+1)^0,c
  2127   001D96  0E00               	movlw	0
  2128   001D98  6E16               	movwf	GPIO_Pin_Direction_Intialize@ret^0,c
  2129                           
  2130                           ;MCAL_Layer/GPIO/hal_GPIO.c: 28:     }
  2131   001D9A  EF4F  F00F         	goto	l686
  2132   001D9E                     l5298:
  2133                           
  2134                           ;MCAL_Layer/GPIO/hal_GPIO.c: 34:                 (*Tris_Reg[_Pin_Config_->port]&= ~((uin
      +                          t8)1 <<_Pin_Config_->pin));
  2135   001D9E  C00E  FFD9         	movff	GPIO_Pin_Direction_Intialize@_Pin_Config_,fsr2l
  2136   001DA2  C00F  FFDA         	movff	GPIO_Pin_Direction_Intialize@_Pin_Config_+1,fsr2h
  2137   001DA6  30DF               	rrcf	223,w,c
  2138   001DA8  32E8               	rrcf	wreg,f,c
  2139   001DAA  32E8               	rrcf	wreg,f,c
  2140   001DAC  0B07               	andlw	7
  2141   001DAE  6E10               	movwf	??_GPIO_Pin_Direction_Intialize^0,c
  2142   001DB0  0E01               	movlw	1
  2143   001DB2  6E11               	movwf	(??_GPIO_Pin_Direction_Intialize+1)^0,c
  2144   001DB4  2A10               	incf	??_GPIO_Pin_Direction_Intialize^0,f,c
  2145   001DB6  EFDF  F00E         	goto	u3744
  2146   001DBA                     u3745:
  2147   001DBA  90D8               	bcf	status,0,c
  2148   001DBC  3611               	rlcf	(??_GPIO_Pin_Direction_Intialize+1)^0,f,c
  2149   001DBE                     u3744:
  2150   001DBE  2E10               	decfsz	??_GPIO_Pin_Direction_Intialize^0,f,c
  2151   001DC0  EFDD  F00E         	goto	u3745
  2152   001DC4  5011               	movf	(??_GPIO_Pin_Direction_Intialize+1)^0,w,c
  2153   001DC6  0AFF               	xorlw	255
  2154   001DC8  6E12               	movwf	(??_GPIO_Pin_Direction_Intialize+2)^0,c
  2155   001DCA  C00E  FFD9         	movff	GPIO_Pin_Direction_Intialize@_Pin_Config_,fsr2l
  2156   001DCE  C00F  FFDA         	movff	GPIO_Pin_Direction_Intialize@_Pin_Config_+1,fsr2h
  2157   001DD2  50DF               	movf	223,w,c
  2158   001DD4  0B07               	andlw	7
  2159   001DD6  6E13               	movwf	(??_GPIO_Pin_Direction_Intialize+3)^0,c
  2160   001DD8  5013               	movf	(??_GPIO_Pin_Direction_Intialize+3)^0,w,c
  2161   001DDA  0D02               	mullw	2
  2162   001DDC  0EC9               	movlw	low _Tris_Reg
  2163   001DDE  24F3               	addwf	243,w,c
  2164   001DE0  6ED9               	movwf	fsr2l,c
  2165   001DE2  0E00               	movlw	high _Tris_Reg
  2166   001DE4  20F4               	addwfc	prodh,w,c
  2167   001DE6  6EDA               	movwf	fsr2h,c
  2168   001DE8  CFDE F014          	movff	postinc2,??_GPIO_Pin_Direction_Intialize+4
  2169   001DEC  CFDD F015          	movff	postdec2,??_GPIO_Pin_Direction_Intialize+5
  2170   001DF0  C014  FFD9         	movff	??_GPIO_Pin_Direction_Intialize+4,fsr2l
  2171   001DF4  C015  FFDA         	movff	??_GPIO_Pin_Direction_Intialize+5,fsr2h
  2172   001DF8  5012               	movf	(??_GPIO_Pin_Direction_Intialize+2)^0,w,c
  2173   001DFA  16DF               	andwf	indf2,f,c
  2174                           
  2175                           ;MCAL_Layer/GPIO/hal_GPIO.c: 35:                 break;
  2176   001DFC  EF4F  F00F         	goto	l686
  2177   001E00                     l5300:
  2178                           
  2179                           ;MCAL_Layer/GPIO/hal_GPIO.c: 37:                 (*Tris_Reg[_Pin_Config_->port]|=((uint8
      +                          )1 <<_Pin_Config_->pin));
  2180   001E00  C00E  FFD9         	movff	GPIO_Pin_Direction_Intialize@_Pin_Config_,fsr2l
  2181   001E04  C00F  FFDA         	movff	GPIO_Pin_Direction_Intialize@_Pin_Config_+1,fsr2h
  2182   001E08  30DF               	rrcf	223,w,c
  2183   001E0A  32E8               	rrcf	wreg,f,c
  2184   001E0C  32E8               	rrcf	wreg,f,c
  2185   001E0E  0B07               	andlw	7
  2186   001E10  6E10               	movwf	??_GPIO_Pin_Direction_Intialize^0,c
  2187   001E12  0E01               	movlw	1
  2188   001E14  6E11               	movwf	(??_GPIO_Pin_Direction_Intialize+1)^0,c
  2189   001E16  2A10               	incf	??_GPIO_Pin_Direction_Intialize^0,f,c
  2190   001E18  EF10  F00F         	goto	u3754
  2191   001E1C                     u3755:
  2192   001E1C  90D8               	bcf	status,0,c
  2193   001E1E  3611               	rlcf	(??_GPIO_Pin_Direction_Intialize+1)^0,f,c
  2194   001E20                     u3754:
  2195   001E20  2E10               	decfsz	??_GPIO_Pin_Direction_Intialize^0,f,c
  2196   001E22  EF0E  F00F         	goto	u3755
  2197   001E26  C00E  FFD9         	movff	GPIO_Pin_Direction_Intialize@_Pin_Config_,fsr2l
  2198   001E2A  C00F  FFDA         	movff	GPIO_Pin_Direction_Intialize@_Pin_Config_+1,fsr2h
  2199   001E2E  50DF               	movf	223,w,c
  2200   001E30  0B07               	andlw	7
  2201   001E32  6E12               	movwf	(??_GPIO_Pin_Direction_Intialize+2)^0,c
  2202   001E34  5012               	movf	(??_GPIO_Pin_Direction_Intialize+2)^0,w,c
  2203   001E36  0D02               	mullw	2
  2204   001E38  0EC9               	movlw	low _Tris_Reg
  2205   001E3A  24F3               	addwf	243,w,c
  2206   001E3C  6ED9               	movwf	fsr2l,c
  2207   001E3E  0E00               	movlw	high _Tris_Reg
  2208   001E40  20F4               	addwfc	prodh,w,c
  2209   001E42  6EDA               	movwf	fsr2h,c
  2210   001E44  CFDE F013          	movff	postinc2,??_GPIO_Pin_Direction_Intialize+3
  2211   001E48  CFDD F014          	movff	postdec2,??_GPIO_Pin_Direction_Intialize+4
  2212   001E4C  C013  FFD9         	movff	??_GPIO_Pin_Direction_Intialize+3,fsr2l
  2213   001E50  C014  FFDA         	movff	??_GPIO_Pin_Direction_Intialize+4,fsr2h
  2214   001E54  5011               	movf	(??_GPIO_Pin_Direction_Intialize+1)^0,w,c
  2215   001E56  12DF               	iorwf	indf2,f,c
  2216                           
  2217                           ;MCAL_Layer/GPIO/hal_GPIO.c: 38:                 break;
  2218   001E58  EF4F  F00F         	goto	l686
  2219   001E5C                     l5304:
  2220   001E5C  C00E  FFD9         	movff	GPIO_Pin_Direction_Intialize@_Pin_Config_,fsr2l
  2221   001E60  C00F  FFDA         	movff	GPIO_Pin_Direction_Intialize@_Pin_Config_+1,fsr2h
  2222   001E64  BCDF               	btfsc	indf2,6,c
  2223   001E66  EF37  F00F         	goto	u3761
  2224   001E6A  EF3A  F00F         	goto	u3760
  2225   001E6E                     u3761:
  2226   001E6E  0E01               	movlw	1
  2227   001E70  EF3B  F00F         	goto	u3770
  2228   001E74                     u3760:
  2229   001E74  0E00               	movlw	0
  2230   001E76                     u3770:
  2231   001E76  6E10               	movwf	??_GPIO_Pin_Direction_Intialize^0,c
  2232   001E78  6A11               	clrf	(??_GPIO_Pin_Direction_Intialize+1)^0,c
  2233                           
  2234                           ; Switch on 2 bytes has been partitioned into a top level switch of size 1, and 1 sub-sw
      +                          itches
  2235                           ; Switch size 1, requested type "simple"
  2236                           ; Number of cases is 1, Range of values is 0 to 0
  2237                           ; switch strategies available:
  2238                           ; Name         Instructions Cycles
  2239                           ; simple_byte            4     3 (average)
  2240                           ;	Chosen strategy is simple_byte
  2241   001E7A  5011               	movf	(??_GPIO_Pin_Direction_Intialize+1)^0,w,c
  2242   001E7C  0A00               	xorlw	0	; case 0
  2243   001E7E  B4D8               	btfsc	status,2,c
  2244   001E80  EF44  F00F         	goto	l7724
  2245   001E84  EFC9  F00E         	goto	l5296
  2246   001E88                     l7724:
  2247                           
  2248                           ; Switch size 1, requested type "simple"
  2249                           ; Number of cases is 2, Range of values is 0 to 1
  2250                           ; switch strategies available:
  2251                           ; Name         Instructions Cycles
  2252                           ; simple_byte            7     4 (average)
  2253                           ;	Chosen strategy is simple_byte
  2254   001E88  5010               	movf	??_GPIO_Pin_Direction_Intialize^0,w,c
  2255   001E8A  0A00               	xorlw	0	; case 0
  2256   001E8C  B4D8               	btfsc	status,2,c
  2257   001E8E  EFCF  F00E         	goto	l5298
  2258   001E92  0A01               	xorlw	1	; case 1
  2259   001E94  B4D8               	btfsc	status,2,c
  2260   001E96  EF00  F00F         	goto	l5300
  2261   001E9A  EFC9  F00E         	goto	l5296
  2262   001E9E                     l686:
  2263                           
  2264                           ;MCAL_Layer/GPIO/hal_GPIO.c: 42:     return ret;
  2265   001E9E  C016  F00E         	movff	GPIO_Pin_Direction_Intialize@ret,?_GPIO_Pin_Direction_Intialize
  2266   001EA2  C017  F00F         	movff	GPIO_Pin_Direction_Intialize@ret+1,?_GPIO_Pin_Direction_Intialize+1
  2267   001EA6  0012               	return		;funcret
  2268   001EA8                     __end_of_GPIO_Pin_Direction_Intialize:
  2269                           	callstack 0
  2270                           
  2271 ;; *************** function _ADC_Intialization *****************
  2272 ;; Defined at:
  2273 ;;		line 30 in file "MCAL_Layer/MCAL_ADC/mcal_adc.c"
  2274 ;; Parameters:    Size  Location     Type
  2275 ;;  adc_            2   16[COMRAM] PTR const struct .
  2276 ;;		 -> adc_1(6), 
  2277 ;; Auto vars:     Size  Location     Type
  2278 ;;  ret             2   19[COMRAM] unsigned int 
  2279 ;; Return value:  Size  Location     Type
  2280 ;;                  2   16[COMRAM] unsigned int 
  2281 ;; Registers used:
  2282 ;;		wreg, fsr2l, fsr2h, status,2, status,0, cstack
  2283 ;; Tracked objects:
  2284 ;;		On entry : 0/0
  2285 ;;		On exit  : 0/0
  2286 ;;		Unchanged: 0/0
  2287 ;; Data sizes:     COMRAM   BANK0   BANK1   BANK2   BANK3   BANK4   BANK5   BANK6   BANK7   BANK8   BANK9  BANK10  BANK1
      +1  BANK12  BANK13  BANK14  BANK15
  2288 ;;      Params:         2       0       0       0       0       0       0       0       0       0       0       0       
      +0       0       0       0       0
  2289 ;;      Locals:         2       0       0       0       0       0       0       0       0       0       0       0       
      +0       0       0       0       0
  2290 ;;      Temps:          1       0       0       0       0       0       0       0       0       0       0       0       
      +0       0       0       0       0
  2291 ;;      Totals:         5       0       0       0       0       0       0       0       0       0       0       0       
      +0       0       0       0       0
  2292 ;;Total ram usage:        5 bytes
  2293 ;; Hardware stack levels used: 1
  2294 ;; Hardware stack levels required when called: 5
  2295 ;; This function calls:
  2296 ;;		_ADC_Select_Voltage_Reference
  2297 ;;		_ADC_Select_format_status
  2298 ;;		_ADC_Set_Channel_As_Inbut
  2299 ;; This function is called by:
  2300 ;;		_intialization
  2301 ;; This function uses a non-reentrant model
  2302 ;;
  2303                           
  2304                           	psect	text8
  2305   0023F4                     __ptext8:
  2306                           	callstack 0
  2307   0023F4                     _ADC_Intialization:
  2308                           	callstack 24
  2309   0023F4                     
  2310                           ;MCAL_Layer/MCAL_ADC/mcal_adc.c: 30: Std_ReturnType ADC_Intialization(const ADC_Conf_t *
      +                          adc_);MCAL_Layer/MCAL_ADC/mcal_adc.c: 31: {;MCAL_Layer/MCAL_ADC/mcal_adc.c: 32:    Std_R
      +                          eturnType ret = (Std_ReturnType)0x01 ;
  2311   0023F4  0E00               	movlw	0
  2312   0023F6  6E15               	movwf	(ADC_Intialization@ret+1)^0,c
  2313   0023F8  0E01               	movlw	1
  2314   0023FA  6E14               	movwf	ADC_Intialization@ret^0,c
  2315   0023FC                     
  2316                           ;MCAL_Layer/MCAL_ADC/mcal_adc.c: 33:     if(((void*)0) == adc_ )
  2317   0023FC  5011               	movf	ADC_Intialization@adc_^0,w,c
  2318   0023FE  1012               	iorwf	(ADC_Intialization@adc_+1)^0,w,c
  2319   002400  A4D8               	btfss	status,2,c
  2320   002402  EF05  F012         	goto	u3991
  2321   002406  EF07  F012         	goto	u3990
  2322   00240A                     u3991:
  2323   00240A  EF0D  F012         	goto	l314
  2324   00240E                     u3990:
  2325   00240E                     
  2326                           ;MCAL_Layer/MCAL_ADC/mcal_adc.c: 34:     {;MCAL_Layer/MCAL_ADC/mcal_adc.c: 35:         r
      +                          et = (Std_ReturnType)0x00;
  2327   00240E  0E00               	movlw	0
  2328   002410  6E15               	movwf	(ADC_Intialization@ret+1)^0,c
  2329   002412  0E00               	movlw	0
  2330   002414  6E14               	movwf	ADC_Intialization@ret^0,c
  2331                           
  2332                           ;MCAL_Layer/MCAL_ADC/mcal_adc.c: 36:     }
  2333   002416  EF5C  F012         	goto	l5534
  2334   00241A                     l314:
  2335                           
  2336                           ;MCAL_Layer/MCAL_ADC/mcal_adc.c: 38:     {;MCAL_Layer/MCAL_ADC/mcal_adc.c: 40:         (
      +                          ADCON0bits.ADON = 0);
  2337   00241A  90C2               	bcf	194,0,c	;volatile
  2338   00241C                     
  2339                           ;MCAL_Layer/MCAL_ADC/mcal_adc.c: 42:         ADCON2bits.ACQT = adc_->ADC_Acquisition_Tim
      +                          e;
  2340   00241C  EE20 F004          	lfsr	2,4
  2341   002420  5011               	movf	ADC_Intialization@adc_^0,w,c
  2342   002422  26D9               	addwf	fsr2l,f,c
  2343   002424  5012               	movf	(ADC_Intialization@adc_+1)^0,w,c
  2344   002426  22DA               	addwfc	fsr2h,f,c
  2345   002428  50DF               	movf	indf2,w,c
  2346   00242A  6E13               	movwf	??_ADC_Intialization^0,c
  2347   00242C  4613               	rlncf	??_ADC_Intialization^0,f,c
  2348   00242E  4613               	rlncf	??_ADC_Intialization^0,f,c
  2349   002430  4613               	rlncf	??_ADC_Intialization^0,f,c
  2350   002432  50C0               	movf	192,w,c	;volatile
  2351   002434  1813               	xorwf	??_ADC_Intialization^0,w,c
  2352   002436  0BC7               	andlw	-57
  2353   002438  1813               	xorwf	??_ADC_Intialization^0,w,c
  2354   00243A  6EC0               	movwf	192,c	;volatile
  2355                           
  2356                           ;MCAL_Layer/MCAL_ADC/mcal_adc.c: 44:          ADCON2bits.ADCS = adc_->ADC_Conversion_Clo
      +                          ck;
  2357   00243C  EE20 F003          	lfsr	2,3
  2358   002440  5011               	movf	ADC_Intialization@adc_^0,w,c
  2359   002442  26D9               	addwf	fsr2l,f,c
  2360   002444  5012               	movf	(ADC_Intialization@adc_+1)^0,w,c
  2361   002446  22DA               	addwfc	fsr2h,f,c
  2362   002448  50DF               	movf	indf2,w,c
  2363   00244A  6E13               	movwf	??_ADC_Intialization^0,c
  2364   00244C  50C0               	movf	192,w,c	;volatile
  2365   00244E  1813               	xorwf	??_ADC_Intialization^0,w,c
  2366   002450  0BF8               	andlw	-8
  2367   002452  1813               	xorwf	??_ADC_Intialization^0,w,c
  2368   002454  6EC0               	movwf	192,c	;volatile
  2369                           
  2370                           ;MCAL_Layer/MCAL_ADC/mcal_adc.c: 46:         ADCON0bits.CHS = adc_->ADC_Channel;
  2371   002456  EE20 F002          	lfsr	2,2
  2372   00245A  5011               	movf	ADC_Intialization@adc_^0,w,c
  2373   00245C  26D9               	addwf	fsr2l,f,c
  2374   00245E  5012               	movf	(ADC_Intialization@adc_+1)^0,w,c
  2375   002460  22DA               	addwfc	fsr2h,f,c
  2376   002462  50DF               	movf	indf2,w,c
  2377   002464  6E13               	movwf	??_ADC_Intialization^0,c
  2378   002466  4613               	rlncf	??_ADC_Intialization^0,f,c
  2379   002468  4613               	rlncf	??_ADC_Intialization^0,f,c
  2380   00246A  50C2               	movf	194,w,c	;volatile
  2381   00246C  1813               	xorwf	??_ADC_Intialization^0,w,c
  2382   00246E  0BC3               	andlw	-61
  2383   002470  1813               	xorwf	??_ADC_Intialization^0,w,c
  2384   002472  6EC2               	movwf	194,c	;volatile
  2385   002474                     
  2386                           ;MCAL_Layer/MCAL_ADC/mcal_adc.c: 47:         ADC_Set_Channel_As_Inbut(adc_->ADC_Channel)
      +                          ;
  2387   002474  EE20 F002          	lfsr	2,2
  2388   002478  5011               	movf	ADC_Intialization@adc_^0,w,c
  2389   00247A  26D9               	addwf	fsr2l,f,c
  2390   00247C  5012               	movf	(ADC_Intialization@adc_+1)^0,w,c
  2391   00247E  22DA               	addwfc	fsr2h,f,c
  2392   002480  50DF               	movf	indf2,w,c
  2393   002482  EC91  F011         	call	_ADC_Set_Channel_As_Inbut
  2394   002486                     
  2395                           ;MCAL_Layer/MCAL_ADC/mcal_adc.c: 51:         (PIE1bits.ADIE = 1);
  2396   002486  8C9D               	bsf	157,6,c	;volatile
  2397   002488                     
  2398                           ;MCAL_Layer/MCAL_ADC/mcal_adc.c: 53:         ( PIR1bits.ADIF = 0);
  2399   002488  9C9E               	bcf	158,6,c	;volatile
  2400   00248A                     
  2401                           ;MCAL_Layer/MCAL_ADC/mcal_adc.c: 68:         (INTCONbits.GIE = 1);
  2402   00248A  8EF2               	bsf	242,7,c	;volatile
  2403   00248C                     
  2404                           ;MCAL_Layer/MCAL_ADC/mcal_adc.c: 69:         (INTCONbits.PEIE = 1);
  2405   00248C  8CF2               	bsf	242,6,c	;volatile
  2406   00248E                     
  2407                           ;MCAL_Layer/MCAL_ADC/mcal_adc.c: 71:         ADC_interruptHandler = adc_->ADC_Intterrupt
      +                          Handeler;
  2408   00248E  C011  FFD9         	movff	ADC_Intialization@adc_,fsr2l
  2409   002492  C012  FFDA         	movff	ADC_Intialization@adc_+1,fsr2h
  2410   002496  CFDE F052          	movff	postinc2,_ADC_interruptHandler
  2411   00249A  CFDD F053          	movff	postdec2,_ADC_interruptHandler+1
  2412   00249E                     
  2413                           ;MCAL_Layer/MCAL_ADC/mcal_adc.c: 74:         ADC_Select_format_status(adc_);
  2414   00249E  C011  F00E         	movff	ADC_Intialization@adc_,ADC_Select_format_status@adc_
  2415   0024A2  C012  F00F         	movff	ADC_Intialization@adc_+1,ADC_Select_format_status@adc_+1
  2416   0024A6  ECCF  F014         	call	_ADC_Select_format_status	;wreg free
  2417   0024AA                     
  2418                           ;MCAL_Layer/MCAL_ADC/mcal_adc.c: 76:         ADC_Select_Voltage_Reference(adc_);
  2419   0024AA  C011  F00E         	movff	ADC_Intialization@adc_,ADC_Select_Voltage_Reference@adc_
  2420   0024AE  C012  F00F         	movff	ADC_Intialization@adc_+1,ADC_Select_Voltage_Reference@adc_+1
  2421   0024B2  ECAA  F014         	call	_ADC_Select_Voltage_Reference	;wreg free
  2422   0024B6                     
  2423                           ;MCAL_Layer/MCAL_ADC/mcal_adc.c: 78:         (ADCON0bits.ADON = 1);
  2424   0024B6  80C2               	bsf	194,0,c	;volatile
  2425   0024B8                     l5534:
  2426                           
  2427                           ;MCAL_Layer/MCAL_ADC/mcal_adc.c: 80:     return ret;
  2428   0024B8  C014  F011         	movff	ADC_Intialization@ret,?_ADC_Intialization
  2429   0024BC  C015  F012         	movff	ADC_Intialization@ret+1,?_ADC_Intialization+1
  2430   0024C0  0012               	return		;funcret
  2431   0024C2                     __end_of_ADC_Intialization:
  2432                           	callstack 0
  2433                           
  2434 ;; *************** function _ADC_Select_format_status *****************
  2435 ;; Defined at:
  2436 ;;		line 294 in file "MCAL_Layer/MCAL_ADC/mcal_adc.c"
  2437 ;; Parameters:    Size  Location     Type
  2438 ;;  adc_            2   13[COMRAM] PTR const struct .
  2439 ;;		 -> adc_1(6), 
  2440 ;; Auto vars:     Size  Location     Type
  2441 ;;		None
  2442 ;; Return value:  Size  Location     Type
  2443 ;;                  1    wreg      void 
  2444 ;; Registers used:
  2445 ;;		wreg, fsr2l, fsr2h, status,2, status,0
  2446 ;; Tracked objects:
  2447 ;;		On entry : 0/0
  2448 ;;		On exit  : 0/0
  2449 ;;		Unchanged: 0/0
  2450 ;; Data sizes:     COMRAM   BANK0   BANK1   BANK2   BANK3   BANK4   BANK5   BANK6   BANK7   BANK8   BANK9  BANK10  BANK1
      +1  BANK12  BANK13  BANK14  BANK15
  2451 ;;      Params:         2       0       0       0       0       0       0       0       0       0       0       0       
      +0       0       0       0       0
  2452 ;;      Locals:         0       0       0       0       0       0       0       0       0       0       0       0       
      +0       0       0       0       0
  2453 ;;      Temps:          0       0       0       0       0       0       0       0       0       0       0       0       
      +0       0       0       0       0
  2454 ;;      Totals:         2       0       0       0       0       0       0       0       0       0       0       0       
      +0       0       0       0       0
  2455 ;;Total ram usage:        2 bytes
  2456 ;; Hardware stack levels used: 1
  2457 ;; Hardware stack levels required when called: 4
  2458 ;; This function calls:
  2459 ;;		Nothing
  2460 ;; This function is called by:
  2461 ;;		_ADC_Intialization
  2462 ;; This function uses a non-reentrant model
  2463 ;;
  2464                           
  2465                           	psect	text9
  2466   00299E                     __ptext9:
  2467                           	callstack 0
  2468   00299E                     _ADC_Select_format_status:
  2469                           	callstack 24
  2470   00299E                     
  2471                           ;MCAL_Layer/MCAL_ADC/mcal_adc.c: 294: static void ADC_Select_format_status(const ADC_Con
      +                          f_t *adc_ );MCAL_Layer/MCAL_ADC/mcal_adc.c: 295: {;MCAL_Layer/MCAL_ADC/mcal_adc.c: 296: 
      +                              if(1 == adc_->format_status)
  2472   00299E  EE20 F005          	lfsr	2,5
  2473   0029A2  500E               	movf	ADC_Select_format_status@adc_^0,w,c
  2474   0029A4  26D9               	addwf	fsr2l,f,c
  2475   0029A6  500F               	movf	(ADC_Select_format_status@adc_+1)^0,w,c
  2476   0029A8  22DA               	addwfc	fsr2h,f,c
  2477   0029AA  A2DF               	btfss	indf2,1,c
  2478   0029AC  EFDA  F014         	goto	u3851
  2479   0029B0  EFDC  F014         	goto	u3850
  2480   0029B4                     u3851:
  2481   0029B4  EFDF  F014         	goto	l5398
  2482   0029B8                     u3850:
  2483   0029B8                     
  2484                           ;MCAL_Layer/MCAL_ADC/mcal_adc.c: 297:     {;MCAL_Layer/MCAL_ADC/mcal_adc.c: 298:        
      +                           (ADCON2bits.ADFM = 1);
  2485   0029B8  8EC0               	bsf	192,7,c	;volatile
  2486                           
  2487                           ;MCAL_Layer/MCAL_ADC/mcal_adc.c: 299:     }
  2488   0029BA  EFF0  F014         	goto	l389
  2489   0029BE                     l5398:
  2490   0029BE  EE20 F005          	lfsr	2,5
  2491   0029C2  500E               	movf	ADC_Select_format_status@adc_^0,w,c
  2492   0029C4  26D9               	addwf	fsr2l,f,c
  2493   0029C6  500F               	movf	(ADC_Select_format_status@adc_+1)^0,w,c
  2494   0029C8  22DA               	addwfc	fsr2h,f,c
  2495   0029CA  B2DF               	btfsc	indf2,1,c
  2496   0029CC  EFEA  F014         	goto	u3861
  2497   0029D0  EFEC  F014         	goto	u3860
  2498   0029D4                     u3861:
  2499   0029D4  EFEF  F014         	goto	l387
  2500   0029D8                     u3860:
  2501   0029D8                     
  2502                           ;MCAL_Layer/MCAL_ADC/mcal_adc.c: 301:     {;MCAL_Layer/MCAL_ADC/mcal_adc.c: 302:        
      +                           (ADCON2bits.ADFM = 0);
  2503   0029D8  9EC0               	bcf	192,7,c	;volatile
  2504                           
  2505                           ;MCAL_Layer/MCAL_ADC/mcal_adc.c: 303:     }
  2506   0029DA  EFF0  F014         	goto	l389
  2507   0029DE                     l387:
  2508                           
  2509                           ;MCAL_Layer/MCAL_ADC/mcal_adc.c: 305:     {;MCAL_Layer/MCAL_ADC/mcal_adc.c: 306:        
      +                           (ADCON2bits.ADFM = 1);
  2510   0029DE  8EC0               	bsf	192,7,c	;volatile
  2511   0029E0                     l389:
  2512   0029E0  0012               	return		;funcret
  2513   0029E2                     __end_of_ADC_Select_format_status:
  2514                           	callstack 0
  2515                           
  2516 ;; *************** function _ADC_Select_Voltage_Reference *****************
  2517 ;; Defined at:
  2518 ;;		line 309 in file "MCAL_Layer/MCAL_ADC/mcal_adc.c"
  2519 ;; Parameters:    Size  Location     Type
  2520 ;;  adc_            2   13[COMRAM] PTR const struct .
  2521 ;;		 -> adc_1(6), 
  2522 ;; Auto vars:     Size  Location     Type
  2523 ;;		None
  2524 ;; Return value:  Size  Location     Type
  2525 ;;                  1    wreg      void 
  2526 ;; Registers used:
  2527 ;;		wreg, fsr2l, fsr2h, status,2, status,0
  2528 ;; Tracked objects:
  2529 ;;		On entry : 0/0
  2530 ;;		On exit  : 0/0
  2531 ;;		Unchanged: 0/0
  2532 ;; Data sizes:     COMRAM   BANK0   BANK1   BANK2   BANK3   BANK4   BANK5   BANK6   BANK7   BANK8   BANK9  BANK10  BANK1
      +1  BANK12  BANK13  BANK14  BANK15
  2533 ;;      Params:         2       0       0       0       0       0       0       0       0       0       0       0       
      +0       0       0       0       0
  2534 ;;      Locals:         0       0       0       0       0       0       0       0       0       0       0       0       
      +0       0       0       0       0
  2535 ;;      Temps:          0       0       0       0       0       0       0       0       0       0       0       0       
      +0       0       0       0       0
  2536 ;;      Totals:         2       0       0       0       0       0       0       0       0       0       0       0       
      +0       0       0       0       0
  2537 ;;Total ram usage:        2 bytes
  2538 ;; Hardware stack levels used: 1
  2539 ;; Hardware stack levels required when called: 4
  2540 ;; This function calls:
  2541 ;;		Nothing
  2542 ;; This function is called by:
  2543 ;;		_ADC_Intialization
  2544 ;; This function uses a non-reentrant model
  2545 ;;
  2546                           
  2547                           	psect	text10
  2548   002954                     __ptext10:
  2549                           	callstack 0
  2550   002954                     _ADC_Select_Voltage_Reference:
  2551                           	callstack 24
  2552   002954                     
  2553                           ;MCAL_Layer/MCAL_ADC/mcal_adc.c: 309: static void ADC_Select_Voltage_Reference(const ADC
      +                          _Conf_t *adc_ );MCAL_Layer/MCAL_ADC/mcal_adc.c: 310: {;MCAL_Layer/MCAL_ADC/mcal_adc.c: 3
      +                          11:     if(0x01U == adc_->voltage_ref)
  2554   002954  EE20 F005          	lfsr	2,5
  2555   002958  500E               	movf	ADC_Select_Voltage_Reference@adc_^0,w,c
  2556   00295A  26D9               	addwf	fsr2l,f,c
  2557   00295C  500F               	movf	(ADC_Select_Voltage_Reference@adc_+1)^0,w,c
  2558   00295E  22DA               	addwfc	fsr2h,f,c
  2559   002960  A0DF               	btfss	indf2,0,c
  2560   002962  EFB5  F014         	goto	u3871
  2561   002966  EFB7  F014         	goto	u3870
  2562   00296A                     u3871:
  2563   00296A  EFBB  F014         	goto	l5404
  2564   00296E                     u3870:
  2565   00296E  88C1               	bsf	193,4,c	;volatile
  2566   002970  8AC1               	bsf	193,5,c	;volatile
  2567   002972  EFCE  F014         	goto	l402
  2568   002976                     l5404:
  2569   002976  EE20 F005          	lfsr	2,5
  2570   00297A  500E               	movf	ADC_Select_Voltage_Reference@adc_^0,w,c
  2571   00297C  26D9               	addwf	fsr2l,f,c
  2572   00297E  500F               	movf	(ADC_Select_Voltage_Reference@adc_+1)^0,w,c
  2573   002980  22DA               	addwfc	fsr2h,f,c
  2574   002982  B0DF               	btfsc	indf2,0,c
  2575   002984  EFC6  F014         	goto	u3881
  2576   002988  EFC8  F014         	goto	u3880
  2577   00298C                     u3881:
  2578   00298C  EFCC  F014         	goto	l400
  2579   002990                     u3880:
  2580   002990  98C1               	bcf	193,4,c	;volatile
  2581   002992  9AC1               	bcf	193,5,c	;volatile
  2582   002994  EFCE  F014         	goto	l402
  2583   002998                     l400:
  2584   002998  88C1               	bsf	193,4,c	;volatile
  2585   00299A  8AC1               	bsf	193,5,c	;volatile
  2586   00299C                     l402:
  2587   00299C  0012               	return		;funcret
  2588   00299E                     __end_of_ADC_Select_Voltage_Reference:
  2589                           	callstack 0
  2590                           
  2591 ;; *************** function ___xxtofl *****************
  2592 ;; Defined at:
  2593 ;;		line 10 in file "C:\Program Files\Microchip\xc8\v2.41\pic\sources\c99\common\xxtofl.c"
  2594 ;; Parameters:    Size  Location     Type
  2595 ;;  sign            1    wreg     unsigned char 
  2596 ;;  val             4   13[COMRAM] long 
  2597 ;; Auto vars:     Size  Location     Type
  2598 ;;  sign            1   21[COMRAM] unsigned char 
  2599 ;;  arg             4   23[COMRAM] unsigned long 
  2600 ;;  exp             1   22[COMRAM] unsigned char 
  2601 ;; Return value:  Size  Location     Type
  2602 ;;                  4   13[COMRAM] unsigned char 
  2603 ;; Registers used:
  2604 ;;		wreg, status,2, status,0
  2605 ;; Tracked objects:
  2606 ;;		On entry : 0/0
  2607 ;;		On exit  : 0/0
  2608 ;;		Unchanged: 0/0
  2609 ;; Data sizes:     COMRAM   BANK0   BANK1   BANK2   BANK3   BANK4   BANK5   BANK6   BANK7   BANK8   BANK9  BANK10  BANK1
      +1  BANK12  BANK13  BANK14  BANK15
  2610 ;;      Params:         4       0       0       0       0       0       0       0       0       0       0       0       
      +0       0       0       0       0
  2611 ;;      Locals:         6       0       0       0       0       0       0       0       0       0       0       0       
      +0       0       0       0       0
  2612 ;;      Temps:          4       0       0       0       0       0       0       0       0       0       0       0       
      +0       0       0       0       0
  2613 ;;      Totals:        14       0       0       0       0       0       0       0       0       0       0       0       
      +0       0       0       0       0
  2614 ;;Total ram usage:       14 bytes
  2615 ;; Hardware stack levels used: 1
  2616 ;; Hardware stack levels required when called: 4
  2617 ;; This function calls:
  2618 ;;		Nothing
  2619 ;; This function is called by:
  2620 ;;		_main
  2621 ;;		_ECCP_intialize
  2622 ;;		_ECCP_PWM_Set_Duty
  2623 ;;		_I2C_Master_Mode_Clock_Configurations
  2624 ;;		_EUSART_Baud_Rate_Calculation
  2625 ;; This function uses a non-reentrant model
  2626 ;;
  2627                           
  2628                           	psect	text11
  2629   001BA2                     __ptext11:
  2630                           	callstack 0
  2631   001BA2                     ___xxtofl:
  2632                           	callstack 26
  2633                           
  2634                           ;incstack = 0
  2635                           ;___xxtofl@sign stored from wreg
  2636   001BA2  6E16               	movwf	___xxtofl@sign^0,c
  2637   001BA4  5016               	movf	___xxtofl@sign^0,w,c
  2638   001BA6  B4D8               	btfsc	status,2,c
  2639   001BA8  EFD8  F00D         	goto	u4591
  2640   001BAC  EFDA  F00D         	goto	u4590
  2641   001BB0                     u4591:
  2642   001BB0  EFFC  F00D         	goto	l2423
  2643   001BB4                     u4590:
  2644   001BB4  BE11               	btfsc	(___xxtofl@val+3)^0,7,c
  2645   001BB6  EFE1  F00D         	goto	u4600
  2646   001BBA  EFDF  F00D         	goto	u4601
  2647   001BBE                     u4601:
  2648   001BBE  EFFC  F00D         	goto	l2423
  2649   001BC2                     u4600:
  2650   001BC2  C00E  F012         	movff	___xxtofl@val,??___xxtofl
  2651   001BC6  C00F  F013         	movff	___xxtofl@val+1,??___xxtofl+1
  2652   001BCA  C010  F014         	movff	___xxtofl@val+2,??___xxtofl+2
  2653   001BCE  C011  F015         	movff	___xxtofl@val+3,??___xxtofl+3
  2654   001BD2  1E12               	comf	??___xxtofl^0,f,c
  2655   001BD4  1E13               	comf	(??___xxtofl+1)^0,f,c
  2656   001BD6  1E14               	comf	(??___xxtofl+2)^0,f,c
  2657   001BD8  1E15               	comf	(??___xxtofl+3)^0,f,c
  2658   001BDA  2A12               	incf	??___xxtofl^0,f,c
  2659   001BDC  0E00               	movlw	0
  2660   001BDE  2213               	addwfc	(??___xxtofl+1)^0,f,c
  2661   001BE0  2214               	addwfc	(??___xxtofl+2)^0,f,c
  2662   001BE2  2215               	addwfc	(??___xxtofl+3)^0,f,c
  2663   001BE4  C012  F018         	movff	??___xxtofl,___xxtofl@arg
  2664   001BE8  C013  F019         	movff	??___xxtofl+1,___xxtofl@arg+1
  2665   001BEC  C014  F01A         	movff	??___xxtofl+2,___xxtofl@arg+2
  2666   001BF0  C015  F01B         	movff	??___xxtofl+3,___xxtofl@arg+3
  2667   001BF4  EF04  F00E         	goto	l6062
  2668   001BF8                     l2423:
  2669   001BF8  C00E  F018         	movff	___xxtofl@val,___xxtofl@arg
  2670   001BFC  C00F  F019         	movff	___xxtofl@val+1,___xxtofl@arg+1
  2671   001C00  C010  F01A         	movff	___xxtofl@val+2,___xxtofl@arg+2
  2672   001C04  C011  F01B         	movff	___xxtofl@val+3,___xxtofl@arg+3
  2673   001C08                     l6062:
  2674   001C08  500E               	movf	___xxtofl@val^0,w,c
  2675   001C0A  100F               	iorwf	(___xxtofl@val+1)^0,w,c
  2676   001C0C  1010               	iorwf	(___xxtofl@val+2)^0,w,c
  2677   001C0E  1011               	iorwf	(___xxtofl@val+3)^0,w,c
  2678   001C10  A4D8               	btfss	status,2,c
  2679   001C12  EF0D  F00E         	goto	u4611
  2680   001C16  EF0F  F00E         	goto	u4610
  2681   001C1A                     u4611:
  2682   001C1A  EF19  F00E         	goto	l6068
  2683   001C1E                     u4610:
  2684   001C1E  0E00               	movlw	0
  2685   001C20  6E0E               	movwf	?___xxtofl^0,c
  2686   001C22  0E00               	movlw	0
  2687   001C24  6E0F               	movwf	(?___xxtofl+1)^0,c
  2688   001C26  0E00               	movlw	0
  2689   001C28  6E10               	movwf	(?___xxtofl+2)^0,c
  2690   001C2A  0E00               	movlw	0
  2691   001C2C  6E11               	movwf	(?___xxtofl+3)^0,c
  2692   001C2E  EFAA  F00E         	goto	l2426
  2693   001C32                     l6068:
  2694   001C32  0E96               	movlw	150
  2695   001C34  6E17               	movwf	___xxtofl@exp^0,c
  2696   001C36  EF23  F00E         	goto	l6072
  2697   001C3A                     l6070:
  2698   001C3A  2A17               	incf	___xxtofl@exp^0,f,c
  2699   001C3C  90D8               	bcf	status,0,c
  2700   001C3E  321B               	rrcf	(___xxtofl@arg+3)^0,f,c
  2701   001C40  321A               	rrcf	(___xxtofl@arg+2)^0,f,c
  2702   001C42  3219               	rrcf	(___xxtofl@arg+1)^0,f,c
  2703   001C44  3218               	rrcf	___xxtofl@arg^0,f,c
  2704   001C46                     l6072:
  2705   001C46  0E00               	movlw	0
  2706   001C48  1418               	andwf	___xxtofl@arg^0,w,c
  2707   001C4A  6E12               	movwf	??___xxtofl^0,c
  2708   001C4C  0E00               	movlw	0
  2709   001C4E  1419               	andwf	(___xxtofl@arg+1)^0,w,c
  2710   001C50  6E13               	movwf	(??___xxtofl+1)^0,c
  2711   001C52  0E00               	movlw	0
  2712   001C54  141A               	andwf	(___xxtofl@arg+2)^0,w,c
  2713   001C56  6E14               	movwf	(??___xxtofl+2)^0,c
  2714   001C58  0EFE               	movlw	254
  2715   001C5A  141B               	andwf	(___xxtofl@arg+3)^0,w,c
  2716   001C5C  6E15               	movwf	(??___xxtofl+3)^0,c
  2717   001C5E  5012               	movf	??___xxtofl^0,w,c
  2718   001C60  1013               	iorwf	(??___xxtofl+1)^0,w,c
  2719   001C62  1014               	iorwf	(??___xxtofl+2)^0,w,c
  2720   001C64  1015               	iorwf	(??___xxtofl+3)^0,w,c
  2721   001C66  A4D8               	btfss	status,2,c
  2722   001C68  EF38  F00E         	goto	u4621
  2723   001C6C  EF3A  F00E         	goto	u4620
  2724   001C70                     u4621:
  2725   001C70  EF1D  F00E         	goto	l6070
  2726   001C74                     u4620:
  2727   001C74  EF48  F00E         	goto	l2430
  2728   001C78                     l6074:
  2729   001C78  2A17               	incf	___xxtofl@exp^0,f,c
  2730   001C7A  0E01               	movlw	1
  2731   001C7C  2618               	addwf	___xxtofl@arg^0,f,c
  2732   001C7E  0E00               	movlw	0
  2733   001C80  2219               	addwfc	(___xxtofl@arg+1)^0,f,c
  2734   001C82  221A               	addwfc	(___xxtofl@arg+2)^0,f,c
  2735   001C84  221B               	addwfc	(___xxtofl@arg+3)^0,f,c
  2736   001C86  90D8               	bcf	status,0,c
  2737   001C88  321B               	rrcf	(___xxtofl@arg+3)^0,f,c
  2738   001C8A  321A               	rrcf	(___xxtofl@arg+2)^0,f,c
  2739   001C8C  3219               	rrcf	(___xxtofl@arg+1)^0,f,c
  2740   001C8E  3218               	rrcf	___xxtofl@arg^0,f,c
  2741   001C90                     l2430:
  2742   001C90  0E00               	movlw	0
  2743   001C92  1418               	andwf	___xxtofl@arg^0,w,c
  2744   001C94  6E12               	movwf	??___xxtofl^0,c
  2745   001C96  0E00               	movlw	0
  2746   001C98  1419               	andwf	(___xxtofl@arg+1)^0,w,c
  2747   001C9A  6E13               	movwf	(??___xxtofl+1)^0,c
  2748   001C9C  0E00               	movlw	0
  2749   001C9E  141A               	andwf	(___xxtofl@arg+2)^0,w,c
  2750   001CA0  6E14               	movwf	(??___xxtofl+2)^0,c
  2751   001CA2  0EFF               	movlw	255
  2752   001CA4  141B               	andwf	(___xxtofl@arg+3)^0,w,c
  2753   001CA6  6E15               	movwf	(??___xxtofl+3)^0,c
  2754   001CA8  5012               	movf	??___xxtofl^0,w,c
  2755   001CAA  1013               	iorwf	(??___xxtofl+1)^0,w,c
  2756   001CAC  1014               	iorwf	(??___xxtofl+2)^0,w,c
  2757   001CAE  1015               	iorwf	(??___xxtofl+3)^0,w,c
  2758   001CB0  A4D8               	btfss	status,2,c
  2759   001CB2  EF5D  F00E         	goto	u4631
  2760   001CB6  EF5F  F00E         	goto	u4630
  2761   001CBA                     u4631:
  2762   001CBA  EF3C  F00E         	goto	l6074
  2763   001CBE                     u4630:
  2764   001CBE  EF67  F00E         	goto	l6082
  2765   001CC2                     l6080:
  2766   001CC2  0617               	decf	___xxtofl@exp^0,f,c
  2767   001CC4  90D8               	bcf	status,0,c
  2768   001CC6  3618               	rlcf	___xxtofl@arg^0,f,c
  2769   001CC8  3619               	rlcf	(___xxtofl@arg+1)^0,f,c
  2770   001CCA  361A               	rlcf	(___xxtofl@arg+2)^0,f,c
  2771   001CCC  361B               	rlcf	(___xxtofl@arg+3)^0,f,c
  2772   001CCE                     l6082:
  2773   001CCE  BE1A               	btfsc	(___xxtofl@arg+2)^0,7,c
  2774   001CD0  EF6C  F00E         	goto	u4641
  2775   001CD4  EF6E  F00E         	goto	u4640
  2776   001CD8                     u4641:
  2777   001CD8  EF76  F00E         	goto	l2437
  2778   001CDC                     u4640:
  2779   001CDC  0E02               	movlw	2
  2780   001CDE  6017               	cpfslt	___xxtofl@exp^0,c
  2781   001CE0  EF74  F00E         	goto	u4651
  2782   001CE4  EF76  F00E         	goto	u4650
  2783   001CE8                     u4651:
  2784   001CE8  EF61  F00E         	goto	l6080
  2785   001CEC                     u4650:
  2786   001CEC                     l2437:
  2787   001CEC  B017               	btfsc	___xxtofl@exp^0,0,c
  2788   001CEE  EF7B  F00E         	goto	u4661
  2789   001CF2  EF7D  F00E         	goto	u4660
  2790   001CF6                     u4661:
  2791   001CF6  EF7E  F00E         	goto	l6088
  2792   001CFA                     u4660:
  2793   001CFA  9E1A               	bcf	(___xxtofl@arg+2)^0,7,c
  2794   001CFC                     l6088:
  2795   001CFC  90D8               	bcf	status,0,c
  2796   001CFE  3217               	rrcf	___xxtofl@exp^0,f,c
  2797   001D00  C017  F012         	movff	___xxtofl@exp,??___xxtofl
  2798   001D04  6A13               	clrf	(??___xxtofl+1)^0,c
  2799   001D06  6A14               	clrf	(??___xxtofl+2)^0,c
  2800   001D08  6A15               	clrf	(??___xxtofl+3)^0,c
  2801   001D0A  C012  F015         	movff	??___xxtofl,??___xxtofl+3
  2802   001D0E  6A14               	clrf	(??___xxtofl+2)^0,c
  2803   001D10  6A13               	clrf	(??___xxtofl+1)^0,c
  2804   001D12  6A12               	clrf	??___xxtofl^0,c
  2805   001D14  5012               	movf	??___xxtofl^0,w,c
  2806   001D16  1218               	iorwf	___xxtofl@arg^0,f,c
  2807   001D18  5013               	movf	(??___xxtofl+1)^0,w,c
  2808   001D1A  1219               	iorwf	(___xxtofl@arg+1)^0,f,c
  2809   001D1C  5014               	movf	(??___xxtofl+2)^0,w,c
  2810   001D1E  121A               	iorwf	(___xxtofl@arg+2)^0,f,c
  2811   001D20  5015               	movf	(??___xxtofl+3)^0,w,c
  2812   001D22  121B               	iorwf	(___xxtofl@arg+3)^0,f,c
  2813   001D24  5016               	movf	___xxtofl@sign^0,w,c
  2814   001D26  B4D8               	btfsc	status,2,c
  2815   001D28  EF98  F00E         	goto	u4671
  2816   001D2C  EF9A  F00E         	goto	u4670
  2817   001D30                     u4671:
  2818   001D30  EFA2  F00E         	goto	l6098
  2819   001D34                     u4670:
  2820   001D34  BE11               	btfsc	(___xxtofl@val+3)^0,7,c
  2821   001D36  EFA1  F00E         	goto	u4680
  2822   001D3A  EF9F  F00E         	goto	u4681
  2823   001D3E                     u4681:
  2824   001D3E  EFA2  F00E         	goto	l6098
  2825   001D42                     u4680:
  2826   001D42  8E1B               	bsf	(___xxtofl@arg+3)^0,7,c
  2827   001D44                     l6098:
  2828   001D44  C018  F00E         	movff	___xxtofl@arg,?___xxtofl
  2829   001D48  C019  F00F         	movff	___xxtofl@arg+1,?___xxtofl+1
  2830   001D4C  C01A  F010         	movff	___xxtofl@arg+2,?___xxtofl+2
  2831   001D50  C01B  F011         	movff	___xxtofl@arg+3,?___xxtofl+3
  2832   001D54                     l2426:
  2833   001D54  0012               	return		;funcret
  2834   001D56                     __end_of___xxtofl:
  2835                           	callstack 0
  2836                           
  2837 ;; *************** function ___lwdiv *****************
  2838 ;; Defined at:
  2839 ;;		line 7 in file "C:\Program Files\Microchip\xc8\v2.41\pic\sources\c99\common\lwdiv.c"
  2840 ;; Parameters:    Size  Location     Type
  2841 ;;  dividend        2   13[COMRAM] unsigned int 
  2842 ;;  divisor         2   15[COMRAM] unsigned int 
  2843 ;; Auto vars:     Size  Location     Type
  2844 ;;  quotient        2   17[COMRAM] unsigned int 
  2845 ;;  counter         1   19[COMRAM] unsigned char 
  2846 ;; Return value:  Size  Location     Type
  2847 ;;                  2   13[COMRAM] unsigned int 
  2848 ;; Registers used:
  2849 ;;		wreg, status,2, status,0
  2850 ;; Tracked objects:
  2851 ;;		On entry : 0/0
  2852 ;;		On exit  : 0/0
  2853 ;;		Unchanged: 0/0
  2854 ;; Data sizes:     COMRAM   BANK0   BANK1   BANK2   BANK3   BANK4   BANK5   BANK6   BANK7   BANK8   BANK9  BANK10  BANK1
      +1  BANK12  BANK13  BANK14  BANK15
  2855 ;;      Params:         4       0       0       0       0       0       0       0       0       0       0       0       
      +0       0       0       0       0
  2856 ;;      Locals:         3       0       0       0       0       0       0       0       0       0       0       0       
      +0       0       0       0       0
  2857 ;;      Temps:          0       0       0       0       0       0       0       0       0       0       0       0       
      +0       0       0       0       0
  2858 ;;      Totals:         7       0       0       0       0       0       0       0       0       0       0       0       
      +0       0       0       0       0
  2859 ;;Total ram usage:        7 bytes
  2860 ;; Hardware stack levels used: 1
  2861 ;; Hardware stack levels required when called: 4
  2862 ;; This function calls:
  2863 ;;		Nothing
  2864 ;; This function is called by:
  2865 ;;		_main
  2866 ;; This function uses a non-reentrant model
  2867 ;;
  2868                           
  2869                           	psect	text12
  2870   002716                     __ptext12:
  2871                           	callstack 0
  2872   002716                     ___lwdiv:
  2873                           	callstack 26
  2874   002716  0E00               	movlw	0
  2875   002718  6E13               	movwf	(___lwdiv@quotient+1)^0,c
  2876   00271A  0E00               	movlw	0
  2877   00271C  6E12               	movwf	___lwdiv@quotient^0,c
  2878   00271E  5010               	movf	___lwdiv@divisor^0,w,c
  2879   002720  1011               	iorwf	(___lwdiv@divisor+1)^0,w,c
  2880   002722  B4D8               	btfsc	status,2,c
  2881   002724  EF96  F013         	goto	u4561
  2882   002728  EF98  F013         	goto	u4560
  2883   00272C                     u4561:
  2884   00272C  EFC0  F013         	goto	l2259
  2885   002730                     u4560:
  2886   002730  0E01               	movlw	1
  2887   002732  6E14               	movwf	___lwdiv@counter^0,c
  2888   002734  EFA0  F013         	goto	l6042
  2889   002738                     l6040:
  2890   002738  90D8               	bcf	status,0,c
  2891   00273A  3610               	rlcf	___lwdiv@divisor^0,f,c
  2892   00273C  3611               	rlcf	(___lwdiv@divisor+1)^0,f,c
  2893   00273E  2A14               	incf	___lwdiv@counter^0,f,c
  2894   002740                     l6042:
  2895   002740  AE11               	btfss	(___lwdiv@divisor+1)^0,7,c
  2896   002742  EFA5  F013         	goto	u4571
  2897   002746  EFA7  F013         	goto	u4570
  2898   00274A                     u4571:
  2899   00274A  EF9C  F013         	goto	l6040
  2900   00274E                     u4570:
  2901   00274E                     l6044:
  2902   00274E  90D8               	bcf	status,0,c
  2903   002750  3612               	rlcf	___lwdiv@quotient^0,f,c
  2904   002752  3613               	rlcf	(___lwdiv@quotient+1)^0,f,c
  2905   002754  5010               	movf	___lwdiv@divisor^0,w,c
  2906   002756  5C0E               	subwf	___lwdiv@dividend^0,w,c
  2907   002758  5011               	movf	(___lwdiv@divisor+1)^0,w,c
  2908   00275A  580F               	subwfb	(___lwdiv@dividend+1)^0,w,c
  2909   00275C  A0D8               	btfss	status,0,c
  2910   00275E  EFB3  F013         	goto	u4581
  2911   002762  EFB5  F013         	goto	u4580
  2912   002766                     u4581:
  2913   002766  EFBA  F013         	goto	l6052
  2914   00276A                     u4580:
  2915   00276A  5010               	movf	___lwdiv@divisor^0,w,c
  2916   00276C  5E0E               	subwf	___lwdiv@dividend^0,f,c
  2917   00276E  5011               	movf	(___lwdiv@divisor+1)^0,w,c
  2918   002770  5A0F               	subwfb	(___lwdiv@dividend+1)^0,f,c
  2919   002772  8012               	bsf	___lwdiv@quotient^0,0,c
  2920   002774                     l6052:
  2921   002774  90D8               	bcf	status,0,c
  2922   002776  3211               	rrcf	(___lwdiv@divisor+1)^0,f,c
  2923   002778  3210               	rrcf	___lwdiv@divisor^0,f,c
  2924   00277A  2E14               	decfsz	___lwdiv@counter^0,f,c
  2925   00277C  EFA7  F013         	goto	l6044
  2926   002780                     l2259:
  2927   002780  C012  F00E         	movff	___lwdiv@quotient,?___lwdiv
  2928   002784  C013  F00F         	movff	___lwdiv@quotient+1,?___lwdiv+1
  2929   002788  0012               	return		;funcret
  2930   00278A                     __end_of___lwdiv:
  2931                           	callstack 0
  2932                           
  2933 ;; *************** function ___fltol *****************
  2934 ;; Defined at:
  2935 ;;		line 43 in file "C:\Program Files\Microchip\xc8\v2.41\pic\sources\c99\common\fltol.c"
  2936 ;; Parameters:    Size  Location     Type
  2937 ;;  f1              4   39[COMRAM] unsigned int 
  2938 ;; Auto vars:     Size  Location     Type
  2939 ;;  exp1            1   48[COMRAM] unsigned char 
  2940 ;;  sign1           1   47[COMRAM] unsigned char 
  2941 ;; Return value:  Size  Location     Type
  2942 ;;                  4   39[COMRAM] long 
  2943 ;; Registers used:
  2944 ;;		wreg, status,2, status,0
  2945 ;; Tracked objects:
  2946 ;;		On entry : 0/0
  2947 ;;		On exit  : 0/0
  2948 ;;		Unchanged: 0/0
  2949 ;; Data sizes:     COMRAM   BANK0   BANK1   BANK2   BANK3   BANK4   BANK5   BANK6   BANK7   BANK8   BANK9  BANK10  BANK1
      +1  BANK12  BANK13  BANK14  BANK15
  2950 ;;      Params:         4       0       0       0       0       0       0       0       0       0       0       0       
      +0       0       0       0       0
  2951 ;;      Locals:         2       0       0       0       0       0       0       0       0       0       0       0       
      +0       0       0       0       0
  2952 ;;      Temps:          4       0       0       0       0       0       0       0       0       0       0       0       
      +0       0       0       0       0
  2953 ;;      Totals:        10       0       0       0       0       0       0       0       0       0       0       0       
      +0       0       0       0       0
  2954 ;;Total ram usage:       10 bytes
  2955 ;; Hardware stack levels used: 1
  2956 ;; Hardware stack levels required when called: 4
  2957 ;; This function calls:
  2958 ;;		Nothing
  2959 ;; This function is called by:
  2960 ;;		_main
  2961 ;;		_ECCP_intialize
  2962 ;;		_ECCP_PWM_Set_Duty
  2963 ;;		_I2C_Master_Mode_Clock_Configurations
  2964 ;;		_EUSART_Baud_Rate_Calculation
  2965 ;; This function uses a non-reentrant model
  2966 ;;
  2967                           
  2968                           	psect	text13
  2969   00212E                     __ptext13:
  2970                           	callstack 0
  2971   00212E                     ___fltol:
  2972                           	callstack 26
  2973   00212E  342A               	rlcf	(___fltol@f1+2)^0,w,c
  2974   002130  342B               	rlcf	(___fltol@f1+3)^0,w,c
  2975   002132  6E31               	movwf	___fltol@exp1^0,c
  2976   002134  5031               	movf	___fltol@exp1^0,w,c
  2977   002136  A4D8               	btfss	status,2,c
  2978   002138  EFA0  F010         	goto	u4491
  2979   00213C  EFA2  F010         	goto	u4490
  2980   002140                     u4491:
  2981   002140  EFAC  F010         	goto	l5996
  2982   002144                     u4490:
  2983   002144                     l5992:
  2984   002144  0E00               	movlw	0
  2985   002146  6E28               	movwf	?___fltol^0,c
  2986   002148  0E00               	movlw	0
  2987   00214A  6E29               	movwf	(?___fltol+1)^0,c
  2988   00214C  0E00               	movlw	0
  2989   00214E  6E2A               	movwf	(?___fltol+2)^0,c
  2990   002150  0E00               	movlw	0
  2991   002152  6E2B               	movwf	(?___fltol+3)^0,c
  2992   002154  EF19  F011         	goto	l2065
  2993   002158                     l5996:
  2994   002158  C028  F02C         	movff	___fltol@f1,??___fltol
  2995   00215C  C029  F02D         	movff	___fltol@f1+1,??___fltol+1
  2996   002160  C02A  F02E         	movff	___fltol@f1+2,??___fltol+2
  2997   002164  C02B  F02F         	movff	___fltol@f1+3,??___fltol+3
  2998   002168  0E20               	movlw	32
  2999   00216A  EFBC  F010         	goto	u4500
  3000   00216E                     u4505:
  3001   00216E  90D8               	bcf	status,0,c
  3002   002170  322F               	rrcf	(??___fltol+3)^0,f,c
  3003   002172  322E               	rrcf	(??___fltol+2)^0,f,c
  3004   002174  322D               	rrcf	(??___fltol+1)^0,f,c
  3005   002176  322C               	rrcf	??___fltol^0,f,c
  3006   002178                     u4500:
  3007   002178  2EE8               	decfsz	wreg,f,c
  3008   00217A  EFB7  F010         	goto	u4505
  3009   00217E  502C               	movf	??___fltol^0,w,c
  3010   002180  6E30               	movwf	___fltol@sign1^0,c
  3011   002182  8E2A               	bsf	(___fltol@f1+2)^0,7,c
  3012   002184  0EFF               	movlw	255
  3013   002186  1628               	andwf	___fltol@f1^0,f,c
  3014   002188  0EFF               	movlw	255
  3015   00218A  1629               	andwf	(___fltol@f1+1)^0,f,c
  3016   00218C  0EFF               	movlw	255
  3017   00218E  162A               	andwf	(___fltol@f1+2)^0,f,c
  3018   002190  0E00               	movlw	0
  3019   002192  162B               	andwf	(___fltol@f1+3)^0,f,c
  3020   002194  0E96               	movlw	150
  3021   002196  5E31               	subwf	___fltol@exp1^0,f,c
  3022   002198  BE31               	btfsc	___fltol@exp1^0,7,c
  3023   00219A  EFD3  F010         	goto	u4510
  3024   00219E  EFD1  F010         	goto	u4511
  3025   0021A2                     u4511:
  3026   0021A2  EFE9  F010         	goto	l6016
  3027   0021A6                     u4510:
  3028   0021A6  5031               	movf	___fltol@exp1^0,w,c
  3029   0021A8  0A80               	xorlw	128
  3030   0021AA  0F97               	addlw	151
  3031   0021AC  B0D8               	btfsc	status,0,c
  3032   0021AE  EFDB  F010         	goto	u4521
  3033   0021B2  EFDD  F010         	goto	u4520
  3034   0021B6                     u4521:
  3035   0021B6  EFDF  F010         	goto	l6012
  3036   0021BA                     u4520:
  3037   0021BA  EFA2  F010         	goto	l5992
  3038   0021BE                     l6012:
  3039   0021BE  90D8               	bcf	status,0,c
  3040   0021C0  322B               	rrcf	(___fltol@f1+3)^0,f,c
  3041   0021C2  322A               	rrcf	(___fltol@f1+2)^0,f,c
  3042   0021C4  3229               	rrcf	(___fltol@f1+1)^0,f,c
  3043   0021C6  3228               	rrcf	___fltol@f1^0,f,c
  3044   0021C8  3E31               	incfsz	___fltol@exp1^0,f,c
  3045   0021CA  EFDF  F010         	goto	l6012
  3046   0021CE  EF01  F011         	goto	l6026
  3047   0021D2                     l6016:
  3048   0021D2  0E1F               	movlw	31
  3049   0021D4  6431               	cpfsgt	___fltol@exp1^0,c
  3050   0021D6  EFEF  F010         	goto	u4531
  3051   0021DA  EFF1  F010         	goto	u4530
  3052   0021DE                     u4531:
  3053   0021DE  EFF9  F010         	goto	l6024
  3054   0021E2                     u4530:
  3055   0021E2  EFA2  F010         	goto	l5992
  3056   0021E6                     l6022:
  3057   0021E6  90D8               	bcf	status,0,c
  3058   0021E8  3628               	rlcf	___fltol@f1^0,f,c
  3059   0021EA  3629               	rlcf	(___fltol@f1+1)^0,f,c
  3060   0021EC  362A               	rlcf	(___fltol@f1+2)^0,f,c
  3061   0021EE  362B               	rlcf	(___fltol@f1+3)^0,f,c
  3062   0021F0  0631               	decf	___fltol@exp1^0,f,c
  3063   0021F2                     l6024:
  3064   0021F2  5031               	movf	___fltol@exp1^0,w,c
  3065   0021F4  A4D8               	btfss	status,2,c
  3066   0021F6  EFFF  F010         	goto	u4541
  3067   0021FA  EF01  F011         	goto	u4540
  3068   0021FE                     u4541:
  3069   0021FE  EFF3  F010         	goto	l6022
  3070   002202                     u4540:
  3071   002202                     l6026:
  3072   002202  5030               	movf	___fltol@sign1^0,w,c
  3073   002204  B4D8               	btfsc	status,2,c
  3074   002206  EF07  F011         	goto	u4551
  3075   00220A  EF09  F011         	goto	u4550
  3076   00220E                     u4551:
  3077   00220E  EF11  F011         	goto	l6030
  3078   002212                     u4550:
  3079   002212  1E2B               	comf	(___fltol@f1+3)^0,f,c
  3080   002214  1E2A               	comf	(___fltol@f1+2)^0,f,c
  3081   002216  1E29               	comf	(___fltol@f1+1)^0,f,c
  3082   002218  6C28               	negf	___fltol@f1^0,c
  3083   00221A  0E00               	movlw	0
  3084   00221C  2229               	addwfc	(___fltol@f1+1)^0,f,c
  3085   00221E  222A               	addwfc	(___fltol@f1+2)^0,f,c
  3086   002220  222B               	addwfc	(___fltol@f1+3)^0,f,c
  3087   002222                     l6030:
  3088   002222  C028  F028         	movff	___fltol@f1,?___fltol
  3089   002226  C029  F029         	movff	___fltol@f1+1,?___fltol+1
  3090   00222A  C02A  F02A         	movff	___fltol@f1+2,?___fltol+2
  3091   00222E  C02B  F02B         	movff	___fltol@f1+3,?___fltol+3
  3092   002232                     l2065:
  3093   002232  0012               	return		;funcret
  3094   002234                     __end_of___fltol:
  3095                           	callstack 0
  3096                           
  3097 ;; *************** function ___flmul *****************
  3098 ;; Defined at:
  3099 ;;		line 8 in file "C:\Program Files\Microchip\xc8\v2.41\pic\sources\c99\common\sprcmul.c"
  3100 ;; Parameters:    Size  Location     Type
  3101 ;;  b               4   27[COMRAM] long 
  3102 ;;  a               4   31[COMRAM] long 
  3103 ;; Auto vars:     Size  Location     Type
  3104 ;;  prod            4    7[BANK0 ] struct .
  3105 ;;  grs             4    2[BANK0 ] unsigned long 
  3106 ;;  temp            2   11[BANK0 ] struct .
  3107 ;;  bexp            1    6[BANK0 ] unsigned char 
  3108 ;;  aexp            1    1[BANK0 ] unsigned char 
  3109 ;;  sign            1    0[BANK0 ] unsigned char 
  3110 ;; Return value:  Size  Location     Type
  3111 ;;                  4   27[COMRAM] unsigned char 
  3112 ;; Registers used:
  3113 ;;		wreg, status,2, status,0, prodl, prodh
  3114 ;; Tracked objects:
  3115 ;;		On entry : 0/0
  3116 ;;		On exit  : 0/0
  3117 ;;		Unchanged: 0/0
  3118 ;; Data sizes:     COMRAM   BANK0   BANK1   BANK2   BANK3   BANK4   BANK5   BANK6   BANK7   BANK8   BANK9  BANK10  BANK1
      +1  BANK12  BANK13  BANK14  BANK15
  3119 ;;      Params:         8       0       0       0       0       0       0       0       0       0       0       0       
      +0       0       0       0       0
  3120 ;;      Locals:         0      13       0       0       0       0       0       0       0       0       0       0       
      +0       0       0       0       0
  3121 ;;      Temps:          4       0       0       0       0       0       0       0       0       0       0       0       
      +0       0       0       0       0
  3122 ;;      Totals:        12      13       0       0       0       0       0       0       0       0       0       0       
      +0       0       0       0       0
  3123 ;;Total ram usage:       25 bytes
  3124 ;; Hardware stack levels used: 1
  3125 ;; Hardware stack levels required when called: 4
  3126 ;; This function calls:
  3127 ;;		Nothing
  3128 ;; This function is called by:
  3129 ;;		_main
  3130 ;;		_ECCP_intialize
  3131 ;;		_ECCP_PWM_Set_Duty
  3132 ;; This function uses a non-reentrant model
  3133 ;;
  3134                           
  3135                           	psect	text14
  3136   00145C                     __ptext14:
  3137                           	callstack 0
  3138   00145C                     ___flmul:
  3139                           	callstack 26
  3140   00145C  501F               	movf	(___flmul@b+3)^0,w,c
  3141   00145E  0B80               	andlw	128
  3142   001460  0100               	movlb	0	; () banked
  3143   001462  6FE9               	movwf	___flmul@sign& (0+255),b
  3144   001464  501F               	movf	(___flmul@b+3)^0,w,c
  3145   001466  241F               	addwf	(___flmul@b+3)^0,w,c
  3146   001468  6FEF               	movwf	___flmul@bexp& (0+255),b
  3147   00146A                     
  3148                           ; BSR set to: 0
  3149   00146A  AE1E               	btfss	(___flmul@b+2)^0,7,c
  3150   00146C  EF3A  F00A         	goto	u6491
  3151   001470  EF3C  F00A         	goto	u6490
  3152   001474                     u6491:
  3153   001474  EF3D  F00A         	goto	l7384
  3154   001478                     u6490:
  3155   001478                     
  3156                           ; BSR set to: 0
  3157   001478  81EF               	bsf	___flmul@bexp& (0+255),0,b
  3158   00147A                     l7384:
  3159                           
  3160                           ; BSR set to: 0
  3161   00147A  51EF               	movf	___flmul@bexp& (0+255),w,b
  3162   00147C  B4D8               	btfsc	status,2,c
  3163   00147E  EF43  F00A         	goto	u6501
  3164   001482  EF45  F00A         	goto	u6500
  3165   001486                     u6501:
  3166   001486  EF58  F00A         	goto	l7392
  3167   00148A                     u6500:
  3168   00148A                     
  3169                           ; BSR set to: 0
  3170   00148A  29EF               	incf	___flmul@bexp& (0+255),w,b
  3171   00148C  A4D8               	btfss	status,2,c
  3172   00148E  EF4B  F00A         	goto	u6511
  3173   001492  EF4D  F00A         	goto	u6510
  3174   001496                     u6511:
  3175   001496  EF55  F00A         	goto	l7390
  3176   00149A                     u6510:
  3177   00149A                     
  3178                           ; BSR set to: 0
  3179   00149A  0E00               	movlw	0
  3180   00149C  6E1C               	movwf	___flmul@b^0,c
  3181   00149E  0E00               	movlw	0
  3182   0014A0  6E1D               	movwf	(___flmul@b+1)^0,c
  3183   0014A2  0E00               	movlw	0
  3184   0014A4  6E1E               	movwf	(___flmul@b+2)^0,c
  3185   0014A6  0E00               	movlw	0
  3186   0014A8  6E1F               	movwf	(___flmul@b+3)^0,c
  3187   0014AA                     l7390:
  3188                           
  3189                           ; BSR set to: 0
  3190   0014AA  8E1E               	bsf	(___flmul@b+2)^0,7,c
  3191   0014AC  EF60  F00A         	goto	l7394
  3192   0014B0                     l7392:
  3193                           
  3194                           ; BSR set to: 0
  3195   0014B0  0E00               	movlw	0
  3196   0014B2  6E1C               	movwf	___flmul@b^0,c
  3197   0014B4  0E00               	movlw	0
  3198   0014B6  6E1D               	movwf	(___flmul@b+1)^0,c
  3199   0014B8  0E00               	movlw	0
  3200   0014BA  6E1E               	movwf	(___flmul@b+2)^0,c
  3201   0014BC  0E00               	movlw	0
  3202   0014BE  6E1F               	movwf	(___flmul@b+3)^0,c
  3203   0014C0                     l7394:
  3204                           
  3205                           ; BSR set to: 0
  3206   0014C0  5023               	movf	(___flmul@a+3)^0,w,c
  3207   0014C2  0B80               	andlw	128
  3208   0014C4  1BE9               	xorwf	___flmul@sign& (0+255),f,b
  3209   0014C6                     
  3210                           ; BSR set to: 0
  3211   0014C6  5023               	movf	(___flmul@a+3)^0,w,c
  3212   0014C8  2423               	addwf	(___flmul@a+3)^0,w,c
  3213   0014CA  6FEA               	movwf	___flmul@aexp& (0+255),b
  3214   0014CC                     
  3215                           ; BSR set to: 0
  3216   0014CC  AE22               	btfss	(___flmul@a+2)^0,7,c
  3217   0014CE  EF6B  F00A         	goto	u6521
  3218   0014D2  EF6D  F00A         	goto	u6520
  3219   0014D6                     u6521:
  3220   0014D6  EF6E  F00A         	goto	l7402
  3221   0014DA                     u6520:
  3222   0014DA                     
  3223                           ; BSR set to: 0
  3224   0014DA  81EA               	bsf	___flmul@aexp& (0+255),0,b
  3225   0014DC                     l7402:
  3226                           
  3227                           ; BSR set to: 0
  3228   0014DC  51EA               	movf	___flmul@aexp& (0+255),w,b
  3229   0014DE  B4D8               	btfsc	status,2,c
  3230   0014E0  EF74  F00A         	goto	u6531
  3231   0014E4  EF76  F00A         	goto	u6530
  3232   0014E8                     u6531:
  3233   0014E8  EF89  F00A         	goto	l7410
  3234   0014EC                     u6530:
  3235   0014EC                     
  3236                           ; BSR set to: 0
  3237   0014EC  29EA               	incf	___flmul@aexp& (0+255),w,b
  3238   0014EE  A4D8               	btfss	status,2,c
  3239   0014F0  EF7C  F00A         	goto	u6541
  3240   0014F4  EF7E  F00A         	goto	u6540
  3241   0014F8                     u6541:
  3242   0014F8  EF86  F00A         	goto	l7408
  3243   0014FC                     u6540:
  3244   0014FC                     
  3245                           ; BSR set to: 0
  3246   0014FC  0E00               	movlw	0
  3247   0014FE  6E20               	movwf	___flmul@a^0,c
  3248   001500  0E00               	movlw	0
  3249   001502  6E21               	movwf	(___flmul@a+1)^0,c
  3250   001504  0E00               	movlw	0
  3251   001506  6E22               	movwf	(___flmul@a+2)^0,c
  3252   001508  0E00               	movlw	0
  3253   00150A  6E23               	movwf	(___flmul@a+3)^0,c
  3254   00150C                     l7408:
  3255                           
  3256                           ; BSR set to: 0
  3257   00150C  8E22               	bsf	(___flmul@a+2)^0,7,c
  3258   00150E  EF91  F00A         	goto	l2382
  3259   001512                     l7410:
  3260                           
  3261                           ; BSR set to: 0
  3262   001512  0E00               	movlw	0
  3263   001514  6E20               	movwf	___flmul@a^0,c
  3264   001516  0E00               	movlw	0
  3265   001518  6E21               	movwf	(___flmul@a+1)^0,c
  3266   00151A  0E00               	movlw	0
  3267   00151C  6E22               	movwf	(___flmul@a+2)^0,c
  3268   00151E  0E00               	movlw	0
  3269   001520  6E23               	movwf	(___flmul@a+3)^0,c
  3270   001522                     l2382:
  3271                           
  3272                           ; BSR set to: 0
  3273   001522  51EA               	movf	___flmul@aexp& (0+255),w,b
  3274   001524  B4D8               	btfsc	status,2,c
  3275   001526  EF97  F00A         	goto	u6551
  3276   00152A  EF99  F00A         	goto	u6550
  3277   00152E                     u6551:
  3278   00152E  EFA1  F00A         	goto	l7414
  3279   001532                     u6550:
  3280   001532                     
  3281                           ; BSR set to: 0
  3282   001532  51EF               	movf	___flmul@bexp& (0+255),w,b
  3283   001534  A4D8               	btfss	status,2,c
  3284   001536  EF9F  F00A         	goto	u6561
  3285   00153A  EFA1  F00A         	goto	u6560
  3286   00153E                     u6561:
  3287   00153E  EFAB  F00A         	goto	l7418
  3288   001542                     u6560:
  3289   001542                     l7414:
  3290                           
  3291                           ; BSR set to: 0
  3292   001542  0E00               	movlw	0
  3293   001544  6E1C               	movwf	?___flmul^0,c
  3294   001546  0E00               	movlw	0
  3295   001548  6E1D               	movwf	(?___flmul+1)^0,c
  3296   00154A  0E00               	movlw	0
  3297   00154C  6E1E               	movwf	(?___flmul+2)^0,c
  3298   00154E  0E00               	movlw	0
  3299   001550  6E1F               	movwf	(?___flmul+3)^0,c
  3300   001552  EF43  F00C         	goto	l2386
  3301   001556                     l7418:
  3302                           
  3303                           ; BSR set to: 0
  3304   001556  5022               	movf	(___flmul@a+2)^0,w,c
  3305   001558  021C               	mulwf	___flmul@b^0,c
  3306   00155A  CFF3 F0F4          	movff	prodl,___flmul@temp
  3307   00155E  CFF4 F0F5          	movff	prodh,___flmul@temp+1
  3308   001562                     
  3309                           ; BSR set to: 0
  3310   001562  51F4               	movf	___flmul@temp& (0+255),w,b
  3311   001564  6FEB               	movwf	___flmul@grs& (0+255),b
  3312   001566  6BEC               	clrf	(___flmul@grs+1)& (0+255),b
  3313   001568  6BED               	clrf	(___flmul@grs+2)& (0+255),b
  3314   00156A  6BEE               	clrf	(___flmul@grs+3)& (0+255),b
  3315   00156C                     
  3316                           ; BSR set to: 0
  3317   00156C  51F5               	movf	(___flmul@temp+1)& (0+255),w,b
  3318   00156E  6FF0               	movwf	___flmul@prod& (0+255),b
  3319   001570  6BF1               	clrf	(___flmul@prod+1)& (0+255),b
  3320   001572  6BF2               	clrf	(___flmul@prod+2)& (0+255),b
  3321   001574  6BF3               	clrf	(___flmul@prod+3)& (0+255),b
  3322   001576  5021               	movf	(___flmul@a+1)^0,w,c
  3323   001578  021D               	mulwf	(___flmul@b+1)^0,c
  3324   00157A  CFF3 F0F4          	movff	prodl,___flmul@temp
  3325   00157E  CFF4 F0F5          	movff	prodh,___flmul@temp+1
  3326   001582                     
  3327                           ; BSR set to: 0
  3328   001582  51F4               	movf	___flmul@temp& (0+255),w,b
  3329   001584  27EB               	addwf	___flmul@grs& (0+255),f,b
  3330   001586  0E00               	movlw	0
  3331   001588  23EC               	addwfc	(___flmul@grs+1)& (0+255),f,b
  3332   00158A  23ED               	addwfc	(___flmul@grs+2)& (0+255),f,b
  3333   00158C  23EE               	addwfc	(___flmul@grs+3)& (0+255),f,b
  3334   00158E                     
  3335                           ; BSR set to: 0
  3336   00158E  51F5               	movf	(___flmul@temp+1)& (0+255),w,b
  3337   001590  27F0               	addwf	___flmul@prod& (0+255),f,b
  3338   001592  0E00               	movlw	0
  3339   001594  23F1               	addwfc	(___flmul@prod+1)& (0+255),f,b
  3340   001596  23F2               	addwfc	(___flmul@prod+2)& (0+255),f,b
  3341   001598  23F3               	addwfc	(___flmul@prod+3)& (0+255),f,b
  3342   00159A  5020               	movf	___flmul@a^0,w,c
  3343   00159C  021E               	mulwf	(___flmul@b+2)^0,c
  3344   00159E  CFF3 F0F4          	movff	prodl,___flmul@temp
  3345   0015A2  CFF4 F0F5          	movff	prodh,___flmul@temp+1
  3346   0015A6                     
  3347                           ; BSR set to: 0
  3348   0015A6  51F4               	movf	___flmul@temp& (0+255),w,b
  3349   0015A8  27EB               	addwf	___flmul@grs& (0+255),f,b
  3350   0015AA  0E00               	movlw	0
  3351   0015AC  23EC               	addwfc	(___flmul@grs+1)& (0+255),f,b
  3352   0015AE  23ED               	addwfc	(___flmul@grs+2)& (0+255),f,b
  3353   0015B0  23EE               	addwfc	(___flmul@grs+3)& (0+255),f,b
  3354   0015B2                     
  3355                           ; BSR set to: 0
  3356   0015B2  51F5               	movf	(___flmul@temp+1)& (0+255),w,b
  3357   0015B4  27F0               	addwf	___flmul@prod& (0+255),f,b
  3358   0015B6  0E00               	movlw	0
  3359   0015B8  23F1               	addwfc	(___flmul@prod+1)& (0+255),f,b
  3360   0015BA  23F2               	addwfc	(___flmul@prod+2)& (0+255),f,b
  3361   0015BC  23F3               	addwfc	(___flmul@prod+3)& (0+255),f,b
  3362   0015BE                     
  3363                           ; BSR set to: 0
  3364   0015BE  C0ED  F0EE         	movff	___flmul@grs+2,___flmul@grs+3
  3365   0015C2  C0EC  F0ED         	movff	___flmul@grs+1,___flmul@grs+2
  3366   0015C6  C0EB  F0EC         	movff	___flmul@grs,___flmul@grs+1
  3367   0015CA  6BEB               	clrf	___flmul@grs& (0+255),b
  3368   0015CC                     
  3369                           ; BSR set to: 0
  3370   0015CC  5020               	movf	___flmul@a^0,w,c
  3371   0015CE  021D               	mulwf	(___flmul@b+1)^0,c
  3372   0015D0  CFF3 F0F4          	movff	prodl,___flmul@temp
  3373   0015D4  CFF4 F0F5          	movff	prodh,___flmul@temp+1
  3374   0015D8                     
  3375                           ; BSR set to: 0
  3376   0015D8  51F4               	movf	___flmul@temp& (0+255),w,b
  3377   0015DA  27EB               	addwf	___flmul@grs& (0+255),f,b
  3378   0015DC  51F5               	movf	(___flmul@temp+1)& (0+255),w,b
  3379   0015DE  23EC               	addwfc	(___flmul@grs+1)& (0+255),f,b
  3380   0015E0  0E00               	movlw	0
  3381   0015E2  23ED               	addwfc	(___flmul@grs+2)& (0+255),f,b
  3382   0015E4  0E00               	movlw	0
  3383   0015E6  23EE               	addwfc	(___flmul@grs+3)& (0+255),f,b
  3384   0015E8                     
  3385                           ; BSR set to: 0
  3386   0015E8  5021               	movf	(___flmul@a+1)^0,w,c
  3387   0015EA  021C               	mulwf	___flmul@b^0,c
  3388   0015EC  CFF3 F0F4          	movff	prodl,___flmul@temp
  3389   0015F0  CFF4 F0F5          	movff	prodh,___flmul@temp+1
  3390   0015F4                     
  3391                           ; BSR set to: 0
  3392   0015F4  51F4               	movf	___flmul@temp& (0+255),w,b
  3393   0015F6  27EB               	addwf	___flmul@grs& (0+255),f,b
  3394   0015F8  51F5               	movf	(___flmul@temp+1)& (0+255),w,b
  3395   0015FA  23EC               	addwfc	(___flmul@grs+1)& (0+255),f,b
  3396   0015FC  0E00               	movlw	0
  3397   0015FE  23ED               	addwfc	(___flmul@grs+2)& (0+255),f,b
  3398   001600  0E00               	movlw	0
  3399   001602  23EE               	addwfc	(___flmul@grs+3)& (0+255),f,b
  3400   001604                     
  3401                           ; BSR set to: 0
  3402   001604  C0ED  F0EE         	movff	___flmul@grs+2,___flmul@grs+3
  3403   001608  C0EC  F0ED         	movff	___flmul@grs+1,___flmul@grs+2
  3404   00160C  C0EB  F0EC         	movff	___flmul@grs,___flmul@grs+1
  3405   001610  6BEB               	clrf	___flmul@grs& (0+255),b
  3406   001612  5020               	movf	___flmul@a^0,w,c
  3407   001614  021C               	mulwf	___flmul@b^0,c
  3408   001616  CFF3 F0F4          	movff	prodl,___flmul@temp
  3409   00161A  CFF4 F0F5          	movff	prodh,___flmul@temp+1
  3410   00161E                     
  3411                           ; BSR set to: 0
  3412   00161E  51F4               	movf	___flmul@temp& (0+255),w,b
  3413   001620  27EB               	addwf	___flmul@grs& (0+255),f,b
  3414   001622  51F5               	movf	(___flmul@temp+1)& (0+255),w,b
  3415   001624  23EC               	addwfc	(___flmul@grs+1)& (0+255),f,b
  3416   001626  0E00               	movlw	0
  3417   001628  23ED               	addwfc	(___flmul@grs+2)& (0+255),f,b
  3418   00162A  0E00               	movlw	0
  3419   00162C  23EE               	addwfc	(___flmul@grs+3)& (0+255),f,b
  3420   00162E                     
  3421                           ; BSR set to: 0
  3422   00162E  5022               	movf	(___flmul@a+2)^0,w,c
  3423   001630  021D               	mulwf	(___flmul@b+1)^0,c
  3424   001632  CFF3 F0F4          	movff	prodl,___flmul@temp
  3425   001636  CFF4 F0F5          	movff	prodh,___flmul@temp+1
  3426   00163A  51F4               	movf	___flmul@temp& (0+255),w,b
  3427   00163C  27F0               	addwf	___flmul@prod& (0+255),f,b
  3428   00163E  51F5               	movf	(___flmul@temp+1)& (0+255),w,b
  3429   001640  23F1               	addwfc	(___flmul@prod+1)& (0+255),f,b
  3430   001642  0E00               	movlw	0
  3431   001644  23F2               	addwfc	(___flmul@prod+2)& (0+255),f,b
  3432   001646  0E00               	movlw	0
  3433   001648  23F3               	addwfc	(___flmul@prod+3)& (0+255),f,b
  3434   00164A                     
  3435                           ; BSR set to: 0
  3436   00164A  5021               	movf	(___flmul@a+1)^0,w,c
  3437   00164C  021E               	mulwf	(___flmul@b+2)^0,c
  3438   00164E  CFF3 F0F4          	movff	prodl,___flmul@temp
  3439   001652  CFF4 F0F5          	movff	prodh,___flmul@temp+1
  3440   001656                     
  3441                           ; BSR set to: 0
  3442   001656  51F4               	movf	___flmul@temp& (0+255),w,b
  3443   001658  27F0               	addwf	___flmul@prod& (0+255),f,b
  3444   00165A  51F5               	movf	(___flmul@temp+1)& (0+255),w,b
  3445   00165C  23F1               	addwfc	(___flmul@prod+1)& (0+255),f,b
  3446   00165E  0E00               	movlw	0
  3447   001660  23F2               	addwfc	(___flmul@prod+2)& (0+255),f,b
  3448   001662  0E00               	movlw	0
  3449   001664  23F3               	addwfc	(___flmul@prod+3)& (0+255),f,b
  3450   001666  5022               	movf	(___flmul@a+2)^0,w,c
  3451   001668  021E               	mulwf	(___flmul@b+2)^0,c
  3452   00166A  CFF3 F0F4          	movff	prodl,___flmul@temp
  3453   00166E  CFF4 F0F5          	movff	prodh,___flmul@temp+1
  3454   001672                     
  3455                           ; BSR set to: 0
  3456   001672  51F4               	movf	___flmul@temp& (0+255),w,b
  3457   001674  6E24               	movwf	??___flmul^0,c
  3458   001676  51F5               	movf	(___flmul@temp+1)& (0+255),w,b
  3459   001678  6E25               	movwf	(??___flmul+1)^0,c
  3460   00167A  6A26               	clrf	(??___flmul+2)^0,c
  3461   00167C  6A27               	clrf	(??___flmul+3)^0,c
  3462   00167E  C026  F027         	movff	??___flmul+2,??___flmul+3
  3463   001682  C025  F026         	movff	??___flmul+1,??___flmul+2
  3464   001686  C024  F025         	movff	??___flmul,??___flmul+1
  3465   00168A  6A24               	clrf	??___flmul^0,c
  3466   00168C  5024               	movf	??___flmul^0,w,c
  3467   00168E  27F0               	addwf	___flmul@prod& (0+255),f,b
  3468   001690  5025               	movf	(??___flmul+1)^0,w,c
  3469   001692  23F1               	addwfc	(___flmul@prod+1)& (0+255),f,b
  3470   001694  5026               	movf	(??___flmul+2)^0,w,c
  3471   001696  23F2               	addwfc	(___flmul@prod+2)& (0+255),f,b
  3472   001698  5027               	movf	(??___flmul+3)^0,w,c
  3473   00169A  23F3               	addwfc	(___flmul@prod+3)& (0+255),f,b
  3474   00169C                     
  3475                           ; BSR set to: 0
  3476   00169C  C0EB  F024         	movff	___flmul@grs,??___flmul
  3477   0016A0  C0EC  F025         	movff	___flmul@grs+1,??___flmul+1
  3478   0016A4  C0ED  F026         	movff	___flmul@grs+2,??___flmul+2
  3479   0016A8  C0EE  F027         	movff	___flmul@grs+3,??___flmul+3
  3480   0016AC  0E19               	movlw	25
  3481   0016AE  EF5E  F00B         	goto	u6570
  3482   0016B2                     u6575:
  3483   0016B2  90D8               	bcf	status,0,c
  3484   0016B4  3227               	rrcf	(??___flmul+3)^0,f,c
  3485   0016B6  3226               	rrcf	(??___flmul+2)^0,f,c
  3486   0016B8  3225               	rrcf	(??___flmul+1)^0,f,c
  3487   0016BA  3224               	rrcf	??___flmul^0,f,c
  3488   0016BC                     u6570:
  3489   0016BC  2EE8               	decfsz	wreg,f,c
  3490   0016BE  EF59  F00B         	goto	u6575
  3491   0016C2  5024               	movf	??___flmul^0,w,c
  3492   0016C4  27F0               	addwf	___flmul@prod& (0+255),f,b
  3493   0016C6  5025               	movf	(??___flmul+1)^0,w,c
  3494   0016C8  23F1               	addwfc	(___flmul@prod+1)& (0+255),f,b
  3495   0016CA  5026               	movf	(??___flmul+2)^0,w,c
  3496   0016CC  23F2               	addwfc	(___flmul@prod+2)& (0+255),f,b
  3497   0016CE  5027               	movf	(??___flmul+3)^0,w,c
  3498   0016D0  23F3               	addwfc	(___flmul@prod+3)& (0+255),f,b
  3499   0016D2                     
  3500                           ; BSR set to: 0
  3501   0016D2  C0ED  F0EE         	movff	___flmul@grs+2,___flmul@grs+3
  3502   0016D6  C0EC  F0ED         	movff	___flmul@grs+1,___flmul@grs+2
  3503   0016DA  C0EB  F0EC         	movff	___flmul@grs,___flmul@grs+1
  3504   0016DE  6BEB               	clrf	___flmul@grs& (0+255),b
  3505   0016E0                     
  3506                           ; BSR set to: 0
  3507   0016E0  51EA               	movf	___flmul@aexp& (0+255),w,b
  3508   0016E2  C0EF  F024         	movff	___flmul@bexp,??___flmul
  3509   0016E6  6A25               	clrf	(??___flmul+1)^0,c
  3510   0016E8  2624               	addwf	??___flmul^0,f,c
  3511   0016EA  0E00               	movlw	0
  3512   0016EC  2225               	addwfc	(??___flmul+1)^0,f,c
  3513   0016EE  0E82               	movlw	130
  3514   0016F0  2424               	addwf	??___flmul^0,w,c
  3515   0016F2  6FF4               	movwf	___flmul@temp& (0+255),b
  3516   0016F4  0EFF               	movlw	255
  3517   0016F6  2025               	addwfc	(??___flmul+1)^0,w,c
  3518   0016F8  6FF5               	movwf	(___flmul@temp+1)& (0+255),b
  3519   0016FA  EF94  F00B         	goto	l7466
  3520   0016FE                     l7460:
  3521                           
  3522                           ; BSR set to: 0
  3523   0016FE  90D8               	bcf	status,0,c
  3524   001700  37F0               	rlcf	___flmul@prod& (0+255),f,b
  3525   001702  37F1               	rlcf	(___flmul@prod+1)& (0+255),f,b
  3526   001704  37F2               	rlcf	(___flmul@prod+2)& (0+255),f,b
  3527   001706  37F3               	rlcf	(___flmul@prod+3)& (0+255),f,b
  3528   001708                     
  3529                           ; BSR set to: 0
  3530   001708  AFEE               	btfss	(___flmul@grs+3)& (0+255),7,b
  3531   00170A  EF89  F00B         	goto	u6581
  3532   00170E  EF8B  F00B         	goto	u6580
  3533   001712                     u6581:
  3534   001712  EF8C  F00B         	goto	l2389
  3535   001716                     u6580:
  3536   001716                     
  3537                           ; BSR set to: 0
  3538   001716  81F0               	bsf	___flmul@prod& (0+255),0,b
  3539   001718                     l2389:
  3540                           
  3541                           ; BSR set to: 0
  3542   001718  90D8               	bcf	status,0,c
  3543   00171A  37EB               	rlcf	___flmul@grs& (0+255),f,b
  3544   00171C  37EC               	rlcf	(___flmul@grs+1)& (0+255),f,b
  3545   00171E  37ED               	rlcf	(___flmul@grs+2)& (0+255),f,b
  3546   001720  37EE               	rlcf	(___flmul@grs+3)& (0+255),f,b
  3547   001722  07F4               	decf	___flmul@temp& (0+255),f,b
  3548   001724  A0D8               	btfss	status,0,c
  3549   001726  07F5               	decf	(___flmul@temp+1)& (0+255),f,b
  3550   001728                     l7466:
  3551                           
  3552                           ; BSR set to: 0
  3553   001728  AFF2               	btfss	(___flmul@prod+2)& (0+255),7,b
  3554   00172A  EF99  F00B         	goto	u6591
  3555   00172E  EF9B  F00B         	goto	u6590
  3556   001732                     u6591:
  3557   001732  EF7F  F00B         	goto	l7460
  3558   001736                     u6590:
  3559   001736                     
  3560                           ; BSR set to: 0
  3561   001736  0E00               	movlw	0
  3562   001738  6FEA               	movwf	___flmul@aexp& (0+255),b
  3563   00173A                     
  3564                           ; BSR set to: 0
  3565   00173A  AFEE               	btfss	(___flmul@grs+3)& (0+255),7,b
  3566   00173C  EFA2  F00B         	goto	u6601
  3567   001740  EFA4  F00B         	goto	u6600
  3568   001744                     u6601:
  3569   001744  EFC8  F00B         	goto	l2391
  3570   001748                     u6600:
  3571   001748                     
  3572                           ; BSR set to: 0
  3573   001748  0EFF               	movlw	255
  3574   00174A  15EB               	andwf	___flmul@grs& (0+255),w,b
  3575   00174C  6E24               	movwf	??___flmul^0,c
  3576   00174E  0EFF               	movlw	255
  3577   001750  15EC               	andwf	(___flmul@grs+1)& (0+255),w,b
  3578   001752  6E25               	movwf	(??___flmul+1)^0,c
  3579   001754  0EFF               	movlw	255
  3580   001756  15ED               	andwf	(___flmul@grs+2)& (0+255),w,b
  3581   001758  6E26               	movwf	(??___flmul+2)^0,c
  3582   00175A  0E7F               	movlw	127
  3583   00175C  15EE               	andwf	(___flmul@grs+3)& (0+255),w,b
  3584   00175E  6E27               	movwf	(??___flmul+3)^0,c
  3585   001760  5024               	movf	??___flmul^0,w,c
  3586   001762  1025               	iorwf	(??___flmul+1)^0,w,c
  3587   001764  1026               	iorwf	(??___flmul+2)^0,w,c
  3588   001766  1027               	iorwf	(??___flmul+3)^0,w,c
  3589   001768  B4D8               	btfsc	status,2,c
  3590   00176A  EFB9  F00B         	goto	u6611
  3591   00176E  EFBB  F00B         	goto	u6610
  3592   001772                     u6611:
  3593   001772  EFBF  F00B         	goto	l2392
  3594   001776                     u6610:
  3595   001776                     l7474:
  3596                           
  3597                           ; BSR set to: 0
  3598   001776  0E01               	movlw	1
  3599   001778  6FEA               	movwf	___flmul@aexp& (0+255),b
  3600   00177A  EFC8  F00B         	goto	l2391
  3601   00177E                     l2392:
  3602                           
  3603                           ; BSR set to: 0
  3604   00177E  A1F0               	btfss	___flmul@prod& (0+255),0,b
  3605   001780  EFC4  F00B         	goto	u6621
  3606   001784  EFC6  F00B         	goto	u6620
  3607   001788                     u6621:
  3608   001788  EFC8  F00B         	goto	l2391
  3609   00178C                     u6620:
  3610   00178C  EFBB  F00B         	goto	l7474
  3611   001790                     l2391:
  3612                           
  3613                           ; BSR set to: 0
  3614   001790  51EA               	movf	___flmul@aexp& (0+255),w,b
  3615   001792  B4D8               	btfsc	status,2,c
  3616   001794  EFCE  F00B         	goto	u6631
  3617   001798  EFD0  F00B         	goto	u6630
  3618   00179C                     u6631:
  3619   00179C  EFF4  F00B         	goto	l7486
  3620   0017A0                     u6630:
  3621   0017A0                     
  3622                           ; BSR set to: 0
  3623   0017A0  0E01               	movlw	1
  3624   0017A2  27F0               	addwf	___flmul@prod& (0+255),f,b
  3625   0017A4  0E00               	movlw	0
  3626   0017A6  23F1               	addwfc	(___flmul@prod+1)& (0+255),f,b
  3627   0017A8  23F2               	addwfc	(___flmul@prod+2)& (0+255),f,b
  3628   0017AA  23F3               	addwfc	(___flmul@prod+3)& (0+255),f,b
  3629   0017AC                     
  3630                           ; BSR set to: 0
  3631   0017AC  A1F3               	btfss	(___flmul@prod+3)& (0+255),0,b
  3632   0017AE  EFDB  F00B         	goto	u6641
  3633   0017B2  EFDD  F00B         	goto	u6640
  3634   0017B6                     u6641:
  3635   0017B6  EFF4  F00B         	goto	l7486
  3636   0017BA                     u6640:
  3637   0017BA                     
  3638                           ; BSR set to: 0
  3639   0017BA  C0F0  F024         	movff	___flmul@prod,??___flmul
  3640   0017BE  C0F1  F025         	movff	___flmul@prod+1,??___flmul+1
  3641   0017C2  C0F2  F026         	movff	___flmul@prod+2,??___flmul+2
  3642   0017C6  C0F3  F027         	movff	___flmul@prod+3,??___flmul+3
  3643   0017CA  3427               	rlcf	(??___flmul+3)^0,w,c
  3644   0017CC  3227               	rrcf	(??___flmul+3)^0,f,c
  3645   0017CE  3226               	rrcf	(??___flmul+2)^0,f,c
  3646   0017D0  3225               	rrcf	(??___flmul+1)^0,f,c
  3647   0017D2  3224               	rrcf	??___flmul^0,f,c
  3648   0017D4  C024  F0F0         	movff	??___flmul,___flmul@prod
  3649   0017D8  C025  F0F1         	movff	??___flmul+1,___flmul@prod+1
  3650   0017DC  C026  F0F2         	movff	??___flmul+2,___flmul@prod+2
  3651   0017E0  C027  F0F3         	movff	??___flmul+3,___flmul@prod+3
  3652   0017E4                     
  3653                           ; BSR set to: 0
  3654   0017E4  4BF4               	infsnz	___flmul@temp& (0+255),f,b
  3655   0017E6  2BF5               	incf	(___flmul@temp+1)& (0+255),f,b
  3656   0017E8                     l7486:
  3657                           
  3658                           ; BSR set to: 0
  3659   0017E8  BFF5               	btfsc	(___flmul@temp+1)& (0+255),7,b
  3660   0017EA  EFFF  F00B         	goto	u6651
  3661   0017EE  51F5               	movf	(___flmul@temp+1)& (0+255),w,b
  3662   0017F0  E108               	bnz	u6650
  3663   0017F2  29F4               	incf	___flmul@temp& (0+255),w,b
  3664   0017F4  A0D8               	btfss	status,0,c
  3665   0017F6  EFFF  F00B         	goto	u6651
  3666   0017FA  EF01  F00C         	goto	u6650
  3667   0017FE                     u6651:
  3668   0017FE  EF0B  F00C         	goto	l7490
  3669   001802                     u6650:
  3670   001802                     
  3671                           ; BSR set to: 0
  3672   001802  0E00               	movlw	0
  3673   001804  6FF0               	movwf	___flmul@prod& (0+255),b
  3674   001806  0E00               	movlw	0
  3675   001808  6FF1               	movwf	(___flmul@prod+1)& (0+255),b
  3676   00180A  0E80               	movlw	128
  3677   00180C  6FF2               	movwf	(___flmul@prod+2)& (0+255),b
  3678   00180E  0E7F               	movlw	127
  3679   001810  6FF3               	movwf	(___flmul@prod+3)& (0+255),b
  3680   001812  EF39  F00C         	goto	l7502
  3681   001816                     l7490:
  3682                           
  3683                           ; BSR set to: 0
  3684   001816  BFF5               	btfsc	(___flmul@temp+1)& (0+255),7,b
  3685   001818  EF18  F00C         	goto	u6660
  3686   00181C  51F5               	movf	(___flmul@temp+1)& (0+255),w,b
  3687   00181E  E106               	bnz	u6661
  3688   001820  05F4               	decf	___flmul@temp& (0+255),w,b
  3689   001822  B0D8               	btfsc	status,0,c
  3690   001824  EF16  F00C         	goto	u6661
  3691   001828  EF18  F00C         	goto	u6660
  3692   00182C                     u6661:
  3693   00182C  EF24  F00C         	goto	l2399
  3694   001830                     u6660:
  3695   001830                     
  3696                           ; BSR set to: 0
  3697   001830  0E00               	movlw	0
  3698   001832  6FF0               	movwf	___flmul@prod& (0+255),b
  3699   001834  0E00               	movlw	0
  3700   001836  6FF1               	movwf	(___flmul@prod+1)& (0+255),b
  3701   001838  0E00               	movlw	0
  3702   00183A  6FF2               	movwf	(___flmul@prod+2)& (0+255),b
  3703   00183C  0E00               	movlw	0
  3704   00183E  6FF3               	movwf	(___flmul@prod+3)& (0+255),b
  3705   001840  0E00               	movlw	0
  3706   001842  6FE9               	movwf	___flmul@sign& (0+255),b
  3707   001844  EF39  F00C         	goto	l7502
  3708   001848                     l2399:
  3709                           
  3710                           ; BSR set to: 0
  3711   001848  C0F4  F0EF         	movff	___flmul@temp,___flmul@bexp
  3712   00184C                     
  3713                           ; BSR set to: 0
  3714   00184C  0EFF               	movlw	255
  3715   00184E  17F0               	andwf	___flmul@prod& (0+255),f,b
  3716   001850  0EFF               	movlw	255
  3717   001852  17F1               	andwf	(___flmul@prod+1)& (0+255),f,b
  3718   001854  0E7F               	movlw	127
  3719   001856  17F2               	andwf	(___flmul@prod+2)& (0+255),f,b
  3720   001858  0E00               	movlw	0
  3721   00185A  17F3               	andwf	(___flmul@prod+3)& (0+255),f,b
  3722   00185C                     
  3723                           ; BSR set to: 0
  3724   00185C  A1EF               	btfss	___flmul@bexp& (0+255),0,b
  3725   00185E  EF33  F00C         	goto	u6671
  3726   001862  EF35  F00C         	goto	u6670
  3727   001866                     u6671:
  3728   001866  EF36  F00C         	goto	l7500
  3729   00186A                     u6670:
  3730   00186A                     
  3731                           ; BSR set to: 0
  3732   00186A  8FF2               	bsf	(___flmul@prod+2)& (0+255),7,b
  3733   00186C                     l7500:
  3734                           
  3735                           ; BSR set to: 0
  3736   00186C  90D8               	bcf	status,0,c
  3737   00186E  31EF               	rrcf	___flmul@bexp& (0+255),w,b
  3738   001870  6FF3               	movwf	(___flmul@prod+3)& (0+255),b
  3739   001872                     l7502:
  3740                           
  3741                           ; BSR set to: 0
  3742   001872  51E9               	movf	___flmul@sign& (0+255),w,b
  3743   001874  13F3               	iorwf	(___flmul@prod+3)& (0+255),f,b
  3744   001876                     
  3745                           ; BSR set to: 0
  3746   001876  C0F0  F01C         	movff	___flmul@prod,?___flmul
  3747   00187A  C0F1  F01D         	movff	___flmul@prod+1,?___flmul+1
  3748   00187E  C0F2  F01E         	movff	___flmul@prod+2,?___flmul+2
  3749   001882  C0F3  F01F         	movff	___flmul@prod+3,?___flmul+3
  3750   001886                     l2386:
  3751                           
  3752                           ; BSR set to: 0
  3753   001886  0012               	return		;funcret
  3754   001888                     __end_of___flmul:
  3755                           	callstack 0
  3756                           
  3757 ;; *************** function _SPI_Send_Byte *****************
  3758 ;; Defined at:
  3759 ;;		line 74 in file "MCAL_Layer/SPI/hal_spi.c"
  3760 ;; Parameters:    Size  Location     Type
  3761 ;;  _data           1    wreg     const unsigned char 
  3762 ;; Auto vars:     Size  Location     Type
  3763 ;;  _data           1   15[COMRAM] const unsigned char 
  3764 ;;  ret             2    0        unsigned int 
  3765 ;; Return value:  Size  Location     Type
  3766 ;;                  2   13[COMRAM] unsigned int 
  3767 ;; Registers used:
  3768 ;;		wreg, status,2
  3769 ;; Tracked objects:
  3770 ;;		On entry : 0/0
  3771 ;;		On exit  : 0/0
  3772 ;;		Unchanged: 0/0
  3773 ;; Data sizes:     COMRAM   BANK0   BANK1   BANK2   BANK3   BANK4   BANK5   BANK6   BANK7   BANK8   BANK9  BANK10  BANK1
      +1  BANK12  BANK13  BANK14  BANK15
  3774 ;;      Params:         2       0       0       0       0       0       0       0       0       0       0       0       
      +0       0       0       0       0
  3775 ;;      Locals:         1       0       0       0       0       0       0       0       0       0       0       0       
      +0       0       0       0       0
  3776 ;;      Temps:          0       0       0       0       0       0       0       0       0       0       0       0       
      +0       0       0       0       0
  3777 ;;      Totals:         3       0       0       0       0       0       0       0       0       0       0       0       
      +0       0       0       0       0
  3778 ;;Total ram usage:        3 bytes
  3779 ;; Hardware stack levels used: 1
  3780 ;; Hardware stack levels required when called: 4
  3781 ;; This function calls:
  3782 ;;		Nothing
  3783 ;; This function is called by:
  3784 ;;		_main
  3785 ;;		_SPI_SendString
  3786 ;; This function uses a non-reentrant model
  3787 ;;
  3788                           
  3789                           	psect	text15
  3790   002B4E                     __ptext15:
  3791                           	callstack 0
  3792   002B4E                     _SPI_Send_Byte:
  3793                           	callstack 26
  3794                           
  3795                           ; BSR set to: 0
  3796                           ;incstack = 0
  3797                           ;SPI_Send_Byte@_data stored from wreg
  3798   002B4E  6E10               	movwf	SPI_Send_Byte@_data^0,c
  3799   002B50                     
  3800                           ;MCAL_Layer/SPI/hal_spi.c: 77:     SSPBUF = _data;
  3801   002B50  C010  FFC9         	movff	SPI_Send_Byte@_data,4041	;volatile
  3802   002B54                     l1276:
  3803   002B54  A69E               	btfss	158,3,c	;volatile
  3804   002B56  EFAF  F015         	goto	u4281
  3805   002B5A  EFB1  F015         	goto	u4280
  3806   002B5E                     u4281:
  3807   002B5E  EFAA  F015         	goto	l1276
  3808   002B62                     u4280:
  3809   002B62                     
  3810                           ;MCAL_Layer/SPI/hal_spi.c: 79:     PIR1bits.SSPIF = 0;
  3811   002B62  969E               	bcf	158,3,c	;volatile
  3812   002B64  0012               	return		;funcret
  3813   002B66                     __end_of_SPI_Send_Byte:
  3814                           	callstack 0
  3815                           
  3816 ;; *************** function _SPI_Read_Byte *****************
  3817 ;; Defined at:
  3818 ;;		line 90 in file "MCAL_Layer/SPI/hal_spi.c"
  3819 ;; Parameters:    Size  Location     Type
  3820 ;;  _data           2   13[COMRAM] PTR unsigned char 
  3821 ;;		 -> spi_read_master(1), 
  3822 ;; Auto vars:     Size  Location     Type
  3823 ;;		None
  3824 ;; Return value:  Size  Location     Type
  3825 ;;                  2   13[COMRAM] unsigned int 
  3826 ;; Registers used:
  3827 ;;		fsr2l, fsr2h
  3828 ;; Tracked objects:
  3829 ;;		On entry : 0/0
  3830 ;;		On exit  : 0/0
  3831 ;;		Unchanged: 0/0
  3832 ;; Data sizes:     COMRAM   BANK0   BANK1   BANK2   BANK3   BANK4   BANK5   BANK6   BANK7   BANK8   BANK9  BANK10  BANK1
      +1  BANK12  BANK13  BANK14  BANK15
  3833 ;;      Params:         2       0       0       0       0       0       0       0       0       0       0       0       
      +0       0       0       0       0
  3834 ;;      Locals:         0       0       0       0       0       0       0       0       0       0       0       0       
      +0       0       0       0       0
  3835 ;;      Temps:          0       0       0       0       0       0       0       0       0       0       0       0       
      +0       0       0       0       0
  3836 ;;      Totals:         2       0       0       0       0       0       0       0       0       0       0       0       
      +0       0       0       0       0
  3837 ;;Total ram usage:        2 bytes
  3838 ;; Hardware stack levels used: 1
  3839 ;; Hardware stack levels required when called: 4
  3840 ;; This function calls:
  3841 ;;		Nothing
  3842 ;; This function is called by:
  3843 ;;		_main
  3844 ;; This function uses a non-reentrant model
  3845 ;;
  3846                           
  3847                           	psect	text16
  3848   002ACA                     __ptext16:
  3849                           	callstack 0
  3850   002ACA                     _SPI_Read_Byte:
  3851                           	callstack 26
  3852   002ACA                     l1288:
  3853   002ACA  A0C7               	btfss	199,0,c	;volatile
  3854   002ACC  EF6A  F015         	goto	u4291
  3855   002AD0  EF6C  F015         	goto	u4290
  3856   002AD4                     u4291:
  3857   002AD4  EF65  F015         	goto	l1288
  3858   002AD8                     u4290:
  3859   002AD8                     
  3860                           ;MCAL_Layer/SPI/hal_spi.c: 93:         *_data = SSPBUF ;
  3861   002AD8  C00E  FFD9         	movff	SPI_Read_Byte@_data,fsr2l
  3862   002ADC  C00F  FFDA         	movff	SPI_Read_Byte@_data+1,fsr2h
  3863   002AE0  CFC9 FFDF          	movff	4041,indf2	;volatile
  3864   002AE4  0012               	return		;funcret
  3865   002AE6                     __end_of_SPI_Read_Byte:
  3866                           	callstack 0
  3867                           
  3868 ;; *************** function _Led_Turn_On *****************
  3869 ;; Defined at:
  3870 ;;		line 45 in file "ECU_Layer/LED/ecu_Led.c"
  3871 ;; Parameters:    Size  Location     Type
  3872 ;;  Led             2   24[COMRAM] PTR const struct .
  3873 ;;		 -> led_Air_con(1), led_TV(1), led_Room4(1), led_Room3(1), 
  3874 ;;		 -> led_Room2(1), led_Room1(1), 
  3875 ;; Auto vars:     Size  Location     Type
  3876 ;;  _pin_config_    1   29[COMRAM] struct .
  3877 ;;  ret             2   27[COMRAM] unsigned int 
  3878 ;; Return value:  Size  Location     Type
  3879 ;;                  2   24[COMRAM] unsigned int 
  3880 ;; Registers used:
  3881 ;;		wreg, fsr2l, fsr2h, status,2, status,0, prodl, prodh, cstack
  3882 ;; Tracked objects:
  3883 ;;		On entry : 0/0
  3884 ;;		On exit  : 0/0
  3885 ;;		Unchanged: 0/0
  3886 ;; Data sizes:     COMRAM   BANK0   BANK1   BANK2   BANK3   BANK4   BANK5   BANK6   BANK7   BANK8   BANK9  BANK10  BANK1
      +1  BANK12  BANK13  BANK14  BANK15
  3887 ;;      Params:         2       0       0       0       0       0       0       0       0       0       0       0       
      +0       0       0       0       0
  3888 ;;      Locals:         3       0       0       0       0       0       0       0       0       0       0       0       
      +0       0       0       0       0
  3889 ;;      Temps:          1       0       0       0       0       0       0       0       0       0       0       0       
      +0       0       0       0       0
  3890 ;;      Totals:         6       0       0       0       0       0       0       0       0       0       0       0       
      +0       0       0       0       0
  3891 ;;Total ram usage:        6 bytes
  3892 ;; Hardware stack levels used: 1
  3893 ;; Hardware stack levels required when called: 5
  3894 ;; This function calls:
  3895 ;;		_GPIO_Pin_Write_Logic
  3896 ;; This function is called by:
  3897 ;;		_main
  3898 ;; This function uses a non-reentrant model
  3899 ;;
  3900                           
  3901                           	psect	text17
  3902   002564                     __ptext17:
  3903                           	callstack 0
  3904   002564                     _Led_Turn_On:
  3905                           	callstack 25
  3906   002564                     
  3907                           ;ECU_Layer/LED/ecu_Led.c: 48:     if(((void*)0) == Led)
  3908   002564  5019               	movf	Led_Turn_On@Led^0,w,c
  3909   002566  101A               	iorwf	(Led_Turn_On@Led+1)^0,w,c
  3910   002568  A4D8               	btfss	status,2,c
  3911   00256A  EFB9  F012         	goto	u4171
  3912   00256E  EFBB  F012         	goto	u4170
  3913   002572                     u4171:
  3914   002572  EFC1  F012         	goto	l203
  3915   002576                     u4170:
  3916   002576                     
  3917                           ;ECU_Layer/LED/ecu_Led.c: 49:     {;ECU_Layer/LED/ecu_Led.c: 50:         ret = (Std_Retu
      +                          rnType)0x00;
  3918   002576  0E00               	movlw	0
  3919   002578  6E1D               	movwf	(Led_Turn_On@ret+1)^0,c
  3920   00257A  0E00               	movlw	0
  3921   00257C  6E1C               	movwf	Led_Turn_On@ret^0,c
  3922                           
  3923                           ;ECU_Layer/LED/ecu_Led.c: 51:     }
  3924   00257E  EFF6  F012         	goto	l5700
  3925   002582                     l203:
  3926                           
  3927                           ;ECU_Layer/LED/ecu_Led.c: 53:     {;ECU_Layer/LED/ecu_Led.c: 54:         Pin_Config_t _p
      +                          in_config_ =
  3928   002582  C059  F01E         	movff	Led_Turn_On@F2825,Led_Turn_On@_pin_config_
  3929   002586  C019  FFD9         	movff	Led_Turn_On@Led,fsr2l
  3930   00258A  C01A  FFDA         	movff	Led_Turn_On@Led+1,fsr2h
  3931   00258E  50DF               	movf	223,w,c
  3932   002590  0B07               	andlw	7
  3933   002592  6E1B               	movwf	??_Led_Turn_On^0,c
  3934   002594  501E               	movf	Led_Turn_On@_pin_config_^0,w,c
  3935   002596  181B               	xorwf	??_Led_Turn_On^0,w,c
  3936   002598  0BF8               	andlw	-8
  3937   00259A  181B               	xorwf	??_Led_Turn_On^0,w,c
  3938   00259C  6E1E               	movwf	Led_Turn_On@_pin_config_^0,c
  3939   00259E  C019  FFD9         	movff	Led_Turn_On@Led,fsr2l
  3940   0025A2  C01A  FFDA         	movff	Led_Turn_On@Led+1,fsr2h
  3941   0025A6  30DF               	rrcf	223,w,c
  3942   0025A8  32E8               	rrcf	wreg,f,c
  3943   0025AA  32E8               	rrcf	wreg,f,c
  3944   0025AC  0B07               	andlw	7
  3945   0025AE  6E1B               	movwf	??_Led_Turn_On^0,c
  3946   0025B0  461B               	rlncf	??_Led_Turn_On^0,f,c
  3947   0025B2  461B               	rlncf	??_Led_Turn_On^0,f,c
  3948   0025B4  461B               	rlncf	??_Led_Turn_On^0,f,c
  3949   0025B6  501E               	movf	Led_Turn_On@_pin_config_^0,w,c
  3950   0025B8  181B               	xorwf	??_Led_Turn_On^0,w,c
  3951   0025BA  0BC7               	andlw	-57
  3952   0025BC  181B               	xorwf	??_Led_Turn_On^0,w,c
  3953   0025BE  6E1E               	movwf	Led_Turn_On@_pin_config_^0,c
  3954   0025C0  9C1E               	bcf	Led_Turn_On@_pin_config_^0,6,c
  3955   0025C2  C019  FFD9         	movff	Led_Turn_On@Led,fsr2l
  3956   0025C6  C01A  FFDA         	movff	Led_Turn_On@Led+1,fsr2h
  3957   0025CA  ACDF               	btfss	indf2,6,c
  3958   0025CC  D002               	bra	u4185
  3959   0025CE  8E1E               	bsf	Led_Turn_On@_pin_config_^0,7,c
  3960   0025D0  D001               	bra	u4187
  3961   0025D2                     u4185:
  3962   0025D2  9E1E               	bcf	Led_Turn_On@_pin_config_^0,7,c
  3963   0025D4                     u4187:
  3964   0025D4                     
  3965                           ;ECU_Layer/LED/ecu_Led.c: 61:         ret = GPIO_Pin_Write_Logic(&_pin_config_ ,Logic_Hi
      +                          gh);
  3966   0025D4  0E1E               	movlw	low Led_Turn_On@_pin_config_
  3967   0025D6  6E0E               	movwf	GPIO_Pin_Write_Logic@_Pin_Config_^0,c
  3968   0025D8  0E00               	movlw	high Led_Turn_On@_pin_config_
  3969   0025DA  6E0F               	movwf	(GPIO_Pin_Write_Logic@_Pin_Config_+1)^0,c
  3970   0025DC  0E01               	movlw	1
  3971   0025DE  6E10               	movwf	GPIO_Pin_Write_Logic@Logic^0,c
  3972   0025E0  EC54  F00F         	call	_GPIO_Pin_Write_Logic	;wreg free
  3973   0025E4  C00E  F01C         	movff	?_GPIO_Pin_Write_Logic,Led_Turn_On@ret
  3974   0025E8  C00F  F01D         	movff	?_GPIO_Pin_Write_Logic+1,Led_Turn_On@ret+1
  3975   0025EC                     l5700:
  3976                           
  3977                           ;ECU_Layer/LED/ecu_Led.c: 63:     return ret;
  3978   0025EC  C01C  F019         	movff	Led_Turn_On@ret,?_Led_Turn_On
  3979   0025F0  C01D  F01A         	movff	Led_Turn_On@ret+1,?_Led_Turn_On+1
  3980   0025F4  0012               	return		;funcret
  3981   0025F6                     __end_of_Led_Turn_On:
  3982                           	callstack 0
  3983                           
  3984 ;; *************** function _Led_Turn_Off *****************
  3985 ;; Defined at:
  3986 ;;		line 73 in file "ECU_Layer/LED/ecu_Led.c"
  3987 ;; Parameters:    Size  Location     Type
  3988 ;;  Led             2   24[COMRAM] PTR const struct .
  3989 ;;		 -> led_Air_con(1), led_TV(1), led_Room4(1), led_Room3(1), 
  3990 ;;		 -> led_Room2(1), led_Room1(1), 
  3991 ;; Auto vars:     Size  Location     Type
  3992 ;;  _pin_config_    1   29[COMRAM] struct .
  3993 ;;  ret             2   27[COMRAM] unsigned int 
  3994 ;; Return value:  Size  Location     Type
  3995 ;;                  2   24[COMRAM] unsigned int 
  3996 ;; Registers used:
  3997 ;;		wreg, fsr2l, fsr2h, status,2, status,0, prodl, prodh, cstack
  3998 ;; Tracked objects:
  3999 ;;		On entry : 0/0
  4000 ;;		On exit  : 0/0
  4001 ;;		Unchanged: 0/0
  4002 ;; Data sizes:     COMRAM   BANK0   BANK1   BANK2   BANK3   BANK4   BANK5   BANK6   BANK7   BANK8   BANK9  BANK10  BANK1
      +1  BANK12  BANK13  BANK14  BANK15
  4003 ;;      Params:         2       0       0       0       0       0       0       0       0       0       0       0       
      +0       0       0       0       0
  4004 ;;      Locals:         3       0       0       0       0       0       0       0       0       0       0       0       
      +0       0       0       0       0
  4005 ;;      Temps:          1       0       0       0       0       0       0       0       0       0       0       0       
      +0       0       0       0       0
  4006 ;;      Totals:         6       0       0       0       0       0       0       0       0       0       0       0       
      +0       0       0       0       0
  4007 ;;Total ram usage:        6 bytes
  4008 ;; Hardware stack levels used: 1
  4009 ;; Hardware stack levels required when called: 5
  4010 ;; This function calls:
  4011 ;;		_GPIO_Pin_Write_Logic
  4012 ;; This function is called by:
  4013 ;;		_main
  4014 ;; This function uses a non-reentrant model
  4015 ;;
  4016                           
  4017                           	psect	text18
  4018   0025F6                     __ptext18:
  4019                           	callstack 0
  4020   0025F6                     _Led_Turn_Off:
  4021                           	callstack 25
  4022   0025F6                     
  4023                           ;ECU_Layer/LED/ecu_Led.c: 76:     if(((void*)0) == Led)
  4024   0025F6  5019               	movf	Led_Turn_Off@Led^0,w,c
  4025   0025F8  101A               	iorwf	(Led_Turn_Off@Led+1)^0,w,c
  4026   0025FA  A4D8               	btfss	status,2,c
  4027   0025FC  EF02  F013         	goto	u4191
  4028   002600  EF04  F013         	goto	u4190
  4029   002604                     u4191:
  4030   002604  EF0A  F013         	goto	l210
  4031   002608                     u4190:
  4032   002608                     
  4033                           ;ECU_Layer/LED/ecu_Led.c: 77:     {;ECU_Layer/LED/ecu_Led.c: 78:         ret = (Std_Retu
      +                          rnType)0x00;
  4034   002608  0E00               	movlw	0
  4035   00260A  6E1D               	movwf	(Led_Turn_Off@ret+1)^0,c
  4036   00260C  0E00               	movlw	0
  4037   00260E  6E1C               	movwf	Led_Turn_Off@ret^0,c
  4038                           
  4039                           ;ECU_Layer/LED/ecu_Led.c: 79:     }
  4040   002610  EF3F  F013         	goto	l5718
  4041   002614                     l210:
  4042                           
  4043                           ;ECU_Layer/LED/ecu_Led.c: 81:     {;ECU_Layer/LED/ecu_Led.c: 82:         Pin_Config_t _p
      +                          in_config_ =
  4044   002614  C058  F01E         	movff	Led_Turn_Off@F2830,Led_Turn_Off@_pin_config_
  4045   002618  C019  FFD9         	movff	Led_Turn_Off@Led,fsr2l
  4046   00261C  C01A  FFDA         	movff	Led_Turn_Off@Led+1,fsr2h
  4047   002620  50DF               	movf	223,w,c
  4048   002622  0B07               	andlw	7
  4049   002624  6E1B               	movwf	??_Led_Turn_Off^0,c
  4050   002626  501E               	movf	Led_Turn_Off@_pin_config_^0,w,c
  4051   002628  181B               	xorwf	??_Led_Turn_Off^0,w,c
  4052   00262A  0BF8               	andlw	-8
  4053   00262C  181B               	xorwf	??_Led_Turn_Off^0,w,c
  4054   00262E  6E1E               	movwf	Led_Turn_Off@_pin_config_^0,c
  4055   002630  C019  FFD9         	movff	Led_Turn_Off@Led,fsr2l
  4056   002634  C01A  FFDA         	movff	Led_Turn_Off@Led+1,fsr2h
  4057   002638  30DF               	rrcf	223,w,c
  4058   00263A  32E8               	rrcf	wreg,f,c
  4059   00263C  32E8               	rrcf	wreg,f,c
  4060   00263E  0B07               	andlw	7
  4061   002640  6E1B               	movwf	??_Led_Turn_Off^0,c
  4062   002642  461B               	rlncf	??_Led_Turn_Off^0,f,c
  4063   002644  461B               	rlncf	??_Led_Turn_Off^0,f,c
  4064   002646  461B               	rlncf	??_Led_Turn_Off^0,f,c
  4065   002648  501E               	movf	Led_Turn_Off@_pin_config_^0,w,c
  4066   00264A  181B               	xorwf	??_Led_Turn_Off^0,w,c
  4067   00264C  0BC7               	andlw	-57
  4068   00264E  181B               	xorwf	??_Led_Turn_Off^0,w,c
  4069   002650  6E1E               	movwf	Led_Turn_Off@_pin_config_^0,c
  4070   002652  9C1E               	bcf	Led_Turn_Off@_pin_config_^0,6,c
  4071   002654  C019  FFD9         	movff	Led_Turn_Off@Led,fsr2l
  4072   002658  C01A  FFDA         	movff	Led_Turn_Off@Led+1,fsr2h
  4073   00265C  ACDF               	btfss	indf2,6,c
  4074   00265E  D002               	bra	u4205
  4075   002660  8E1E               	bsf	Led_Turn_Off@_pin_config_^0,7,c
  4076   002662  D001               	bra	u4207
  4077   002664                     u4205:
  4078   002664  9E1E               	bcf	Led_Turn_Off@_pin_config_^0,7,c
  4079   002666                     u4207:
  4080   002666                     
  4081                           ;ECU_Layer/LED/ecu_Led.c: 89:         ret = GPIO_Pin_Write_Logic(&_pin_config_ ,Logic_Lo
      +                          w);
  4082   002666  0E1E               	movlw	low Led_Turn_Off@_pin_config_
  4083   002668  6E0E               	movwf	GPIO_Pin_Write_Logic@_Pin_Config_^0,c
  4084   00266A  0E00               	movlw	high Led_Turn_Off@_pin_config_
  4085   00266C  6E0F               	movwf	(GPIO_Pin_Write_Logic@_Pin_Config_+1)^0,c
  4086   00266E  0E00               	movlw	0
  4087   002670  6E10               	movwf	GPIO_Pin_Write_Logic@Logic^0,c
  4088   002672  EC54  F00F         	call	_GPIO_Pin_Write_Logic	;wreg free
  4089   002676  C00E  F01C         	movff	?_GPIO_Pin_Write_Logic,Led_Turn_Off@ret
  4090   00267A  C00F  F01D         	movff	?_GPIO_Pin_Write_Logic+1,Led_Turn_Off@ret+1
  4091   00267E                     l5718:
  4092                           
  4093                           ;ECU_Layer/LED/ecu_Led.c: 91:     return ret;
  4094   00267E  C01C  F019         	movff	Led_Turn_Off@ret,?_Led_Turn_Off
  4095   002682  C01D  F01A         	movff	Led_Turn_Off@ret+1,?_Led_Turn_Off+1
  4096   002686  0012               	return		;funcret
  4097   002688                     __end_of_Led_Turn_Off:
  4098                           	callstack 0
  4099                           
  4100 ;; *************** function _GPIO_Pin_Write_Logic *****************
  4101 ;; Defined at:
  4102 ;;		line 75 in file "MCAL_Layer/GPIO/hal_GPIO.c"
  4103 ;; Parameters:    Size  Location     Type
  4104 ;;  _Pin_Config_    2   13[COMRAM] PTR const struct .
  4105 ;;		 -> lcd1.data_pin(4), lcd1(6), key_pad1.Key_Pad_Coulmns(4), key_pad1.Key_Pad_Rows(4), 
  4106 ;;		 -> key_pad1(8), Relay_Turn_Off@_pin_config(1), Relay_Turn_On@_pin_config(1), Relay_Intialize@_pin_config(1), 
  4107 ;;		 -> Led_Turn_Off@_pin_config_(1), Led_Turn_On@_pin_config_(1), Led_Intialize@_pin_config_(1), 
  4108 ;;  Logic           1   15[COMRAM] enum E2744
  4109 ;; Auto vars:     Size  Location     Type
  4110 ;;  ret             2   22[COMRAM] unsigned int 
  4111 ;; Return value:  Size  Location     Type
  4112 ;;                  2   13[COMRAM] unsigned int 
  4113 ;; Registers used:
  4114 ;;		wreg, fsr2l, fsr2h, status,2, status,0, prodl, prodh
  4115 ;; Tracked objects:
  4116 ;;		On entry : 0/0
  4117 ;;		On exit  : 0/0
  4118 ;;		Unchanged: 0/0
  4119 ;; Data sizes:     COMRAM   BANK0   BANK1   BANK2   BANK3   BANK4   BANK5   BANK6   BANK7   BANK8   BANK9  BANK10  BANK1
      +1  BANK12  BANK13  BANK14  BANK15
  4120 ;;      Params:         3       0       0       0       0       0       0       0       0       0       0       0       
      +0       0       0       0       0
  4121 ;;      Locals:         2       0       0       0       0       0       0       0       0       0       0       0       
      +0       0       0       0       0
  4122 ;;      Temps:          6       0       0       0       0       0       0       0       0       0       0       0       
      +0       0       0       0       0
  4123 ;;      Totals:        11       0       0       0       0       0       0       0       0       0       0       0       
      +0       0       0       0       0
  4124 ;;Total ram usage:       11 bytes
  4125 ;; Hardware stack levels used: 1
  4126 ;; Hardware stack levels required when called: 4
  4127 ;; This function calls:
  4128 ;;		Nothing
  4129 ;; This function is called by:
  4130 ;;		_Led_Turn_On
  4131 ;;		_Led_Turn_Off
  4132 ;;		_GPIO_Pin_Intialize
  4133 ;;		_lcd_send_command
  4134 ;;		_lcd_send_char_data
  4135 ;;		_lcd_send_4_bit_data
  4136 ;;		_lcd_send_enable
  4137 ;;		_Dc_Motor_Turn_Right
  4138 ;;		_Dc_Motor_Turn_Left
  4139 ;;		_Dc_Motor_Stop
  4140 ;;		_Key_Pad_Get_Value
  4141 ;;		_Relay_Turn_On
  4142 ;;		_Relay_Turn_Off
  4143 ;;		_Segment_Write_Number
  4144 ;; This function uses a non-reentrant model
  4145 ;;
  4146                           
  4147                           	psect	text19
  4148   001EA8                     __ptext19:
  4149                           	callstack 0
  4150   001EA8                     _GPIO_Pin_Write_Logic:
  4151                           	callstack 23
  4152   001EA8                     
  4153                           ;MCAL_Layer/GPIO/hal_GPIO.c: 75: Std_ReturnType GPIO_Pin_Write_Logic(const Pin_Config_t 
      +                          *_Pin_Config_ ,Logic_t Logic);MCAL_Layer/GPIO/hal_GPIO.c: 76: {;MCAL_Layer/GPIO/hal_GPIO
      +                          .c: 77:         Std_ReturnType ret = (Std_ReturnType)0x00;
  4154   001EA8  0E00               	movlw	0
  4155   001EAA  6E18               	movwf	(GPIO_Pin_Write_Logic@ret+1)^0,c
  4156   001EAC  0E00               	movlw	0
  4157   001EAE  6E17               	movwf	GPIO_Pin_Write_Logic@ret^0,c
  4158   001EB0                     
  4159                           ;MCAL_Layer/GPIO/hal_GPIO.c: 78:     if(_Pin_Config_ == ((void*)0) || _Pin_Config_-> pin
      +                           > (uint8)8 -1)
  4160   001EB0  500E               	movf	GPIO_Pin_Write_Logic@_Pin_Config_^0,w,c
  4161   001EB2  100F               	iorwf	(GPIO_Pin_Write_Logic@_Pin_Config_+1)^0,w,c
  4162   001EB4  B4D8               	btfsc	status,2,c
  4163   001EB6  EF5F  F00F         	goto	u3781
  4164   001EBA  EF61  F00F         	goto	u3780
  4165   001EBE                     u3781:
  4166   001EBE  EF72  F00F         	goto	l5316
  4167   001EC2                     u3780:
  4168   001EC2  C00E  FFD9         	movff	GPIO_Pin_Write_Logic@_Pin_Config_,fsr2l
  4169   001EC6  C00F  FFDA         	movff	GPIO_Pin_Write_Logic@_Pin_Config_+1,fsr2h
  4170   001ECA  30DF               	rrcf	223,w,c
  4171   001ECC  32E8               	rrcf	wreg,f,c
  4172   001ECE  32E8               	rrcf	wreg,f,c
  4173   001ED0  0B07               	andlw	7
  4174   001ED2  6E11               	movwf	??_GPIO_Pin_Write_Logic^0,c
  4175   001ED4  0E07               	movlw	7
  4176   001ED6  6411               	cpfsgt	??_GPIO_Pin_Write_Logic^0,c
  4177   001ED8  EF70  F00F         	goto	u3791
  4178   001EDC  EF72  F00F         	goto	u3790
  4179   001EE0                     u3791:
  4180   001EE0  EFDD  F00F         	goto	l5324
  4181   001EE4                     u3790:
  4182   001EE4                     l5316:
  4183                           
  4184                           ;MCAL_Layer/GPIO/hal_GPIO.c: 79:     {;MCAL_Layer/GPIO/hal_GPIO.c: 80:         ret = (St
      +                          d_ReturnType)0x01 ;
  4185   001EE4  0E00               	movlw	0
  4186   001EE6  6E18               	movwf	(GPIO_Pin_Write_Logic@ret+1)^0,c
  4187   001EE8  0E01               	movlw	1
  4188   001EEA  6E17               	movwf	GPIO_Pin_Write_Logic@ret^0,c
  4189                           
  4190                           ;MCAL_Layer/GPIO/hal_GPIO.c: 81:     }
  4191   001EEC  EFF2  F00F         	goto	l705
  4192   001EF0                     l5318:
  4193                           
  4194                           ;MCAL_Layer/GPIO/hal_GPIO.c: 87:                 (*Lat_Reg[_Pin_Config_->port]&= ~((uint
      +                          8)1 <<_Pin_Config_->pin));
  4195   001EF0  C00E  FFD9         	movff	GPIO_Pin_Write_Logic@_Pin_Config_,fsr2l
  4196   001EF4  C00F  FFDA         	movff	GPIO_Pin_Write_Logic@_Pin_Config_+1,fsr2h
  4197   001EF8  30DF               	rrcf	223,w,c
  4198   001EFA  32E8               	rrcf	wreg,f,c
  4199   001EFC  32E8               	rrcf	wreg,f,c
  4200   001EFE  0B07               	andlw	7
  4201   001F00  6E11               	movwf	??_GPIO_Pin_Write_Logic^0,c
  4202   001F02  0E01               	movlw	1
  4203   001F04  6E12               	movwf	(??_GPIO_Pin_Write_Logic+1)^0,c
  4204   001F06  2A11               	incf	??_GPIO_Pin_Write_Logic^0,f,c
  4205   001F08  EF88  F00F         	goto	u3804
  4206   001F0C                     u3805:
  4207   001F0C  90D8               	bcf	status,0,c
  4208   001F0E  3612               	rlcf	(??_GPIO_Pin_Write_Logic+1)^0,f,c
  4209   001F10                     u3804:
  4210   001F10  2E11               	decfsz	??_GPIO_Pin_Write_Logic^0,f,c
  4211   001F12  EF86  F00F         	goto	u3805
  4212   001F16  5012               	movf	(??_GPIO_Pin_Write_Logic+1)^0,w,c
  4213   001F18  0AFF               	xorlw	255
  4214   001F1A  6E13               	movwf	(??_GPIO_Pin_Write_Logic+2)^0,c
  4215   001F1C  C00E  FFD9         	movff	GPIO_Pin_Write_Logic@_Pin_Config_,fsr2l
  4216   001F20  C00F  FFDA         	movff	GPIO_Pin_Write_Logic@_Pin_Config_+1,fsr2h
  4217   001F24  50DF               	movf	223,w,c
  4218   001F26  0B07               	andlw	7
  4219   001F28  6E14               	movwf	(??_GPIO_Pin_Write_Logic+3)^0,c
  4220   001F2A  5014               	movf	(??_GPIO_Pin_Write_Logic+3)^0,w,c
  4221   001F2C  0D02               	mullw	2
  4222   001F2E  0EBF               	movlw	low _Lat_Reg
  4223   001F30  24F3               	addwf	243,w,c
  4224   001F32  6ED9               	movwf	fsr2l,c
  4225   001F34  0E00               	movlw	high _Lat_Reg
  4226   001F36  20F4               	addwfc	prodh,w,c
  4227   001F38  6EDA               	movwf	fsr2h,c
  4228   001F3A  CFDE F015          	movff	postinc2,??_GPIO_Pin_Write_Logic+4
  4229   001F3E  CFDD F016          	movff	postdec2,??_GPIO_Pin_Write_Logic+5
  4230   001F42  C015  FFD9         	movff	??_GPIO_Pin_Write_Logic+4,fsr2l
  4231   001F46  C016  FFDA         	movff	??_GPIO_Pin_Write_Logic+5,fsr2h
  4232   001F4A  5013               	movf	(??_GPIO_Pin_Write_Logic+2)^0,w,c
  4233   001F4C  16DF               	andwf	indf2,f,c
  4234                           
  4235                           ;MCAL_Layer/GPIO/hal_GPIO.c: 88:                 break;
  4236   001F4E  EFF2  F00F         	goto	l705
  4237   001F52                     l5320:
  4238                           
  4239                           ;MCAL_Layer/GPIO/hal_GPIO.c: 90:                 (*Lat_Reg[_Pin_Config_->port]|=((uint8)
      +                          1 <<_Pin_Config_->pin));
  4240   001F52  C00E  FFD9         	movff	GPIO_Pin_Write_Logic@_Pin_Config_,fsr2l
  4241   001F56  C00F  FFDA         	movff	GPIO_Pin_Write_Logic@_Pin_Config_+1,fsr2h
  4242   001F5A  30DF               	rrcf	223,w,c
  4243   001F5C  32E8               	rrcf	wreg,f,c
  4244   001F5E  32E8               	rrcf	wreg,f,c
  4245   001F60  0B07               	andlw	7
  4246   001F62  6E11               	movwf	??_GPIO_Pin_Write_Logic^0,c
  4247   001F64  0E01               	movlw	1
  4248   001F66  6E12               	movwf	(??_GPIO_Pin_Write_Logic+1)^0,c
  4249   001F68  2A11               	incf	??_GPIO_Pin_Write_Logic^0,f,c
  4250   001F6A  EFB9  F00F         	goto	u3814
  4251   001F6E                     u3815:
  4252   001F6E  90D8               	bcf	status,0,c
  4253   001F70  3612               	rlcf	(??_GPIO_Pin_Write_Logic+1)^0,f,c
  4254   001F72                     u3814:
  4255   001F72  2E11               	decfsz	??_GPIO_Pin_Write_Logic^0,f,c
  4256   001F74  EFB7  F00F         	goto	u3815
  4257   001F78  C00E  FFD9         	movff	GPIO_Pin_Write_Logic@_Pin_Config_,fsr2l
  4258   001F7C  C00F  FFDA         	movff	GPIO_Pin_Write_Logic@_Pin_Config_+1,fsr2h
  4259   001F80  50DF               	movf	223,w,c
  4260   001F82  0B07               	andlw	7
  4261   001F84  6E13               	movwf	(??_GPIO_Pin_Write_Logic+2)^0,c
  4262   001F86  5013               	movf	(??_GPIO_Pin_Write_Logic+2)^0,w,c
  4263   001F88  0D02               	mullw	2
  4264   001F8A  0EBF               	movlw	low _Lat_Reg
  4265   001F8C  24F3               	addwf	243,w,c
  4266   001F8E  6ED9               	movwf	fsr2l,c
  4267   001F90  0E00               	movlw	high _Lat_Reg
  4268   001F92  20F4               	addwfc	prodh,w,c
  4269   001F94  6EDA               	movwf	fsr2h,c
  4270   001F96  CFDE F014          	movff	postinc2,??_GPIO_Pin_Write_Logic+3
  4271   001F9A  CFDD F015          	movff	postdec2,??_GPIO_Pin_Write_Logic+4
  4272   001F9E  C014  FFD9         	movff	??_GPIO_Pin_Write_Logic+3,fsr2l
  4273   001FA2  C015  FFDA         	movff	??_GPIO_Pin_Write_Logic+4,fsr2h
  4274   001FA6  5012               	movf	(??_GPIO_Pin_Write_Logic+1)^0,w,c
  4275   001FA8  12DF               	iorwf	indf2,f,c
  4276                           
  4277                           ;MCAL_Layer/GPIO/hal_GPIO.c: 91:                 break;
  4278   001FAA  EFF2  F00F         	goto	l705
  4279   001FAE                     l5322:
  4280   001FAE  0E00               	movlw	0
  4281   001FB0  6E18               	movwf	(GPIO_Pin_Write_Logic@ret+1)^0,c
  4282   001FB2  0E00               	movlw	0
  4283   001FB4  6E17               	movwf	GPIO_Pin_Write_Logic@ret^0,c
  4284                           
  4285                           ;MCAL_Layer/GPIO/hal_GPIO.c: 93:         }
  4286   001FB6  EFF2  F00F         	goto	l705
  4287   001FBA                     l5324:
  4288   001FBA  5010               	movf	GPIO_Pin_Write_Logic@Logic^0,w,c
  4289   001FBC  6E11               	movwf	??_GPIO_Pin_Write_Logic^0,c
  4290   001FBE  6A12               	clrf	(??_GPIO_Pin_Write_Logic+1)^0,c
  4291                           
  4292                           ; Switch on 2 bytes has been partitioned into a top level switch of size 1, and 1 sub-sw
      +                          itches
  4293                           ; Switch size 1, requested type "simple"
  4294                           ; Number of cases is 1, Range of values is 0 to 0
  4295                           ; switch strategies available:
  4296                           ; Name         Instructions Cycles
  4297                           ; simple_byte            4     3 (average)
  4298                           ;	Chosen strategy is simple_byte
  4299   001FC0  5012               	movf	(??_GPIO_Pin_Write_Logic+1)^0,w,c
  4300   001FC2  0A00               	xorlw	0	; case 0
  4301   001FC4  B4D8               	btfsc	status,2,c
  4302   001FC6  EFE7  F00F         	goto	l7726
  4303   001FCA  EFD7  F00F         	goto	l5322
  4304   001FCE                     l7726:
  4305                           
  4306                           ; Switch size 1, requested type "simple"
  4307                           ; Number of cases is 2, Range of values is 0 to 1
  4308                           ; switch strategies available:
  4309                           ; Name         Instructions Cycles
  4310                           ; simple_byte            7     4 (average)
  4311                           ;	Chosen strategy is simple_byte
  4312   001FCE  5011               	movf	??_GPIO_Pin_Write_Logic^0,w,c
  4313   001FD0  0A00               	xorlw	0	; case 0
  4314   001FD2  B4D8               	btfsc	status,2,c
  4315   001FD4  EF78  F00F         	goto	l5318
  4316   001FD8  0A01               	xorlw	1	; case 1
  4317   001FDA  B4D8               	btfsc	status,2,c
  4318   001FDC  EFA9  F00F         	goto	l5320
  4319   001FE0  EFD7  F00F         	goto	l5322
  4320   001FE4                     l705:
  4321                           
  4322                           ;MCAL_Layer/GPIO/hal_GPIO.c: 95:     return ret;
  4323   001FE4  C017  F00E         	movff	GPIO_Pin_Write_Logic@ret,?_GPIO_Pin_Write_Logic
  4324   001FE8  C018  F00F         	movff	GPIO_Pin_Write_Logic@ret+1,?_GPIO_Pin_Write_Logic+1
  4325   001FEC  0012               	return		;funcret
  4326   001FEE                     __end_of_GPIO_Pin_Write_Logic:
  4327                           	callstack 0
  4328                           
  4329 ;; *************** function _ADC_Start_Conversion_Interrupt_Mode *****************
  4330 ;; Defined at:
  4331 ;;		line 258 in file "MCAL_Layer/MCAL_ADC/mcal_adc.c"
  4332 ;; Parameters:    Size  Location     Type
  4333 ;;  adc_            2   22[COMRAM] PTR const struct .
  4334 ;;		 -> adc_1(6), 
  4335 ;;  channel         1   24[COMRAM] enum E2806
  4336 ;; Auto vars:     Size  Location     Type
  4337 ;;  ret             2   25[COMRAM] unsigned int 
  4338 ;; Return value:  Size  Location     Type
  4339 ;;                  2   22[COMRAM] unsigned int 
  4340 ;; Registers used:
  4341 ;;		wreg, fsr2l, fsr2h, status,2, status,0, cstack
  4342 ;; Tracked objects:
  4343 ;;		On entry : 0/0
  4344 ;;		On exit  : 0/0
  4345 ;;		Unchanged: 0/0
  4346 ;; Data sizes:     COMRAM   BANK0   BANK1   BANK2   BANK3   BANK4   BANK5   BANK6   BANK7   BANK8   BANK9  BANK10  BANK1
      +1  BANK12  BANK13  BANK14  BANK15
  4347 ;;      Params:         3       0       0       0       0       0       0       0       0       0       0       0       
      +0       0       0       0       0
  4348 ;;      Locals:         2       0       0       0       0       0       0       0       0       0       0       0       
      +0       0       0       0       0
  4349 ;;      Temps:          0       0       0       0       0       0       0       0       0       0       0       0       
      +0       0       0       0       0
  4350 ;;      Totals:         5       0       0       0       0       0       0       0       0       0       0       0       
      +0       0       0       0       0
  4351 ;;Total ram usage:        5 bytes
  4352 ;; Hardware stack levels used: 1
  4353 ;; Hardware stack levels required when called: 6
  4354 ;; This function calls:
  4355 ;;		_ADC_Channel_Selection
  4356 ;;		_ADC_Start_Conversion
  4357 ;; This function is called by:
  4358 ;;		_main
  4359 ;; This function uses a non-reentrant model
  4360 ;;
  4361                           
  4362                           	psect	text20
  4363   002908                     __ptext20:
  4364                           	callstack 0
  4365   002908                     _ADC_Start_Conversion_Interrupt_Mode:
  4366                           	callstack 24
  4367   002908                     
  4368                           ;MCAL_Layer/MCAL_ADC/mcal_adc.c: 261:     if(((void*)0) == adc_ )
  4369   002908  5017               	movf	ADC_Start_Conversion_Interrupt_Mode@adc_^0,w,c
  4370   00290A  1018               	iorwf	(ADC_Start_Conversion_Interrupt_Mode@adc_+1)^0,w,c
  4371   00290C  A4D8               	btfss	status,2,c
  4372   00290E  EF8B  F014         	goto	u4211
  4373   002912  EF8D  F014         	goto	u4210
  4374   002916                     u4211:
  4375   002916  EF93  F014         	goto	l5728
  4376   00291A                     u4210:
  4377   00291A                     
  4378                           ;MCAL_Layer/MCAL_ADC/mcal_adc.c: 262:     {;MCAL_Layer/MCAL_ADC/mcal_adc.c: 263:        
      +                           ret = (Std_ReturnType)0x00;
  4379   00291A  0E00               	movlw	0
  4380   00291C  6E1B               	movwf	(ADC_Start_Conversion_Interrupt_Mode@ret+1)^0,c
  4381   00291E  0E00               	movlw	0
  4382   002920  6E1A               	movwf	ADC_Start_Conversion_Interrupt_Mode@ret^0,c
  4383                           
  4384                           ;MCAL_Layer/MCAL_ADC/mcal_adc.c: 264:     }
  4385   002922  EFA5  F014         	goto	l5732
  4386   002926                     l5728:
  4387   002926  C017  F011         	movff	ADC_Start_Conversion_Interrupt_Mode@adc_,ADC_Channel_Selection@adc_
  4388   00292A  C018  F012         	movff	ADC_Start_Conversion_Interrupt_Mode@adc_+1,ADC_Channel_Selection@adc_+1
  4389   00292E  C019  F013         	movff	ADC_Start_Conversion_Interrupt_Mode@channel,ADC_Channel_Selection@channel
  4390   002932  EC5A  F014         	call	_ADC_Channel_Selection	;wreg free
  4391   002936                     
  4392                           ;MCAL_Layer/MCAL_ADC/mcal_adc.c: 270:         ret =ADC_Start_Conversion(adc_);
  4393   002936  C017  F00E         	movff	ADC_Start_Conversion_Interrupt_Mode@adc_,ADC_Start_Conversion@adc_
  4394   00293A  C018  F00F         	movff	ADC_Start_Conversion_Interrupt_Mode@adc_+1,ADC_Start_Conversion@adc_+1
  4395   00293E  EC24  F015         	call	_ADC_Start_Conversion	;wreg free
  4396   002942  C00E  F01A         	movff	?_ADC_Start_Conversion,ADC_Start_Conversion_Interrupt_Mode@ret
  4397   002946  C00F  F01B         	movff	?_ADC_Start_Conversion+1,ADC_Start_Conversion_Interrupt_Mode@ret+1
  4398   00294A                     l5732:
  4399                           
  4400                           ;MCAL_Layer/MCAL_ADC/mcal_adc.c: 272:     return ret;
  4401   00294A  C01A  F017         	movff	ADC_Start_Conversion_Interrupt_Mode@ret,?_ADC_Start_Conversion_Interrupt_Mode
  4402   00294E  C01B  F018         	movff	ADC_Start_Conversion_Interrupt_Mode@ret+1,?_ADC_Start_Conversion_Interrupt_Mode+1
  4403   002952  0012               	return		;funcret
  4404   002954                     __end_of_ADC_Start_Conversion_Interrupt_Mode:
  4405                           	callstack 0
  4406                           
  4407 ;; *************** function _ADC_Start_Conversion *****************
  4408 ;; Defined at:
  4409 ;;		line 147 in file "MCAL_Layer/MCAL_ADC/mcal_adc.c"
  4410 ;; Parameters:    Size  Location     Type
  4411 ;;  adc_            2   13[COMRAM] PTR const struct .
  4412 ;;		 -> adc_1(6), 
  4413 ;; Auto vars:     Size  Location     Type
  4414 ;;  ret             2   15[COMRAM] unsigned int 
  4415 ;; Return value:  Size  Location     Type
  4416 ;;                  2   13[COMRAM] unsigned int 
  4417 ;; Registers used:
  4418 ;;		wreg, status,2, status,0
  4419 ;; Tracked objects:
  4420 ;;		On entry : 0/0
  4421 ;;		On exit  : 0/0
  4422 ;;		Unchanged: 0/0
  4423 ;; Data sizes:     COMRAM   BANK0   BANK1   BANK2   BANK3   BANK4   BANK5   BANK6   BANK7   BANK8   BANK9  BANK10  BANK1
      +1  BANK12  BANK13  BANK14  BANK15
  4424 ;;      Params:         2       0       0       0       0       0       0       0       0       0       0       0       
      +0       0       0       0       0
  4425 ;;      Locals:         2       0       0       0       0       0       0       0       0       0       0       0       
      +0       0       0       0       0
  4426 ;;      Temps:          0       0       0       0       0       0       0       0       0       0       0       0       
      +0       0       0       0       0
  4427 ;;      Totals:         4       0       0       0       0       0       0       0       0       0       0       0       
      +0       0       0       0       0
  4428 ;;Total ram usage:        4 bytes
  4429 ;; Hardware stack levels used: 1
  4430 ;; Hardware stack levels required when called: 4
  4431 ;; This function calls:
  4432 ;;		Nothing
  4433 ;; This function is called by:
  4434 ;;		_ADC_Start_Conversion_Interrupt_Mode
  4435 ;;		_ADC_Get_Conversion_Blocking_Mode
  4436 ;; This function uses a non-reentrant model
  4437 ;;
  4438                           
  4439                           	psect	text21
  4440   002A48                     __ptext21:
  4441                           	callstack 0
  4442   002A48                     _ADC_Start_Conversion:
  4443                           	callstack 25
  4444   002A48                     
  4445                           ;MCAL_Layer/MCAL_ADC/mcal_adc.c: 147: Std_ReturnType ADC_Start_Conversion(const ADC_Conf
      +                          _t *adc_);MCAL_Layer/MCAL_ADC/mcal_adc.c: 148: {;MCAL_Layer/MCAL_ADC/mcal_adc.c: 149:   
      +                           Std_ReturnType ret = (Std_ReturnType)0x01 ;
  4446   002A48  0E00               	movlw	0
  4447   002A4A  6E11               	movwf	(ADC_Start_Conversion@ret+1)^0,c
  4448   002A4C  0E01               	movlw	1
  4449   002A4E  6E10               	movwf	ADC_Start_Conversion@ret^0,c
  4450   002A50                     
  4451                           ;MCAL_Layer/MCAL_ADC/mcal_adc.c: 150:     if(((void*)0) == adc_ )
  4452   002A50  500E               	movf	ADC_Start_Conversion@adc_^0,w,c
  4453   002A52  100F               	iorwf	(ADC_Start_Conversion@adc_+1)^0,w,c
  4454   002A54  A4D8               	btfss	status,2,c
  4455   002A56  EF2F  F015         	goto	u4011
  4456   002A5A  EF31  F015         	goto	u4010
  4457   002A5E                     u4011:
  4458   002A5E  EF37  F015         	goto	l329
  4459   002A62                     u4010:
  4460   002A62                     
  4461                           ;MCAL_Layer/MCAL_ADC/mcal_adc.c: 151:     {;MCAL_Layer/MCAL_ADC/mcal_adc.c: 152:        
      +                           ret = (Std_ReturnType)0x00;
  4462   002A62  0E00               	movlw	0
  4463   002A64  6E11               	movwf	(ADC_Start_Conversion@ret+1)^0,c
  4464   002A66  0E00               	movlw	0
  4465   002A68  6E10               	movwf	ADC_Start_Conversion@ret^0,c
  4466                           
  4467                           ;MCAL_Layer/MCAL_ADC/mcal_adc.c: 153:     }
  4468   002A6A  EF38  F015         	goto	l330
  4469   002A6E                     l329:
  4470                           
  4471                           ;MCAL_Layer/MCAL_ADC/mcal_adc.c: 155:     {;MCAL_Layer/MCAL_ADC/mcal_adc.c: 156:        
      +                           (ADCON0bits.GODONE = 1);
  4472   002A6E  82C2               	bsf	194,1,c	;volatile
  4473   002A70                     l330:
  4474                           
  4475                           ;MCAL_Layer/MCAL_ADC/mcal_adc.c: 158:     return ret;
  4476   002A70  C010  F00E         	movff	ADC_Start_Conversion@ret,?_ADC_Start_Conversion
  4477   002A74  C011  F00F         	movff	ADC_Start_Conversion@ret+1,?_ADC_Start_Conversion+1
  4478   002A78  0012               	return		;funcret
  4479   002A7A                     __end_of_ADC_Start_Conversion:
  4480                           	callstack 0
  4481                           
  4482 ;; *************** function _ADC_Channel_Selection *****************
  4483 ;; Defined at:
  4484 ;;		line 124 in file "MCAL_Layer/MCAL_ADC/mcal_adc.c"
  4485 ;; Parameters:    Size  Location     Type
  4486 ;;  adc_            2   16[COMRAM] PTR const struct .
  4487 ;;		 -> adc_1(6), 
  4488 ;;  channel         1   18[COMRAM] enum E2806
  4489 ;; Auto vars:     Size  Location     Type
  4490 ;;  ret             2   20[COMRAM] unsigned int 
  4491 ;; Return value:  Size  Location     Type
  4492 ;;                  2   16[COMRAM] unsigned int 
  4493 ;; Registers used:
  4494 ;;		wreg, fsr2l, fsr2h, status,2, status,0, cstack
  4495 ;; Tracked objects:
  4496 ;;		On entry : 0/0
  4497 ;;		On exit  : 0/0
  4498 ;;		Unchanged: 0/0
  4499 ;; Data sizes:     COMRAM   BANK0   BANK1   BANK2   BANK3   BANK4   BANK5   BANK6   BANK7   BANK8   BANK9  BANK10  BANK1
      +1  BANK12  BANK13  BANK14  BANK15
  4500 ;;      Params:         3       0       0       0       0       0       0       0       0       0       0       0       
      +0       0       0       0       0
  4501 ;;      Locals:         2       0       0       0       0       0       0       0       0       0       0       0       
      +0       0       0       0       0
  4502 ;;      Temps:          1       0       0       0       0       0       0       0       0       0       0       0       
      +0       0       0       0       0
  4503 ;;      Totals:         6       0       0       0       0       0       0       0       0       0       0       0       
      +0       0       0       0       0
  4504 ;;Total ram usage:        6 bytes
  4505 ;; Hardware stack levels used: 1
  4506 ;; Hardware stack levels required when called: 5
  4507 ;; This function calls:
  4508 ;;		_ADC_Set_Channel_As_Inbut
  4509 ;; This function is called by:
  4510 ;;		_ADC_Start_Conversion_Interrupt_Mode
  4511 ;;		_ADC_Get_Conversion_Blocking_Mode
  4512 ;; This function uses a non-reentrant model
  4513 ;;
  4514                           
  4515                           	psect	text22
  4516   0028B4                     __ptext22:
  4517                           	callstack 0
  4518   0028B4                     _ADC_Channel_Selection:
  4519                           	callstack 24
  4520   0028B4                     
  4521                           ;MCAL_Layer/MCAL_ADC/mcal_adc.c: 124: Std_ReturnType ADC_Channel_Selection(const ADC_Con
      +                          f_t *adc_,ADC_Channel_Selection_t channel);MCAL_Layer/MCAL_ADC/mcal_adc.c: 125: {;MCAL_L
      +                          ayer/MCAL_ADC/mcal_adc.c: 126:    Std_ReturnType ret = (Std_ReturnType)0x01 ;
  4522   0028B4  0E00               	movlw	0
  4523   0028B6  6E16               	movwf	(ADC_Channel_Selection@ret+1)^0,c
  4524   0028B8  0E01               	movlw	1
  4525   0028BA  6E15               	movwf	ADC_Channel_Selection@ret^0,c
  4526   0028BC                     
  4527                           ;MCAL_Layer/MCAL_ADC/mcal_adc.c: 127:     if(((void*)0) == adc_ )
  4528   0028BC  5011               	movf	ADC_Channel_Selection@adc_^0,w,c
  4529   0028BE  1012               	iorwf	(ADC_Channel_Selection@adc_+1)^0,w,c
  4530   0028C0  A4D8               	btfss	status,2,c
  4531   0028C2  EF65  F014         	goto	u4001
  4532   0028C6  EF67  F014         	goto	u4000
  4533   0028CA                     u4001:
  4534   0028CA  EF6D  F014         	goto	l5544
  4535   0028CE                     u4000:
  4536   0028CE                     
  4537                           ;MCAL_Layer/MCAL_ADC/mcal_adc.c: 128:     {;MCAL_Layer/MCAL_ADC/mcal_adc.c: 129:        
      +                           ret = (Std_ReturnType)0x00;
  4538   0028CE  0E00               	movlw	0
  4539   0028D0  6E16               	movwf	(ADC_Channel_Selection@ret+1)^0,c
  4540   0028D2  0E00               	movlw	0
  4541   0028D4  6E15               	movwf	ADC_Channel_Selection@ret^0,c
  4542                           
  4543                           ;MCAL_Layer/MCAL_ADC/mcal_adc.c: 130:     }
  4544   0028D6  EF7F  F014         	goto	l5548
  4545   0028DA                     l5544:
  4546                           
  4547                           ;MCAL_Layer/MCAL_ADC/mcal_adc.c: 132:     {;MCAL_Layer/MCAL_ADC/mcal_adc.c: 133:        
      +                           ADCON0bits.CHS = channel;
  4548   0028DA  C013  F014         	movff	ADC_Channel_Selection@channel,??_ADC_Channel_Selection
  4549   0028DE  4614               	rlncf	??_ADC_Channel_Selection^0,f,c
  4550   0028E0  4614               	rlncf	??_ADC_Channel_Selection^0,f,c
  4551   0028E2  50C2               	movf	194,w,c	;volatile
  4552   0028E4  1814               	xorwf	??_ADC_Channel_Selection^0,w,c
  4553   0028E6  0BC3               	andlw	-61
  4554   0028E8  1814               	xorwf	??_ADC_Channel_Selection^0,w,c
  4555   0028EA  6EC2               	movwf	194,c	;volatile
  4556   0028EC                     
  4557                           ;MCAL_Layer/MCAL_ADC/mcal_adc.c: 134:         ADC_Set_Channel_As_Inbut(adc_->ADC_Channel
      +                          );
  4558   0028EC  EE20 F002          	lfsr	2,2
  4559   0028F0  5011               	movf	ADC_Channel_Selection@adc_^0,w,c
  4560   0028F2  26D9               	addwf	fsr2l,f,c
  4561   0028F4  5012               	movf	(ADC_Channel_Selection@adc_+1)^0,w,c
  4562   0028F6  22DA               	addwfc	fsr2h,f,c
  4563   0028F8  50DF               	movf	indf2,w,c
  4564   0028FA  EC91  F011         	call	_ADC_Set_Channel_As_Inbut
  4565   0028FE                     l5548:
  4566                           
  4567                           ;MCAL_Layer/MCAL_ADC/mcal_adc.c: 136:     return ret;
  4568   0028FE  C015  F011         	movff	ADC_Channel_Selection@ret,?_ADC_Channel_Selection
  4569   002902  C016  F012         	movff	ADC_Channel_Selection@ret+1,?_ADC_Channel_Selection+1
  4570   002906  0012               	return		;funcret
  4571   002908                     __end_of_ADC_Channel_Selection:
  4572                           	callstack 0
  4573                           
  4574 ;; *************** function _ADC_Set_Channel_As_Inbut *****************
  4575 ;; Defined at:
  4576 ;;		line 274 in file "MCAL_Layer/MCAL_ADC/mcal_adc.c"
  4577 ;; Parameters:    Size  Location     Type
  4578 ;;  channel         1    wreg     enum E2806
  4579 ;; Auto vars:     Size  Location     Type
  4580 ;;  channel         1   15[COMRAM] enum E2806
  4581 ;; Return value:  Size  Location     Type
  4582 ;;                  1    wreg      void 
  4583 ;; Registers used:
  4584 ;;		wreg, status,2, status,0
  4585 ;; Tracked objects:
  4586 ;;		On entry : 0/0
  4587 ;;		On exit  : 0/0
  4588 ;;		Unchanged: 0/0
  4589 ;; Data sizes:     COMRAM   BANK0   BANK1   BANK2   BANK3   BANK4   BANK5   BANK6   BANK7   BANK8   BANK9  BANK10  BANK1
      +1  BANK12  BANK13  BANK14  BANK15
  4590 ;;      Params:         0       0       0       0       0       0       0       0       0       0       0       0       
      +0       0       0       0       0
  4591 ;;      Locals:         1       0       0       0       0       0       0       0       0       0       0       0       
      +0       0       0       0       0
  4592 ;;      Temps:          2       0       0       0       0       0       0       0       0       0       0       0       
      +0       0       0       0       0
  4593 ;;      Totals:         3       0       0       0       0       0       0       0       0       0       0       0       
      +0       0       0       0       0
  4594 ;;Total ram usage:        3 bytes
  4595 ;; Hardware stack levels used: 1
  4596 ;; Hardware stack levels required when called: 4
  4597 ;; This function calls:
  4598 ;;		Nothing
  4599 ;; This function is called by:
  4600 ;;		_ADC_Intialization
  4601 ;;		_ADC_Channel_Selection
  4602 ;; This function uses a non-reentrant model
  4603 ;;
  4604                           
  4605                           	psect	text23
  4606   002322                     __ptext23:
  4607                           	callstack 0
  4608   002322                     _ADC_Set_Channel_As_Inbut:
  4609                           	callstack 24
  4610                           
  4611                           ;incstack = 0
  4612                           ;ADC_Set_Channel_As_Inbut@channel stored from wreg
  4613   002322  6E10               	movwf	ADC_Set_Channel_As_Inbut@channel^0,c
  4614   002324                     
  4615                           ;MCAL_Layer/MCAL_ADC/mcal_adc.c: 274: static void ADC_Set_Channel_As_Inbut(ADC_Channel_S
      +                          election_t channel);MCAL_Layer/MCAL_ADC/mcal_adc.c: 275: {;MCAL_Layer/MCAL_ADC/mcal_adc.
      +                          c: 276:     switch(channel)
  4616   002324  EFB8  F011         	goto	l5388
  4617   002328                     l5360:
  4618   002328  8292               	bsf	146,1,c	;volatile
  4619   00232A  EFF9  F011         	goto	l382
  4620   00232E                     l5364:
  4621   00232E  8492               	bsf	146,2,c	;volatile
  4622   002330  EFF9  F011         	goto	l382
  4623   002334                     l5366:
  4624   002334  8692               	bsf	146,3,c	;volatile
  4625   002336  EFF9  F011         	goto	l382
  4626   00233A                     l5368:
  4627   00233A  8A92               	bsf	146,5,c	;volatile
  4628   00233C  EFF9  F011         	goto	l382
  4629   002340                     l5370:
  4630   002340  8096               	bsf	150,0,c	;volatile
  4631   002342  EFF9  F011         	goto	l382
  4632   002346                     l5372:
  4633   002346  8296               	bsf	150,1,c	;volatile
  4634   002348  EFF9  F011         	goto	l382
  4635   00234C                     l5374:
  4636   00234C  8496               	bsf	150,2,c	;volatile
  4637   00234E  EFF9  F011         	goto	l382
  4638   002352                     l5376:
  4639   002352  8493               	bsf	147,2,c	;volatile
  4640   002354  EFF9  F011         	goto	l382
  4641   002358                     l5378:
  4642   002358  8693               	bsf	147,3,c	;volatile
  4643   00235A  EFF9  F011         	goto	l382
  4644   00235E                     l5380:
  4645   00235E  8293               	bsf	147,1,c	;volatile
  4646   002360  EFF9  F011         	goto	l382
  4647   002364                     l5382:
  4648   002364  8893               	bsf	147,4,c	;volatile
  4649   002366  EFF9  F011         	goto	l382
  4650   00236A                     l5384:
  4651   00236A  8093               	bsf	147,0,c	;volatile
  4652   00236C  EFF9  F011         	goto	l382
  4653   002370                     l5388:
  4654   002370  5010               	movf	ADC_Set_Channel_As_Inbut@channel^0,w,c
  4655   002372  6E0E               	movwf	??_ADC_Set_Channel_As_Inbut^0,c
  4656   002374  6A0F               	clrf	(??_ADC_Set_Channel_As_Inbut+1)^0,c
  4657                           
  4658                           ; Switch on 2 bytes has been partitioned into a top level switch of size 1, and 1 sub-sw
      +                          itches
  4659                           ; Switch size 1, requested type "simple"
  4660                           ; Number of cases is 1, Range of values is 0 to 0
  4661                           ; switch strategies available:
  4662                           ; Name         Instructions Cycles
  4663                           ; simple_byte            4     3 (average)
  4664                           ;	Chosen strategy is simple_byte
  4665   002376  500F               	movf	(??_ADC_Set_Channel_As_Inbut+1)^0,w,c
  4666   002378  0A00               	xorlw	0	; case 0
  4667   00237A  B4D8               	btfsc	status,2,c
  4668   00237C  EFC2  F011         	goto	l7728
  4669   002380  EFF9  F011         	goto	l382
  4670   002384                     l7728:
  4671                           
  4672                           ; Switch size 1, requested type "simple"
  4673                           ; Number of cases is 13, Range of values is 0 to 12
  4674                           ; switch strategies available:
  4675                           ; Name         Instructions Cycles
  4676                           ; simple_byte           40    21 (average)
  4677                           ;	Chosen strategy is simple_byte
  4678   002384  500E               	movf	??_ADC_Set_Channel_As_Inbut^0,w,c
  4679   002386  0A00               	xorlw	0	; case 0
  4680   002388  B4D8               	btfsc	status,2,c
  4681   00238A  EF94  F011         	goto	l5360
  4682   00238E  0A01               	xorlw	1	; case 1
  4683   002390  B4D8               	btfsc	status,2,c
  4684   002392  EF94  F011         	goto	l5360
  4685   002396  0A03               	xorlw	3	; case 2
  4686   002398  B4D8               	btfsc	status,2,c
  4687   00239A  EF97  F011         	goto	l5364
  4688   00239E  0A01               	xorlw	1	; case 3
  4689   0023A0  B4D8               	btfsc	status,2,c
  4690   0023A2  EF9A  F011         	goto	l5366
  4691   0023A6  0A07               	xorlw	7	; case 4
  4692   0023A8  B4D8               	btfsc	status,2,c
  4693   0023AA  EF9D  F011         	goto	l5368
  4694   0023AE  0A01               	xorlw	1	; case 5
  4695   0023B0  B4D8               	btfsc	status,2,c
  4696   0023B2  EFA0  F011         	goto	l5370
  4697   0023B6  0A03               	xorlw	3	; case 6
  4698   0023B8  B4D8               	btfsc	status,2,c
  4699   0023BA  EFA3  F011         	goto	l5372
  4700   0023BE  0A01               	xorlw	1	; case 7
  4701   0023C0  B4D8               	btfsc	status,2,c
  4702   0023C2  EFA6  F011         	goto	l5374
  4703   0023C6  0A0F               	xorlw	15	; case 8
  4704   0023C8  B4D8               	btfsc	status,2,c
  4705   0023CA  EFA9  F011         	goto	l5376
  4706   0023CE  0A01               	xorlw	1	; case 9
  4707   0023D0  B4D8               	btfsc	status,2,c
  4708   0023D2  EFAC  F011         	goto	l5378
  4709   0023D6  0A03               	xorlw	3	; case 10
  4710   0023D8  B4D8               	btfsc	status,2,c
  4711   0023DA  EFAF  F011         	goto	l5380
  4712   0023DE  0A01               	xorlw	1	; case 11
  4713   0023E0  B4D8               	btfsc	status,2,c
  4714   0023E2  EFB2  F011         	goto	l5382
  4715   0023E6  0A07               	xorlw	7	; case 12
  4716   0023E8  B4D8               	btfsc	status,2,c
  4717   0023EA  EFB5  F011         	goto	l5384
  4718   0023EE  EFF9  F011         	goto	l382
  4719   0023F2                     l382:
  4720   0023F2  0012               	return		;funcret
  4721   0023F4                     __end_of_ADC_Set_Channel_As_Inbut:
  4722                           	callstack 0
  4723                           
  4724 ;; *************** function _InterruptManagerHigh *****************
  4725 ;; Defined at:
  4726 ;;		line 41 in file "MCAL_Layer/Interrupt/mcal_interrupt_manager.c"
  4727 ;; Parameters:    Size  Location     Type
  4728 ;;		None
  4729 ;; Auto vars:     Size  Location     Type
  4730 ;;		None
  4731 ;; Return value:  Size  Location     Type
  4732 ;;                  1    wreg      void 
  4733 ;; Registers used:
  4734 ;;		wreg, fsr2l, fsr2h, status,2, status,0, pcl, pclath, pclatu, tosl, cstack
  4735 ;; Tracked objects:
  4736 ;;		On entry : 0/0
  4737 ;;		On exit  : 0/0
  4738 ;;		Unchanged: 0/0
  4739 ;; Data sizes:     COMRAM   BANK0   BANK1   BANK2   BANK3   BANK4   BANK5   BANK6   BANK7   BANK8   BANK9  BANK10  BANK1
      +1  BANK12  BANK13  BANK14  BANK15
  4740 ;;      Params:         0       0       0       0       0       0       0       0       0       0       0       0       
      +0       0       0       0       0
  4741 ;;      Locals:         0       0       0       0       0       0       0       0       0       0       0       0       
      +0       0       0       0       0
  4742 ;;      Temps:          4       0       0       0       0       0       0       0       0       0       0       0       
      +0       0       0       0       0
  4743 ;;      Totals:         4       0       0       0       0       0       0       0       0       0       0       0       
      +0       0       0       0       0
  4744 ;;Total ram usage:        4 bytes
  4745 ;; Hardware stack levels used: 1
  4746 ;; Hardware stack levels required when called: 3
  4747 ;; This function calls:
  4748 ;;		_ADC_ISR
  4749 ;;		_CCP1_ISR
  4750 ;;		_CCP2_ISR
  4751 ;;		_ECCP_ISR
  4752 ;;		_INT0_ISR
  4753 ;;		_INT1_ISR
  4754 ;;		_INT2_ISR
  4755 ;;		_MSSP_I2C_BC_ISR
  4756 ;;		_MSSP_I2C_ISR
  4757 ;;		_RB4_ISR
  4758 ;;		_RB5_ISR
  4759 ;;		_RB6_ISR
  4760 ;;		_RB7_ISR
  4761 ;;		_SPI_ISR
  4762 ;;		_TIMER0_ISR
  4763 ;;		_TIMER1_ISR
  4764 ;;		_TIMER2_ISR
  4765 ;;		_TIMER3_ISR
  4766 ;;		_USART_RX_ISR
  4767 ;;		_USART_TX_ISR
  4768 ;; This function is called by:
  4769 ;;		Interrupt level 2
  4770 ;; This function uses a non-reentrant model
  4771 ;;
  4772                           
  4773                           	psect	intcode
  4774   000008                     __pintcode:
  4775                           	callstack 0
  4776   000008                     _InterruptManagerHigh:
  4777                           	callstack 23
  4778                           
  4779                           ;incstack = 0
  4780   000008  8272               	bsf	int$flags,1,c	;set compiler interrupt flag (level 2)
  4781   00000A  ED0B  F008         	call	int_func,f	;refresh shadow registers
  4782                           
  4783                           	psect	intcode_body
  4784   001016                     __pintcode_body:
  4785                           	callstack 23
  4786   001016                     int_func:
  4787                           	callstack 23
  4788   001016  0006               	pop		; remove dummy address from shadow register refresh
  4789   001018  CFFA F00A          	movff	pclath,??_InterruptManagerHigh
  4790   00101C  CFFB F00B          	movff	pclatu,??_InterruptManagerHigh+1
  4791   001020  CFD9 F00C          	movff	fsr2l,??_InterruptManagerHigh+2
  4792   001024  CFDA F00D          	movff	fsr2h,??_InterruptManagerHigh+3
  4793   001028                     
  4794                           ;MCAL_Layer/Interrupt/mcal_interrupt_manager.c: 43:     if((1 == INTCONbits.INT0IE) && (
      +                          1 == INTCONbits.INT0IF))
  4795   001028  A8F2               	btfss	242,4,c	;volatile
  4796   00102A  EF19  F008         	goto	i2u551_41
  4797   00102E  EF1B  F008         	goto	i2u551_40
  4798   001032                     i2u551_41:
  4799   001032  EF24  F008         	goto	i2l1209
  4800   001036                     i2u551_40:
  4801   001036  A2F2               	btfss	242,1,c	;volatile
  4802   001038  EF20  F008         	goto	i2u552_41
  4803   00103C  EF22  F008         	goto	i2u552_40
  4804   001040                     i2u552_41:
  4805   001040  EF24  F008         	goto	i2l1209
  4806   001044                     i2u552_40:
  4807   001044                     
  4808                           ;MCAL_Layer/Interrupt/mcal_interrupt_manager.c: 44:     {;MCAL_Layer/Interrupt/mcal_inte
      +                          rrupt_manager.c: 45:        INT0_ISR();
  4809   001044  ECDC  F015         	call	_INT0_ISR	;wreg free
  4810   001048                     i2l1209:
  4811                           
  4812                           ;MCAL_Layer/Interrupt/mcal_interrupt_manager.c: 48:     if((1 == INTCON3bits.INT1IE) && 
      +                          (1 == INTCON3bits.INT1IF))
  4813   001048  A6F0               	btfss	240,3,c	;volatile
  4814   00104A  EF29  F008         	goto	i2u553_41
  4815   00104E  EF2B  F008         	goto	i2u553_40
  4816   001052                     i2u553_41:
  4817   001052  EF34  F008         	goto	i2l1211
  4818   001056                     i2u553_40:
  4819   001056  A0F0               	btfss	240,0,c	;volatile
  4820   001058  EF30  F008         	goto	i2u554_41
  4821   00105C  EF32  F008         	goto	i2u554_40
  4822   001060                     i2u554_41:
  4823   001060  EF34  F008         	goto	i2l1211
  4824   001064                     i2u554_40:
  4825   001064                     
  4826                           ;MCAL_Layer/Interrupt/mcal_interrupt_manager.c: 49:     {;MCAL_Layer/Interrupt/mcal_inte
      +                          rrupt_manager.c: 50:        INT1_ISR();
  4827   001064  ECDA  F015         	call	_INT1_ISR	;wreg free
  4828   001068                     i2l1211:
  4829                           
  4830                           ;MCAL_Layer/Interrupt/mcal_interrupt_manager.c: 53:     if((1 == INTCON3bits.INT2IE) && 
      +                          (1 == INTCON3bits.INT2IF))
  4831   001068  A8F0               	btfss	240,4,c	;volatile
  4832   00106A  EF39  F008         	goto	i2u555_41
  4833   00106E  EF3B  F008         	goto	i2u555_40
  4834   001072                     i2u555_41:
  4835   001072  EF44  F008         	goto	i2l1213
  4836   001076                     i2u555_40:
  4837   001076  A2F0               	btfss	240,1,c	;volatile
  4838   001078  EF40  F008         	goto	i2u556_41
  4839   00107C  EF42  F008         	goto	i2u556_40
  4840   001080                     i2u556_41:
  4841   001080  EF44  F008         	goto	i2l1213
  4842   001084                     i2u556_40:
  4843   001084                     
  4844                           ;MCAL_Layer/Interrupt/mcal_interrupt_manager.c: 54:     {;MCAL_Layer/Interrupt/mcal_inte
      +                          rrupt_manager.c: 55:        INT2_ISR();
  4845   001084  ECD8  F015         	call	_INT2_ISR	;wreg free
  4846   001088                     i2l1213:
  4847                           
  4848                           ;MCAL_Layer/Interrupt/mcal_interrupt_manager.c: 60:     if((1 == INTCONbits.RBIE) && (1 
      +                          == INTCONbits.RBIF)
  4849   001088  A6F2               	btfss	242,3,c	;volatile
  4850   00108A  EF49  F008         	goto	i2u557_41
  4851   00108E  EF4B  F008         	goto	i2u557_40
  4852   001092                     i2u557_41:
  4853   001092  EF66  F008         	goto	i2l1215
  4854   001096                     i2u557_40:
  4855   001096  A0F2               	btfss	242,0,c	;volatile
  4856   001098  EF50  F008         	goto	i2u558_41
  4857   00109C  EF52  F008         	goto	i2u558_40
  4858   0010A0                     i2u558_41:
  4859   0010A0  EF66  F008         	goto	i2l1215
  4860   0010A4                     i2u558_40:
  4861   0010A4  A881               	btfss	129,4,c	;volatile
  4862   0010A6  EF57  F008         	goto	i2u559_41
  4863   0010AA  EF59  F008         	goto	i2u559_40
  4864   0010AE                     i2u559_41:
  4865   0010AE  EF66  F008         	goto	i2l1215
  4866   0010B2                     i2u559_40:
  4867   0010B2  0469               	decf	_RB4_flag^0,w,c	;volatile
  4868   0010B4  A4D8               	btfss	status,2,c
  4869   0010B6  EF5F  F008         	goto	i2u560_41
  4870   0010BA  EF61  F008         	goto	i2u560_40
  4871   0010BE                     i2u560_41:
  4872   0010BE  EF66  F008         	goto	i2l1215
  4873   0010C2                     i2u560_40:
  4874   0010C2                     
  4875                           ;MCAL_Layer/Interrupt/mcal_interrupt_manager.c: 62:     {;MCAL_Layer/Interrupt/mcal_inte
      +                          rrupt_manager.c: 63:         RB4_flag = 0;
  4876   0010C2  0E00               	movlw	0
  4877   0010C4  6E69               	movwf	_RB4_flag^0,c	;volatile
  4878   0010C6                     
  4879                           ;MCAL_Layer/Interrupt/mcal_interrupt_manager.c: 64:        RB4_ISR(0);
  4880   0010C6  0E00               	movlw	0
  4881   0010C8  EC9A  F015         	call	_RB4_ISR
  4882   0010CC                     i2l1215:
  4883                           
  4884                           ;MCAL_Layer/Interrupt/mcal_interrupt_manager.c: 67:     if((1 == INTCONbits.RBIE) && (1 
      +                          == INTCONbits.RBIF)
  4885   0010CC  A6F2               	btfss	242,3,c	;volatile
  4886   0010CE  EF6B  F008         	goto	i2u561_41
  4887   0010D2  EF6D  F008         	goto	i2u561_40
  4888   0010D6                     i2u561_41:
  4889   0010D6  EF88  F008         	goto	i2l1217
  4890   0010DA                     i2u561_40:
  4891   0010DA  A0F2               	btfss	242,0,c	;volatile
  4892   0010DC  EF72  F008         	goto	i2u562_41
  4893   0010E0  EF74  F008         	goto	i2u562_40
  4894   0010E4                     i2u562_41:
  4895   0010E4  EF88  F008         	goto	i2l1217
  4896   0010E8                     i2u562_40:
  4897   0010E8  BA81               	btfsc	129,5,c	;volatile
  4898   0010EA  EF79  F008         	goto	i2u563_41
  4899   0010EE  EF7B  F008         	goto	i2u563_40
  4900   0010F2                     i2u563_41:
  4901   0010F2  EF88  F008         	goto	i2l1217
  4902   0010F6                     i2u563_40:
  4903   0010F6  5069               	movf	_RB4_flag^0,w,c	;volatile
  4904   0010F8  A4D8               	btfss	status,2,c
  4905   0010FA  EF81  F008         	goto	i2u564_41
  4906   0010FE  EF83  F008         	goto	i2u564_40
  4907   001102                     i2u564_41:
  4908   001102  EF88  F008         	goto	i2l1217
  4909   001106                     i2u564_40:
  4910   001106                     
  4911                           ;MCAL_Layer/Interrupt/mcal_interrupt_manager.c: 69:     {;MCAL_Layer/Interrupt/mcal_inte
      +                          rrupt_manager.c: 70:         RB4_flag = 1;
  4912   001106  0E01               	movlw	1
  4913   001108  6E69               	movwf	_RB4_flag^0,c	;volatile
  4914   00110A                     
  4915                           ;MCAL_Layer/Interrupt/mcal_interrupt_manager.c: 71:        RB4_ISR(1);
  4916   00110A  0E01               	movlw	1
  4917   00110C  EC9A  F015         	call	_RB4_ISR
  4918   001110                     i2l1217:
  4919                           
  4920                           ;MCAL_Layer/Interrupt/mcal_interrupt_manager.c: 74:      if((1 == INTCONbits.RBIE) && (1
      +                           == INTCONbits.RBIF)
  4921   001110  A6F2               	btfss	242,3,c	;volatile
  4922   001112  EF8D  F008         	goto	i2u565_41
  4923   001116  EF8F  F008         	goto	i2u565_40
  4924   00111A                     i2u565_41:
  4925   00111A  EFAA  F008         	goto	i2l1219
  4926   00111E                     i2u565_40:
  4927   00111E  A0F2               	btfss	242,0,c	;volatile
  4928   001120  EF94  F008         	goto	i2u566_41
  4929   001124  EF96  F008         	goto	i2u566_40
  4930   001128                     i2u566_41:
  4931   001128  EFAA  F008         	goto	i2l1219
  4932   00112C                     i2u566_40:
  4933   00112C  AA81               	btfss	129,5,c	;volatile
  4934   00112E  EF9B  F008         	goto	i2u567_41
  4935   001132  EF9D  F008         	goto	i2u567_40
  4936   001136                     i2u567_41:
  4937   001136  EFAA  F008         	goto	i2l1219
  4938   00113A                     i2u567_40:
  4939   00113A  0468               	decf	_RB5_flag^0,w,c	;volatile
  4940   00113C  A4D8               	btfss	status,2,c
  4941   00113E  EFA3  F008         	goto	i2u568_41
  4942   001142  EFA5  F008         	goto	i2u568_40
  4943   001146                     i2u568_41:
  4944   001146  EFAA  F008         	goto	i2l1219
  4945   00114A                     i2u568_40:
  4946   00114A                     
  4947                           ;MCAL_Layer/Interrupt/mcal_interrupt_manager.c: 76:     {;MCAL_Layer/Interrupt/mcal_inte
      +                          rrupt_manager.c: 77:          RB5_flag = 0;
  4948   00114A  0E00               	movlw	0
  4949   00114C  6E68               	movwf	_RB5_flag^0,c	;volatile
  4950   00114E                     
  4951                           ;MCAL_Layer/Interrupt/mcal_interrupt_manager.c: 78:        RB5_ISR(0);
  4952   00114E  0E00               	movlw	0
  4953   001150  EC8D  F015         	call	_RB5_ISR
  4954   001154                     i2l1219:
  4955                           
  4956                           ;MCAL_Layer/Interrupt/mcal_interrupt_manager.c: 81:     if((1 == INTCONbits.RBIE) && (1 
      +                          == INTCONbits.RBIF)
  4957   001154  A6F2               	btfss	242,3,c	;volatile
  4958   001156  EFAF  F008         	goto	i2u569_41
  4959   00115A  EFB1  F008         	goto	i2u569_40
  4960   00115E                     i2u569_41:
  4961   00115E  EFCC  F008         	goto	i2l1221
  4962   001162                     i2u569_40:
  4963   001162  A0F2               	btfss	242,0,c	;volatile
  4964   001164  EFB6  F008         	goto	i2u570_41
  4965   001168  EFB8  F008         	goto	i2u570_40
  4966   00116C                     i2u570_41:
  4967   00116C  EFCC  F008         	goto	i2l1221
  4968   001170                     i2u570_40:
  4969   001170  BA81               	btfsc	129,5,c	;volatile
  4970   001172  EFBD  F008         	goto	i2u571_41
  4971   001176  EFBF  F008         	goto	i2u571_40
  4972   00117A                     i2u571_41:
  4973   00117A  EFCC  F008         	goto	i2l1221
  4974   00117E                     i2u571_40:
  4975   00117E  5068               	movf	_RB5_flag^0,w,c	;volatile
  4976   001180  A4D8               	btfss	status,2,c
  4977   001182  EFC5  F008         	goto	i2u572_41
  4978   001186  EFC7  F008         	goto	i2u572_40
  4979   00118A                     i2u572_41:
  4980   00118A  EFCC  F008         	goto	i2l1221
  4981   00118E                     i2u572_40:
  4982   00118E                     
  4983                           ;MCAL_Layer/Interrupt/mcal_interrupt_manager.c: 83:     {;MCAL_Layer/Interrupt/mcal_inte
      +                          rrupt_manager.c: 84:         RB5_flag = 1;
  4984   00118E  0E01               	movlw	1
  4985   001190  6E68               	movwf	_RB5_flag^0,c	;volatile
  4986   001192                     
  4987                           ;MCAL_Layer/Interrupt/mcal_interrupt_manager.c: 85:        RB5_ISR(1);
  4988   001192  0E01               	movlw	1
  4989   001194  EC8D  F015         	call	_RB5_ISR
  4990   001198                     i2l1221:
  4991                           
  4992                           ;MCAL_Layer/Interrupt/mcal_interrupt_manager.c: 88:    if((1 == INTCONbits.RBIE) && (1 =
      +                          = INTCONbits.RBIF)
  4993   001198  A6F2               	btfss	242,3,c	;volatile
  4994   00119A  EFD1  F008         	goto	i2u573_41
  4995   00119E  EFD3  F008         	goto	i2u573_40
  4996   0011A2                     i2u573_41:
  4997   0011A2  EFEE  F008         	goto	i2l1223
  4998   0011A6                     i2u573_40:
  4999   0011A6  A0F2               	btfss	242,0,c	;volatile
  5000   0011A8  EFD8  F008         	goto	i2u574_41
  5001   0011AC  EFDA  F008         	goto	i2u574_40
  5002   0011B0                     i2u574_41:
  5003   0011B0  EFEE  F008         	goto	i2l1223
  5004   0011B4                     i2u574_40:
  5005   0011B4  AC81               	btfss	129,6,c	;volatile
  5006   0011B6  EFDF  F008         	goto	i2u575_41
  5007   0011BA  EFE1  F008         	goto	i2u575_40
  5008   0011BE                     i2u575_41:
  5009   0011BE  EFEE  F008         	goto	i2l1223
  5010   0011C2                     i2u575_40:
  5011   0011C2  0467               	decf	_RB6_flag^0,w,c	;volatile
  5012   0011C4  A4D8               	btfss	status,2,c
  5013   0011C6  EFE7  F008         	goto	i2u576_41
  5014   0011CA  EFE9  F008         	goto	i2u576_40
  5015   0011CE                     i2u576_41:
  5016   0011CE  EFEE  F008         	goto	i2l1223
  5017   0011D2                     i2u576_40:
  5018   0011D2                     
  5019                           ;MCAL_Layer/Interrupt/mcal_interrupt_manager.c: 90:     {;MCAL_Layer/Interrupt/mcal_inte
      +                          rrupt_manager.c: 91:          RB6_flag = 0;
  5020   0011D2  0E00               	movlw	0
  5021   0011D4  6E67               	movwf	_RB6_flag^0,c	;volatile
  5022   0011D6                     
  5023                           ;MCAL_Layer/Interrupt/mcal_interrupt_manager.c: 92:        RB6_ISR(0);
  5024   0011D6  0E00               	movlw	0
  5025   0011D8  EC80  F015         	call	_RB6_ISR
  5026   0011DC                     i2l1223:
  5027                           
  5028                           ;MCAL_Layer/Interrupt/mcal_interrupt_manager.c: 95:     if((1 == INTCONbits.RBIE) && (1 
      +                          == INTCONbits.RBIF)
  5029   0011DC  A6F2               	btfss	242,3,c	;volatile
  5030   0011DE  EFF3  F008         	goto	i2u577_41
  5031   0011E2  EFF5  F008         	goto	i2u577_40
  5032   0011E6                     i2u577_41:
  5033   0011E6  EF10  F009         	goto	i2l6912
  5034   0011EA                     i2u577_40:
  5035   0011EA  A0F2               	btfss	242,0,c	;volatile
  5036   0011EC  EFFA  F008         	goto	i2u578_41
  5037   0011F0  EFFC  F008         	goto	i2u578_40
  5038   0011F4                     i2u578_41:
  5039   0011F4  EF10  F009         	goto	i2l6912
  5040   0011F8                     i2u578_40:
  5041   0011F8  BC81               	btfsc	129,6,c	;volatile
  5042   0011FA  EF01  F009         	goto	i2u579_41
  5043   0011FE  EF03  F009         	goto	i2u579_40
  5044   001202                     i2u579_41:
  5045   001202  EF10  F009         	goto	i2l6912
  5046   001206                     i2u579_40:
  5047   001206  5067               	movf	_RB6_flag^0,w,c	;volatile
  5048   001208  A4D8               	btfss	status,2,c
  5049   00120A  EF09  F009         	goto	i2u580_41
  5050   00120E  EF0B  F009         	goto	i2u580_40
  5051   001212                     i2u580_41:
  5052   001212  EF10  F009         	goto	i2l6912
  5053   001216                     i2u580_40:
  5054   001216                     
  5055                           ;MCAL_Layer/Interrupt/mcal_interrupt_manager.c: 97:     {;MCAL_Layer/Interrupt/mcal_inte
      +                          rrupt_manager.c: 98:         RB6_flag = 1;
  5056   001216  0E01               	movlw	1
  5057   001218  6E67               	movwf	_RB6_flag^0,c	;volatile
  5058   00121A                     
  5059                           ;MCAL_Layer/Interrupt/mcal_interrupt_manager.c: 99:        RB6_ISR(1);
  5060   00121A  0E01               	movlw	1
  5061   00121C  EC80  F015         	call	_RB6_ISR
  5062   001220                     i2l6912:
  5063                           
  5064                           ;MCAL_Layer/Interrupt/mcal_interrupt_manager.c: 101:     if((1 == INTCONbits.RBIE) && (1
      +                           == INTCONbits.RBIF)
  5065   001220  A6F2               	btfss	242,3,c	;volatile
  5066   001222  EF15  F009         	goto	i2u581_41
  5067   001226  EF17  F009         	goto	i2u581_40
  5068   00122A                     i2u581_41:
  5069   00122A  EF32  F009         	goto	i2l1226
  5070   00122E                     i2u581_40:
  5071   00122E  A0F2               	btfss	242,0,c	;volatile
  5072   001230  EF1C  F009         	goto	i2u582_41
  5073   001234  EF1E  F009         	goto	i2u582_40
  5074   001238                     i2u582_41:
  5075   001238  EF32  F009         	goto	i2l1226
  5076   00123C                     i2u582_40:
  5077   00123C  AE81               	btfss	129,7,c	;volatile
  5078   00123E  EF23  F009         	goto	i2u583_41
  5079   001242  EF25  F009         	goto	i2u583_40
  5080   001246                     i2u583_41:
  5081   001246  EF32  F009         	goto	i2l1226
  5082   00124A                     i2u583_40:
  5083   00124A  0466               	decf	_RB7_flag^0,w,c	;volatile
  5084   00124C  A4D8               	btfss	status,2,c
  5085   00124E  EF2B  F009         	goto	i2u584_41
  5086   001252  EF2D  F009         	goto	i2u584_40
  5087   001256                     i2u584_41:
  5088   001256  EF32  F009         	goto	i2l1226
  5089   00125A                     i2u584_40:
  5090   00125A                     
  5091                           ;MCAL_Layer/Interrupt/mcal_interrupt_manager.c: 103:     {;MCAL_Layer/Interrupt/mcal_int
      +                          errupt_manager.c: 104:          RB7_flag = 0;
  5092   00125A  0E00               	movlw	0
  5093   00125C  6E66               	movwf	_RB7_flag^0,c	;volatile
  5094   00125E                     
  5095                           ;MCAL_Layer/Interrupt/mcal_interrupt_manager.c: 105:        RB7_ISR(0);
  5096   00125E  0E00               	movlw	0
  5097   001260  EC73  F015         	call	_RB7_ISR
  5098   001264                     i2l1226:
  5099                           
  5100                           ;MCAL_Layer/Interrupt/mcal_interrupt_manager.c: 108:     if((1 == INTCONbits.RBIE) && (1
      +                           == INTCONbits.RBIF)
  5101   001264  A6F2               	btfss	242,3,c	;volatile
  5102   001266  EF37  F009         	goto	i2u585_41
  5103   00126A  EF39  F009         	goto	i2u585_40
  5104   00126E                     i2u585_41:
  5105   00126E  EF54  F009         	goto	i2l6934
  5106   001272                     i2u585_40:
  5107   001272  A0F2               	btfss	242,0,c	;volatile
  5108   001274  EF3E  F009         	goto	i2u586_41
  5109   001278  EF40  F009         	goto	i2u586_40
  5110   00127C                     i2u586_41:
  5111   00127C  EF54  F009         	goto	i2l6934
  5112   001280                     i2u586_40:
  5113   001280  BE81               	btfsc	129,7,c	;volatile
  5114   001282  EF45  F009         	goto	i2u587_41
  5115   001286  EF47  F009         	goto	i2u587_40
  5116   00128A                     i2u587_41:
  5117   00128A  EF54  F009         	goto	i2l6934
  5118   00128E                     i2u587_40:
  5119   00128E  5066               	movf	_RB7_flag^0,w,c	;volatile
  5120   001290  A4D8               	btfss	status,2,c
  5121   001292  EF4D  F009         	goto	i2u588_41
  5122   001296  EF4F  F009         	goto	i2u588_40
  5123   00129A                     i2u588_41:
  5124   00129A  EF54  F009         	goto	i2l6934
  5125   00129E                     i2u588_40:
  5126   00129E                     
  5127                           ;MCAL_Layer/Interrupt/mcal_interrupt_manager.c: 110:     {;MCAL_Layer/Interrupt/mcal_int
      +                          errupt_manager.c: 111:         RB7_flag = 1;
  5128   00129E  0E01               	movlw	1
  5129   0012A0  6E66               	movwf	_RB7_flag^0,c	;volatile
  5130   0012A2                     
  5131                           ;MCAL_Layer/Interrupt/mcal_interrupt_manager.c: 112:        RB7_ISR(1);
  5132   0012A2  0E01               	movlw	1
  5133   0012A4  EC73  F015         	call	_RB7_ISR
  5134   0012A8                     i2l6934:
  5135                           
  5136                           ;MCAL_Layer/Interrupt/mcal_interrupt_manager.c: 115:     if((1 == PIE1bits.ADIE) && (1 =
      +                          = PIR1bits.ADIF) )
  5137   0012A8  AC9D               	btfss	157,6,c	;volatile
  5138   0012AA  EF59  F009         	goto	i2u589_41
  5139   0012AE  EF5B  F009         	goto	i2u589_40
  5140   0012B2                     i2u589_41:
  5141   0012B2  EF64  F009         	goto	i2l6940
  5142   0012B6                     i2u589_40:
  5143   0012B6  AC9E               	btfss	158,6,c	;volatile
  5144   0012B8  EF60  F009         	goto	i2u590_41
  5145   0012BC  EF62  F009         	goto	i2u590_40
  5146   0012C0                     i2u590_41:
  5147   0012C0  EF64  F009         	goto	i2l6940
  5148   0012C4                     i2u590_40:
  5149   0012C4                     
  5150                           ;MCAL_Layer/Interrupt/mcal_interrupt_manager.c: 116:     {;MCAL_Layer/Interrupt/mcal_int
      +                          errupt_manager.c: 117:        ADC_ISR();
  5151   0012C4  EC3D  F015         	call	_ADC_ISR	;wreg free
  5152   0012C8                     i2l6940:
  5153                           
  5154                           ;MCAL_Layer/Interrupt/mcal_interrupt_manager.c: 121:     if((1 == INTCONbits.TMR0IE) && 
      +                          (1 == INTCONbits.TMR0IF) )
  5155   0012C8  AAF2               	btfss	242,5,c	;volatile
  5156   0012CA  EF69  F009         	goto	i2u591_41
  5157   0012CE  EF6B  F009         	goto	i2u591_40
  5158   0012D2                     i2u591_41:
  5159   0012D2  EF74  F009         	goto	i2l6946
  5160   0012D6                     i2u591_40:
  5161   0012D6  A4F2               	btfss	242,2,c	;volatile
  5162   0012D8  EF70  F009         	goto	i2u592_41
  5163   0012DC  EF72  F009         	goto	i2u592_40
  5164   0012E0                     i2u592_41:
  5165   0012E0  EF74  F009         	goto	i2l6946
  5166   0012E4                     i2u592_40:
  5167   0012E4                     
  5168                           ;MCAL_Layer/Interrupt/mcal_interrupt_manager.c: 122:     {;MCAL_Layer/Interrupt/mcal_int
      +                          errupt_manager.c: 123:        TIMER0_ISR();
  5169   0012E4  ECC3  F015         	call	_TIMER0_ISR	;wreg free
  5170   0012E8                     i2l6946:
  5171                           
  5172                           ;MCAL_Layer/Interrupt/mcal_interrupt_manager.c: 126:     if((1 == PIE1bits.TMR1IE) && (1
      +                           == PIR1bits.TMR1IF) )
  5173   0012E8  A09D               	btfss	157,0,c	;volatile
  5174   0012EA  EF79  F009         	goto	i2u593_41
  5175   0012EE  EF7B  F009         	goto	i2u593_40
  5176   0012F2                     i2u593_41:
  5177   0012F2  EF84  F009         	goto	i2l6952
  5178   0012F6                     i2u593_40:
  5179   0012F6  A09E               	btfss	158,0,c	;volatile
  5180   0012F8  EF80  F009         	goto	i2u594_41
  5181   0012FC  EF82  F009         	goto	i2u594_40
  5182   001300                     i2u594_41:
  5183   001300  EF84  F009         	goto	i2l6952
  5184   001304                     i2u594_40:
  5185   001304                     
  5186                           ;MCAL_Layer/Interrupt/mcal_interrupt_manager.c: 127:     {;MCAL_Layer/Interrupt/mcal_int
      +                          errupt_manager.c: 128:        TIMER1_ISR();
  5187   001304  ECC9  F015         	call	_TIMER1_ISR	;wreg free
  5188   001308                     i2l6952:
  5189                           
  5190                           ;MCAL_Layer/Interrupt/mcal_interrupt_manager.c: 131:     if((1 == PIE1bits.TMR2IE) && (1
      +                           == PIR1bits.TMR2IF) )
  5191   001308  A29D               	btfss	157,1,c	;volatile
  5192   00130A  EF89  F009         	goto	i2u595_41
  5193   00130E  EF8B  F009         	goto	i2u595_40
  5194   001312                     i2u595_41:
  5195   001312  EF94  F009         	goto	i2l6958
  5196   001316                     i2u595_40:
  5197   001316  A29E               	btfss	158,1,c	;volatile
  5198   001318  EF90  F009         	goto	i2u596_41
  5199   00131C  EF92  F009         	goto	i2u596_40
  5200   001320                     i2u596_41:
  5201   001320  EF94  F009         	goto	i2l6958
  5202   001324                     i2u596_40:
  5203   001324                     
  5204                           ;MCAL_Layer/Interrupt/mcal_interrupt_manager.c: 132:     {;MCAL_Layer/Interrupt/mcal_int
      +                          errupt_manager.c: 133:        TIMER2_ISR();
  5205   001324  ECCE  F015         	call	_TIMER2_ISR	;wreg free
  5206   001328                     i2l6958:
  5207                           
  5208                           ;MCAL_Layer/Interrupt/mcal_interrupt_manager.c: 136:     if((1 == PIE2bits.TMR3IE) && (1
      +                           == PIR2bits.TMR3IF) )
  5209   001328  A2A0               	btfss	160,1,c	;volatile
  5210   00132A  EF99  F009         	goto	i2u597_41
  5211   00132E  EF9B  F009         	goto	i2u597_40
  5212   001332                     i2u597_41:
  5213   001332  EFA4  F009         	goto	i2l6964
  5214   001336                     i2u597_40:
  5215   001336  A2A1               	btfss	161,1,c	;volatile
  5216   001338  EFA0  F009         	goto	i2u598_41
  5217   00133C  EFA2  F009         	goto	i2u598_40
  5218   001340                     i2u598_41:
  5219   001340  EFA4  F009         	goto	i2l6964
  5220   001344                     i2u598_40:
  5221   001344                     
  5222                           ;MCAL_Layer/Interrupt/mcal_interrupt_manager.c: 137:     {;MCAL_Layer/Interrupt/mcal_int
      +                          errupt_manager.c: 138:        TIMER3_ISR();
  5223   001344  ECBD  F015         	call	_TIMER3_ISR	;wreg free
  5224   001348                     i2l6964:
  5225                           
  5226                           ;MCAL_Layer/Interrupt/mcal_interrupt_manager.c: 141:     if((1 == PIE1bits.CCP1IE) && (1
      +                           == PIR1bits.CCP1IF) )
  5227   001348  A49D               	btfss	157,2,c	;volatile
  5228   00134A  EFA9  F009         	goto	i2u599_41
  5229   00134E  EFAB  F009         	goto	i2u599_40
  5230   001352                     i2u599_41:
  5231   001352  EFB4  F009         	goto	i2l6970
  5232   001356                     i2u599_40:
  5233   001356  A49E               	btfss	158,2,c	;volatile
  5234   001358  EFB0  F009         	goto	i2u600_41
  5235   00135C  EFB2  F009         	goto	i2u600_40
  5236   001360                     i2u600_41:
  5237   001360  EFB4  F009         	goto	i2l6970
  5238   001364                     i2u600_40:
  5239   001364                     
  5240                           ;MCAL_Layer/Interrupt/mcal_interrupt_manager.c: 142:     {;MCAL_Layer/Interrupt/mcal_int
      +                          errupt_manager.c: 143:        CCP1_ISR();
  5241   001364  ECE2  F015         	call	_CCP1_ISR	;wreg free
  5242   001368                     i2l6970:
  5243                           
  5244                           ;MCAL_Layer/Interrupt/mcal_interrupt_manager.c: 146:     if((1 == PIE2bits.CCP2IE) && (1
      +                           == PIR2bits.CCP2IF) )
  5245   001368  A0A0               	btfss	160,0,c	;volatile
  5246   00136A  EFB9  F009         	goto	i2u601_41
  5247   00136E  EFBB  F009         	goto	i2u601_40
  5248   001372                     i2u601_41:
  5249   001372  EFC4  F009         	goto	i2l6976
  5250   001376                     i2u601_40:
  5251   001376  A0A1               	btfss	161,0,c	;volatile
  5252   001378  EFC0  F009         	goto	i2u602_41
  5253   00137C  EFC2  F009         	goto	i2u602_40
  5254   001380                     i2u602_41:
  5255   001380  EFC4  F009         	goto	i2l6976
  5256   001384                     i2u602_40:
  5257   001384                     
  5258                           ;MCAL_Layer/Interrupt/mcal_interrupt_manager.c: 147:     {;MCAL_Layer/Interrupt/mcal_int
      +                          errupt_manager.c: 148:        CCP2_ISR();
  5259   001384  ECE0  F015         	call	_CCP2_ISR	;wreg free
  5260   001388                     i2l6976:
  5261                           
  5262                           ;MCAL_Layer/Interrupt/mcal_interrupt_manager.c: 151:     if((1 == PIE1bits.CCP1IE) && (1
      +                           == PIR1bits.CCP1IF) )
  5263   001388  A49D               	btfss	157,2,c	;volatile
  5264   00138A  EFC9  F009         	goto	i2u603_41
  5265   00138E  EFCB  F009         	goto	i2u603_40
  5266   001392                     i2u603_41:
  5267   001392  EFD4  F009         	goto	i2l6982
  5268   001396                     i2u603_40:
  5269   001396  A49E               	btfss	158,2,c	;volatile
  5270   001398  EFD0  F009         	goto	i2u604_41
  5271   00139C  EFD2  F009         	goto	i2u604_40
  5272   0013A0                     i2u604_41:
  5273   0013A0  EFD4  F009         	goto	i2l6982
  5274   0013A4                     i2u604_40:
  5275   0013A4                     
  5276                           ;MCAL_Layer/Interrupt/mcal_interrupt_manager.c: 152:     {;MCAL_Layer/Interrupt/mcal_int
      +                          errupt_manager.c: 153:        ECCP_ISR();
  5277   0013A4  ECDE  F015         	call	_ECCP_ISR	;wreg free
  5278   0013A8                     i2l6982:
  5279                           
  5280                           ;MCAL_Layer/Interrupt/mcal_interrupt_manager.c: 156:     if((1 == PIE1bits.TXIE) && (1 =
      +                          = PIR1bits.TXIF) )
  5281   0013A8  A89D               	btfss	157,4,c	;volatile
  5282   0013AA  EFD9  F009         	goto	i2u605_41
  5283   0013AE  EFDB  F009         	goto	i2u605_40
  5284   0013B2                     i2u605_41:
  5285   0013B2  EFE4  F009         	goto	i2l6988
  5286   0013B6                     i2u605_40:
  5287   0013B6  A89E               	btfss	158,4,c	;volatile
  5288   0013B8  EFE0  F009         	goto	i2u606_41
  5289   0013BC  EFE2  F009         	goto	i2u606_40
  5290   0013C0                     i2u606_41:
  5291   0013C0  EFE4  F009         	goto	i2l6988
  5292   0013C4                     i2u606_40:
  5293   0013C4                     
  5294                           ;MCAL_Layer/Interrupt/mcal_interrupt_manager.c: 157:     {;MCAL_Layer/Interrupt/mcal_int
      +                          errupt_manager.c: 158:        USART_TX_ISR();
  5295   0013C4  ECD2  F015         	call	_USART_TX_ISR	;wreg free
  5296   0013C8                     i2l6988:
  5297                           
  5298                           ;MCAL_Layer/Interrupt/mcal_interrupt_manager.c: 161:     if((1 == PIE1bits.RCIE) && (1 =
      +                          = PIR1bits.RCIF) )
  5299   0013C8  AA9D               	btfss	157,5,c	;volatile
  5300   0013CA  EFE9  F009         	goto	i2u607_41
  5301   0013CE  EFEB  F009         	goto	i2u607_40
  5302   0013D2                     i2u607_41:
  5303   0013D2  EFF4  F009         	goto	i2l6994
  5304   0013D6                     i2u607_40:
  5305   0013D6  AA9E               	btfss	158,5,c	;volatile
  5306   0013D8  EFF0  F009         	goto	i2u608_41
  5307   0013DC  EFF2  F009         	goto	i2u608_40
  5308   0013E0                     i2u608_41:
  5309   0013E0  EFF4  F009         	goto	i2l6994
  5310   0013E4                     i2u608_40:
  5311   0013E4                     
  5312                           ;MCAL_Layer/Interrupt/mcal_interrupt_manager.c: 162:     {;MCAL_Layer/Interrupt/mcal_int
      +                          errupt_manager.c: 163:        USART_RX_ISR();
  5313   0013E4  ECE4  F015         	call	_USART_RX_ISR	;wreg free
  5314   0013E8                     i2l6994:
  5315                           
  5316                           ;MCAL_Layer/Interrupt/mcal_interrupt_manager.c: 166:     if((1 == PIE1bits.SSPIE) && (1 
      +                          == PIR1bits.SSPIF) )
  5317   0013E8  A69D               	btfss	157,3,c	;volatile
  5318   0013EA  EFF9  F009         	goto	i2u609_41
  5319   0013EE  EFFB  F009         	goto	i2u609_40
  5320   0013F2                     i2u609_41:
  5321   0013F2  EF04  F00A         	goto	i2l7000
  5322   0013F6                     i2u609_40:
  5323   0013F6  A69E               	btfss	158,3,c	;volatile
  5324   0013F8  EF00  F00A         	goto	i2u610_41
  5325   0013FC  EF02  F00A         	goto	i2u610_40
  5326   001400                     i2u610_41:
  5327   001400  EF04  F00A         	goto	i2l7000
  5328   001404                     i2u610_40:
  5329   001404                     
  5330                           ;MCAL_Layer/Interrupt/mcal_interrupt_manager.c: 167:     {;MCAL_Layer/Interrupt/mcal_int
      +                          errupt_manager.c: 168:        SPI_ISR();
  5331   001404  ECE5  F015         	call	_SPI_ISR	;wreg free
  5332   001408                     i2l7000:
  5333                           
  5334                           ;MCAL_Layer/Interrupt/mcal_interrupt_manager.c: 171:     if((1 == PIE1bits.SSPIE) && (1 
      +                          == PIR1bits.SSPIF) )
  5335   001408  A69D               	btfss	157,3,c	;volatile
  5336   00140A  EF09  F00A         	goto	i2u611_41
  5337   00140E  EF0B  F00A         	goto	i2u611_40
  5338   001412                     i2u611_41:
  5339   001412  EF14  F00A         	goto	i2l7006
  5340   001416                     i2u611_40:
  5341   001416  A69E               	btfss	158,3,c	;volatile
  5342   001418  EF10  F00A         	goto	i2u612_41
  5343   00141C  EF12  F00A         	goto	i2u612_40
  5344   001420                     i2u612_41:
  5345   001420  EF14  F00A         	goto	i2l7006
  5346   001424                     i2u612_40:
  5347   001424                     
  5348                           ;MCAL_Layer/Interrupt/mcal_interrupt_manager.c: 172:     {;MCAL_Layer/Interrupt/mcal_int
      +                          errupt_manager.c: 173:        MSSP_I2C_ISR();
  5349   001424  ECD4  F015         	call	_MSSP_I2C_ISR	;wreg free
  5350   001428                     i2l7006:
  5351                           
  5352                           ;MCAL_Layer/Interrupt/mcal_interrupt_manager.c: 176:     if((1 == PIE2bits.BCLIE) && (1 
      +                          == PIR2bits.BCLIF) )
  5353   001428  A6A0               	btfss	160,3,c	;volatile
  5354   00142A  EF19  F00A         	goto	i2u613_41
  5355   00142E  EF1B  F00A         	goto	i2u613_40
  5356   001432                     i2u613_41:
  5357   001432  EF24  F00A         	goto	i2l1241
  5358   001436                     i2u613_40:
  5359   001436  A6A1               	btfss	161,3,c	;volatile
  5360   001438  EF20  F00A         	goto	i2u614_41
  5361   00143C  EF22  F00A         	goto	i2u614_40
  5362   001440                     i2u614_41:
  5363   001440  EF24  F00A         	goto	i2l1241
  5364   001444                     i2u614_40:
  5365   001444                     
  5366                           ;MCAL_Layer/Interrupt/mcal_interrupt_manager.c: 177:     {;MCAL_Layer/Interrupt/mcal_int
      +                          errupt_manager.c: 178:        MSSP_I2C_BC_ISR();
  5367   001444  ECD6  F015         	call	_MSSP_I2C_BC_ISR	;wreg free
  5368   001448                     i2l1241:
  5369   001448  C00D  FFDA         	movff	??_InterruptManagerHigh+3,fsr2h
  5370   00144C  C00C  FFD9         	movff	??_InterruptManagerHigh+2,fsr2l
  5371   001450  C00B  FFFB         	movff	??_InterruptManagerHigh+1,pclatu
  5372   001454  C00A  FFFA         	movff	??_InterruptManagerHigh,pclath
  5373   001458  9272               	bcf	int$flags,1,c	;clear compiler interrupt flag (level 2)
  5374   00145A  0011               	retfie		f
  5375   00145C                     __end_of_InterruptManagerHigh:
  5376                           	callstack 0
  5377                           
  5378 ;; *************** function _USART_TX_ISR *****************
  5379 ;; Defined at:
  5380 ;;		line 282 in file "MCAL_Layer/USART/hal_usart.c"
  5381 ;; Parameters:    Size  Location     Type
  5382 ;;		None
  5383 ;; Auto vars:     Size  Location     Type
  5384 ;;		None
  5385 ;; Return value:  Size  Location     Type
  5386 ;;                  1    wreg      void 
  5387 ;; Registers used:
  5388 ;;		None
  5389 ;; Tracked objects:
  5390 ;;		On entry : 0/0
  5391 ;;		On exit  : 0/0
  5392 ;;		Unchanged: 0/0
  5393 ;; Data sizes:     COMRAM   BANK0   BANK1   BANK2   BANK3   BANK4   BANK5   BANK6   BANK7   BANK8   BANK9  BANK10  BANK1
      +1  BANK12  BANK13  BANK14  BANK15
  5394 ;;      Params:         0       0       0       0       0       0       0       0       0       0       0       0       
      +0       0       0       0       0
  5395 ;;      Locals:         0       0       0       0       0       0       0       0       0       0       0       0       
      +0       0       0       0       0
  5396 ;;      Temps:          0       0       0       0       0       0       0       0       0       0       0       0       
      +0       0       0       0       0
  5397 ;;      Totals:         0       0       0       0       0       0       0       0       0       0       0       0       
      +0       0       0       0       0
  5398 ;;Total ram usage:        0 bytes
  5399 ;; Hardware stack levels used: 1
  5400 ;; This function calls:
  5401 ;;		Nothing
  5402 ;; This function is called by:
  5403 ;;		_InterruptManagerHigh
  5404 ;; This function uses a non-reentrant model
  5405 ;;
  5406                           
  5407                           	psect	text25
  5408   002BA4                     __ptext25:
  5409                           	callstack 0
  5410   002BA4                     _USART_TX_ISR:
  5411                           	callstack 25
  5412   002BA4                     
  5413                           ;MCAL_Layer/USART/hal_usart.c: 286:     PIE1bits.TXIE = 0;
  5414   002BA4  989D               	bcf	157,4,c	;volatile
  5415   002BA6  0012               	return		;funcret
  5416   002BA8                     __end_of_USART_TX_ISR:
  5417                           	callstack 0
  5418                           
  5419 ;; *************** function _USART_RX_ISR *****************
  5420 ;; Defined at:
  5421 ;;		line 293 in file "MCAL_Layer/USART/hal_usart.c"
  5422 ;; Parameters:    Size  Location     Type
  5423 ;;		None
  5424 ;; Auto vars:     Size  Location     Type
  5425 ;;		None
  5426 ;; Return value:  Size  Location     Type
  5427 ;;                  1    wreg      void 
  5428 ;; Registers used:
  5429 ;;		wreg, status,2, status,0
  5430 ;; Tracked objects:
  5431 ;;		On entry : 0/0
  5432 ;;		On exit  : 0/0
  5433 ;;		Unchanged: 0/0
  5434 ;; Data sizes:     COMRAM   BANK0   BANK1   BANK2   BANK3   BANK4   BANK5   BANK6   BANK7   BANK8   BANK9  BANK10  BANK1
      +1  BANK12  BANK13  BANK14  BANK15
  5435 ;;      Params:         0       0       0       0       0       0       0       0       0       0       0       0       
      +0       0       0       0       0
  5436 ;;      Locals:         0       0       0       0       0       0       0       0       0       0       0       0       
      +0       0       0       0       0
  5437 ;;      Temps:          0       0       0       0       0       0       0       0       0       0       0       0       
      +0       0       0       0       0
  5438 ;;      Totals:         0       0       0       0       0       0       0       0       0       0       0       0       
      +0       0       0       0       0
  5439 ;;Total ram usage:        0 bytes
  5440 ;; Hardware stack levels used: 1
  5441 ;; This function calls:
  5442 ;;		Nothing
  5443 ;; This function is called by:
  5444 ;;		_InterruptManagerHigh
  5445 ;; This function uses a non-reentrant model
  5446 ;;
  5447                           
  5448                           	psect	text26
  5449   002BC8                     __ptext26:
  5450                           	callstack 0
  5451   002BC8                     _USART_RX_ISR:
  5452                           	callstack 25
  5453   002BC8  0012               	return		;funcret
  5454   002BCA                     __end_of_USART_RX_ISR:
  5455                           	callstack 0
  5456                           
  5457 ;; *************** function _TIMER3_ISR *****************
  5458 ;; Defined at:
  5459 ;;		line 125 in file "MCAL_Layer/Timer3/mcal_timer3.c"
  5460 ;; Parameters:    Size  Location     Type
  5461 ;;		None
  5462 ;; Auto vars:     Size  Location     Type
  5463 ;;		None
  5464 ;; Return value:  Size  Location     Type
  5465 ;;                  1    wreg      void 
  5466 ;; Registers used:
  5467 ;;		wreg, status,2
  5468 ;; Tracked objects:
  5469 ;;		On entry : 0/0
  5470 ;;		On exit  : 0/0
  5471 ;;		Unchanged: 0/0
  5472 ;; Data sizes:     COMRAM   BANK0   BANK1   BANK2   BANK3   BANK4   BANK5   BANK6   BANK7   BANK8   BANK9  BANK10  BANK1
      +1  BANK12  BANK13  BANK14  BANK15
  5473 ;;      Params:         0       0       0       0       0       0       0       0       0       0       0       0       
      +0       0       0       0       0
  5474 ;;      Locals:         0       0       0       0       0       0       0       0       0       0       0       0       
      +0       0       0       0       0
  5475 ;;      Temps:          0       0       0       0       0       0       0       0       0       0       0       0       
      +0       0       0       0       0
  5476 ;;      Totals:         0       0       0       0       0       0       0       0       0       0       0       0       
      +0       0       0       0       0
  5477 ;;Total ram usage:        0 bytes
  5478 ;; Hardware stack levels used: 1
  5479 ;; This function calls:
  5480 ;;		Nothing
  5481 ;; This function is called by:
  5482 ;;		_InterruptManagerHigh
  5483 ;; This function uses a non-reentrant model
  5484 ;;
  5485                           
  5486                           	psect	text27
  5487   002B7A                     __ptext27:
  5488                           	callstack 0
  5489   002B7A                     _TIMER3_ISR:
  5490                           	callstack 25
  5491   002B7A                     
  5492                           ;MCAL_Layer/Timer3/mcal_timer3.c: 126:     (PIR2bits.TMR3IF = 0);
  5493   002B7A  92A1               	bcf	161,1,c	;volatile
  5494   002B7C                     
  5495                           ;MCAL_Layer/Timer3/mcal_timer3.c: 127:     TMR3H = (timer3_preload_value) >> 8;
  5496   002B7C  5037               	movf	(_timer3_preload_value+1)^0,w,c
  5497   002B7E  6EB3               	movwf	179,c	;volatile
  5498   002B80                     
  5499                           ;MCAL_Layer/Timer3/mcal_timer3.c: 128:     TMR3L = (uint8)(timer3_preload_value);
  5500   002B80  C036  FFB2         	movff	_timer3_preload_value,4018	;volatile
  5501   002B84  0012               	return		;funcret
  5502   002B86                     __end_of_TIMER3_ISR:
  5503                           	callstack 0
  5504                           
  5505 ;; *************** function _TIMER2_ISR *****************
  5506 ;; Defined at:
  5507 ;;		line 111 in file "MCAL_Layer/Timer2/mcal_timer2.c"
  5508 ;; Parameters:    Size  Location     Type
  5509 ;;		None
  5510 ;; Auto vars:     Size  Location     Type
  5511 ;;		None
  5512 ;; Return value:  Size  Location     Type
  5513 ;;                  1    wreg      void 
  5514 ;; Registers used:
  5515 ;;		None
  5516 ;; Tracked objects:
  5517 ;;		On entry : 0/0
  5518 ;;		On exit  : 0/0
  5519 ;;		Unchanged: 0/0
  5520 ;; Data sizes:     COMRAM   BANK0   BANK1   BANK2   BANK3   BANK4   BANK5   BANK6   BANK7   BANK8   BANK9  BANK10  BANK1
      +1  BANK12  BANK13  BANK14  BANK15
  5521 ;;      Params:         0       0       0       0       0       0       0       0       0       0       0       0       
      +0       0       0       0       0
  5522 ;;      Locals:         0       0       0       0       0       0       0       0       0       0       0       0       
      +0       0       0       0       0
  5523 ;;      Temps:          0       0       0       0       0       0       0       0       0       0       0       0       
      +0       0       0       0       0
  5524 ;;      Totals:         0       0       0       0       0       0       0       0       0       0       0       0       
      +0       0       0       0       0
  5525 ;;Total ram usage:        0 bytes
  5526 ;; Hardware stack levels used: 1
  5527 ;; This function calls:
  5528 ;;		Nothing
  5529 ;; This function is called by:
  5530 ;;		_InterruptManagerHigh
  5531 ;; This function uses a non-reentrant model
  5532 ;;
  5533                           
  5534                           	psect	text28
  5535   002B9C                     __ptext28:
  5536                           	callstack 0
  5537   002B9C                     _TIMER2_ISR:
  5538                           	callstack 25
  5539   002B9C                     
  5540                           ;MCAL_Layer/Timer2/mcal_timer2.c: 112:     (PIR1bits.TMR2IF = 0);
  5541   002B9C  929E               	bcf	158,1,c	;volatile
  5542                           
  5543                           ;MCAL_Layer/Timer2/mcal_timer2.c: 113:     TMR2 = (uint8)(pre_load);
  5544   002B9E  C038  FFCC         	movff	_pre_load@mcal_timer2$F3864,4044	;volatile
  5545   002BA2  0012               	return		;funcret
  5546   002BA4                     __end_of_TIMER2_ISR:
  5547                           	callstack 0
  5548                           
  5549 ;; *************** function _TIMER1_ISR *****************
  5550 ;; Defined at:
  5551 ;;		line 141 in file "MCAL_Layer/Timer1/mcal_timer1.c"
  5552 ;; Parameters:    Size  Location     Type
  5553 ;;		None
  5554 ;; Auto vars:     Size  Location     Type
  5555 ;;		None
  5556 ;; Return value:  Size  Location     Type
  5557 ;;                  1    wreg      void 
  5558 ;; Registers used:
  5559 ;;		wreg, status,2
  5560 ;; Tracked objects:
  5561 ;;		On entry : 0/0
  5562 ;;		On exit  : 0/0
  5563 ;;		Unchanged: 0/0
  5564 ;; Data sizes:     COMRAM   BANK0   BANK1   BANK2   BANK3   BANK4   BANK5   BANK6   BANK7   BANK8   BANK9  BANK10  BANK1
      +1  BANK12  BANK13  BANK14  BANK15
  5565 ;;      Params:         0       0       0       0       0       0       0       0       0       0       0       0       
      +0       0       0       0       0
  5566 ;;      Locals:         0       0       0       0       0       0       0       0       0       0       0       0       
      +0       0       0       0       0
  5567 ;;      Temps:          0       0       0       0       0       0       0       0       0       0       0       0       
      +0       0       0       0       0
  5568 ;;      Totals:         0       0       0       0       0       0       0       0       0       0       0       0       
      +0       0       0       0       0
  5569 ;;Total ram usage:        0 bytes
  5570 ;; Hardware stack levels used: 1
  5571 ;; This function calls:
  5572 ;;		Nothing
  5573 ;; This function is called by:
  5574 ;;		_InterruptManagerHigh
  5575 ;; This function uses a non-reentrant model
  5576 ;;
  5577                           
  5578                           	psect	text29
  5579   002B92                     __ptext29:
  5580                           	callstack 0
  5581   002B92                     _TIMER1_ISR:
  5582                           	callstack 25
  5583   002B92                     
  5584                           ;MCAL_Layer/Timer1/mcal_timer1.c: 147:     TMR1H = (pre_load>>8);
  5585   002B92  503B               	movf	(_pre_load@mcal_timer1$F3694+1)^0,w,c	;volatile
  5586   002B94  6ECF               	movwf	207,c	;volatile
  5587   002B96                     
  5588                           ;MCAL_Layer/Timer1/mcal_timer1.c: 148:     TMR1L = (uint8)(pre_load);
  5589   002B96  C03A  FFCE         	movff	_pre_load@mcal_timer1$F3694,4046	;volatile
  5590   002B9A  0012               	return		;funcret
  5591   002B9C                     __end_of_TIMER1_ISR:
  5592                           	callstack 0
  5593                           
  5594 ;; *************** function _TIMER0_ISR *****************
  5595 ;; Defined at:
  5596 ;;		line 180 in file "MCAL_Layer/Timer0/mcal_timer0.c"
  5597 ;; Parameters:    Size  Location     Type
  5598 ;;		None
  5599 ;; Auto vars:     Size  Location     Type
  5600 ;;		None
  5601 ;; Return value:  Size  Location     Type
  5602 ;;                  1    wreg      void 
  5603 ;; Registers used:
  5604 ;;		wreg, status,2
  5605 ;; Tracked objects:
  5606 ;;		On entry : 0/0
  5607 ;;		On exit  : 0/0
  5608 ;;		Unchanged: 0/0
  5609 ;; Data sizes:     COMRAM   BANK0   BANK1   BANK2   BANK3   BANK4   BANK5   BANK6   BANK7   BANK8   BANK9  BANK10  BANK1
      +1  BANK12  BANK13  BANK14  BANK15
  5610 ;;      Params:         0       0       0       0       0       0       0       0       0       0       0       0       
      +0       0       0       0       0
  5611 ;;      Locals:         0       0       0       0       0       0       0       0       0       0       0       0       
      +0       0       0       0       0
  5612 ;;      Temps:          0       0       0       0       0       0       0       0       0       0       0       0       
      +0       0       0       0       0
  5613 ;;      Totals:         0       0       0       0       0       0       0       0       0       0       0       0       
      +0       0       0       0       0
  5614 ;;Total ram usage:        0 bytes
  5615 ;; Hardware stack levels used: 1
  5616 ;; This function calls:
  5617 ;;		Nothing
  5618 ;; This function is called by:
  5619 ;;		_InterruptManagerHigh
  5620 ;; This function uses a non-reentrant model
  5621 ;;
  5622                           
  5623                           	psect	text30
  5624   002B86                     __ptext30:
  5625                           	callstack 0
  5626   002B86                     _TIMER0_ISR:
  5627                           	callstack 25
  5628   002B86                     
  5629                           ;MCAL_Layer/Timer0/mcal_timer0.c: 184:     (INTCONbits.TMR0IF = 0);
  5630   002B86  94F2               	bcf	242,2,c	;volatile
  5631   002B88                     
  5632                           ;MCAL_Layer/Timer0/mcal_timer0.c: 186:     TMR0H = ((pre_load)>>8);
  5633   002B88  503D               	movf	(_pre_load+1)^0,w,c	;volatile
  5634   002B8A  6ED7               	movwf	215,c	;volatile
  5635   002B8C                     
  5636                           ;MCAL_Layer/Timer0/mcal_timer0.c: 187:     TMR0L = (uint8)(pre_load);
  5637   002B8C  C03C  FFD6         	movff	_pre_load,4054	;volatile
  5638   002B90  0012               	return		;funcret
  5639   002B92                     __end_of_TIMER0_ISR:
  5640                           	callstack 0
  5641                           
  5642 ;; *************** function _SPI_ISR *****************
  5643 ;; Defined at:
  5644 ;;		line 178 in file "MCAL_Layer/SPI/hal_spi.c"
  5645 ;; Parameters:    Size  Location     Type
  5646 ;;		None
  5647 ;; Auto vars:     Size  Location     Type
  5648 ;;		None
  5649 ;; Return value:  Size  Location     Type
  5650 ;;                  1    wreg      void 
  5651 ;; Registers used:
  5652 ;;		None
  5653 ;; Tracked objects:
  5654 ;;		On entry : 0/0
  5655 ;;		On exit  : 0/0
  5656 ;;		Unchanged: 0/0
  5657 ;; Data sizes:     COMRAM   BANK0   BANK1   BANK2   BANK3   BANK4   BANK5   BANK6   BANK7   BANK8   BANK9  BANK10  BANK1
      +1  BANK12  BANK13  BANK14  BANK15
  5658 ;;      Params:         0       0       0       0       0       0       0       0       0       0       0       0       
      +0       0       0       0       0
  5659 ;;      Locals:         0       0       0       0       0       0       0       0       0       0       0       0       
      +0       0       0       0       0
  5660 ;;      Temps:          0       0       0       0       0       0       0       0       0       0       0       0       
      +0       0       0       0       0
  5661 ;;      Totals:         0       0       0       0       0       0       0       0       0       0       0       0       
      +0       0       0       0       0
  5662 ;;Total ram usage:        0 bytes
  5663 ;; Hardware stack levels used: 1
  5664 ;; This function calls:
  5665 ;;		Nothing
  5666 ;; This function is called by:
  5667 ;;		_InterruptManagerHigh
  5668 ;; This function uses a non-reentrant model
  5669 ;;
  5670                           
  5671                           	psect	text31
  5672   002BCA                     __ptext31:
  5673                           	callstack 0
  5674   002BCA                     _SPI_ISR:
  5675                           	callstack 25
  5676   002BCA  0012               	return		;funcret
  5677   002BCC                     __end_of_SPI_ISR:
  5678                           	callstack 0
  5679                           
  5680 ;; *************** function _RB7_ISR *****************
  5681 ;; Defined at:
  5682 ;;		line 260 in file "MCAL_Layer/Interrupt/mcal_external_interrupt.c"
  5683 ;; Parameters:    Size  Location     Type
  5684 ;;  state           1    wreg     unsigned char 
  5685 ;; Auto vars:     Size  Location     Type
  5686 ;;  state           1    0[COMRAM] unsigned char 
  5687 ;; Return value:  Size  Location     Type
  5688 ;;                  1    wreg      void 
  5689 ;; Registers used:
  5690 ;;		wreg, status,2, status,0
  5691 ;; Tracked objects:
  5692 ;;		On entry : 0/0
  5693 ;;		On exit  : 0/0
  5694 ;;		Unchanged: 0/0
  5695 ;; Data sizes:     COMRAM   BANK0   BANK1   BANK2   BANK3   BANK4   BANK5   BANK6   BANK7   BANK8   BANK9  BANK10  BANK1
      +1  BANK12  BANK13  BANK14  BANK15
  5696 ;;      Params:         0       0       0       0       0       0       0       0       0       0       0       0       
      +0       0       0       0       0
  5697 ;;      Locals:         1       0       0       0       0       0       0       0       0       0       0       0       
      +0       0       0       0       0
  5698 ;;      Temps:          0       0       0       0       0       0       0       0       0       0       0       0       
      +0       0       0       0       0
  5699 ;;      Totals:         1       0       0       0       0       0       0       0       0       0       0       0       
      +0       0       0       0       0
  5700 ;;Total ram usage:        1 bytes
  5701 ;; Hardware stack levels used: 1
  5702 ;; This function calls:
  5703 ;;		Nothing
  5704 ;; This function is called by:
  5705 ;;		_InterruptManagerHigh
  5706 ;; This function uses a non-reentrant model
  5707 ;;
  5708                           
  5709                           	psect	text32
  5710   002AE6                     __ptext32:
  5711                           	callstack 0
  5712   002AE6                     _RB7_ISR:
  5713                           	callstack 25
  5714                           
  5715                           ;incstack = 0
  5716                           ;RB7_ISR@state stored from wreg
  5717   002AE6  6E01               	movwf	RB7_ISR@state^0,c
  5718   002AE8                     
  5719                           ;MCAL_Layer/Interrupt/mcal_external_interrupt.c: 260: void RB7_ISR(uint8 state);MCAL_Lay
      +                          er/Interrupt/mcal_external_interrupt.c: 261: {;MCAL_Layer/Interrupt/mcal_external_interr
      +                          upt.c: 263:     (INTCONbits.RBIF = 0);
  5720   002AE8  90F2               	bcf	242,0,c	;volatile
  5721   002AEA                     
  5722                           ;MCAL_Layer/Interrupt/mcal_external_interrupt.c: 267:     if(0 == state)
  5723   002AEA  5001               	movf	RB7_ISR@state^0,w,c
  5724   002AEC  A4D8               	btfss	status,2,c
  5725   002AEE  EF7B  F015         	goto	i2u427_41
  5726   002AF2  EF7D  F015         	goto	i2u427_40
  5727   002AF6                     i2u427_41:
  5728   002AF6  EF7F  F015         	goto	i2l5794
  5729   002AFA                     i2u427_40:
  5730   002AFA  EF7F  F015         	goto	i2l1037
  5731   002AFE                     i2l5794:
  5732   002AFE                     i2l1037:
  5733   002AFE  0012               	return		;funcret
  5734   002B00                     __end_of_RB7_ISR:
  5735                           	callstack 0
  5736                           
  5737 ;; *************** function _RB6_ISR *****************
  5738 ;; Defined at:
  5739 ;;		line 236 in file "MCAL_Layer/Interrupt/mcal_external_interrupt.c"
  5740 ;; Parameters:    Size  Location     Type
  5741 ;;  state           1    wreg     unsigned char 
  5742 ;; Auto vars:     Size  Location     Type
  5743 ;;  state           1    0[COMRAM] unsigned char 
  5744 ;; Return value:  Size  Location     Type
  5745 ;;                  1    wreg      void 
  5746 ;; Registers used:
  5747 ;;		wreg, status,2, status,0
  5748 ;; Tracked objects:
  5749 ;;		On entry : 0/0
  5750 ;;		On exit  : 0/0
  5751 ;;		Unchanged: 0/0
  5752 ;; Data sizes:     COMRAM   BANK0   BANK1   BANK2   BANK3   BANK4   BANK5   BANK6   BANK7   BANK8   BANK9  BANK10  BANK1
      +1  BANK12  BANK13  BANK14  BANK15
  5753 ;;      Params:         0       0       0       0       0       0       0       0       0       0       0       0       
      +0       0       0       0       0
  5754 ;;      Locals:         1       0       0       0       0       0       0       0       0       0       0       0       
      +0       0       0       0       0
  5755 ;;      Temps:          0       0       0       0       0       0       0       0       0       0       0       0       
      +0       0       0       0       0
  5756 ;;      Totals:         1       0       0       0       0       0       0       0       0       0       0       0       
      +0       0       0       0       0
  5757 ;;Total ram usage:        1 bytes
  5758 ;; Hardware stack levels used: 1
  5759 ;; This function calls:
  5760 ;;		Nothing
  5761 ;; This function is called by:
  5762 ;;		_InterruptManagerHigh
  5763 ;; This function uses a non-reentrant model
  5764 ;;
  5765                           
  5766                           	psect	text33
  5767   002B00                     __ptext33:
  5768                           	callstack 0
  5769   002B00                     _RB6_ISR:
  5770                           	callstack 25
  5771                           
  5772                           ;incstack = 0
  5773                           ;RB6_ISR@state stored from wreg
  5774   002B00  6E01               	movwf	RB6_ISR@state^0,c
  5775   002B02                     
  5776                           ;MCAL_Layer/Interrupt/mcal_external_interrupt.c: 236: void RB6_ISR(uint8 state);MCAL_Lay
      +                          er/Interrupt/mcal_external_interrupt.c: 237: {;MCAL_Layer/Interrupt/mcal_external_interr
      +                          upt.c: 239:     (INTCONbits.RBIF = 0);
  5777   002B02  90F2               	bcf	242,0,c	;volatile
  5778   002B04                     
  5779                           ;MCAL_Layer/Interrupt/mcal_external_interrupt.c: 243:     if(0 == state)
  5780   002B04  5001               	movf	RB6_ISR@state^0,w,c
  5781   002B06  A4D8               	btfss	status,2,c
  5782   002B08  EF88  F015         	goto	i2u426_41
  5783   002B0C  EF8A  F015         	goto	i2u426_40
  5784   002B10                     i2u426_41:
  5785   002B10  EF8C  F015         	goto	i2l5780
  5786   002B14                     i2u426_40:
  5787   002B14  EF8C  F015         	goto	i2l1026
  5788   002B18                     i2l5780:
  5789   002B18                     i2l1026:
  5790   002B18  0012               	return		;funcret
  5791   002B1A                     __end_of_RB6_ISR:
  5792                           	callstack 0
  5793                           
  5794 ;; *************** function _RB5_ISR *****************
  5795 ;; Defined at:
  5796 ;;		line 212 in file "MCAL_Layer/Interrupt/mcal_external_interrupt.c"
  5797 ;; Parameters:    Size  Location     Type
  5798 ;;  state           1    wreg     unsigned char 
  5799 ;; Auto vars:     Size  Location     Type
  5800 ;;  state           1    0[COMRAM] unsigned char 
  5801 ;; Return value:  Size  Location     Type
  5802 ;;                  1    wreg      void 
  5803 ;; Registers used:
  5804 ;;		wreg, status,2, status,0
  5805 ;; Tracked objects:
  5806 ;;		On entry : 0/0
  5807 ;;		On exit  : 0/0
  5808 ;;		Unchanged: 0/0
  5809 ;; Data sizes:     COMRAM   BANK0   BANK1   BANK2   BANK3   BANK4   BANK5   BANK6   BANK7   BANK8   BANK9  BANK10  BANK1
      +1  BANK12  BANK13  BANK14  BANK15
  5810 ;;      Params:         0       0       0       0       0       0       0       0       0       0       0       0       
      +0       0       0       0       0
  5811 ;;      Locals:         1       0       0       0       0       0       0       0       0       0       0       0       
      +0       0       0       0       0
  5812 ;;      Temps:          0       0       0       0       0       0       0       0       0       0       0       0       
      +0       0       0       0       0
  5813 ;;      Totals:         1       0       0       0       0       0       0       0       0       0       0       0       
      +0       0       0       0       0
  5814 ;;Total ram usage:        1 bytes
  5815 ;; Hardware stack levels used: 1
  5816 ;; This function calls:
  5817 ;;		Nothing
  5818 ;; This function is called by:
  5819 ;;		_InterruptManagerHigh
  5820 ;; This function uses a non-reentrant model
  5821 ;;
  5822                           
  5823                           	psect	text34
  5824   002B1A                     __ptext34:
  5825                           	callstack 0
  5826   002B1A                     _RB5_ISR:
  5827                           	callstack 25
  5828                           
  5829                           ;incstack = 0
  5830                           ;RB5_ISR@state stored from wreg
  5831   002B1A  6E01               	movwf	RB5_ISR@state^0,c
  5832   002B1C                     
  5833                           ;MCAL_Layer/Interrupt/mcal_external_interrupt.c: 212: void RB5_ISR(uint8 state);MCAL_Lay
      +                          er/Interrupt/mcal_external_interrupt.c: 213: {;MCAL_Layer/Interrupt/mcal_external_interr
      +                          upt.c: 215:     (INTCONbits.RBIF = 0);
  5834   002B1C  90F2               	bcf	242,0,c	;volatile
  5835   002B1E                     
  5836                           ;MCAL_Layer/Interrupt/mcal_external_interrupt.c: 219:     if(0 == state)
  5837   002B1E  5001               	movf	RB5_ISR@state^0,w,c
  5838   002B20  A4D8               	btfss	status,2,c
  5839   002B22  EF95  F015         	goto	i2u425_41
  5840   002B26  EF97  F015         	goto	i2u425_40
  5841   002B2A                     i2u425_41:
  5842   002B2A  EF99  F015         	goto	i2l5766
  5843   002B2E                     i2u425_40:
  5844   002B2E  EF99  F015         	goto	i2l1015
  5845   002B32                     i2l5766:
  5846   002B32                     i2l1015:
  5847   002B32  0012               	return		;funcret
  5848   002B34                     __end_of_RB5_ISR:
  5849                           	callstack 0
  5850                           
  5851 ;; *************** function _RB4_ISR *****************
  5852 ;; Defined at:
  5853 ;;		line 187 in file "MCAL_Layer/Interrupt/mcal_external_interrupt.c"
  5854 ;; Parameters:    Size  Location     Type
  5855 ;;  state           1    wreg     unsigned char 
  5856 ;; Auto vars:     Size  Location     Type
  5857 ;;  state           1    0[COMRAM] unsigned char 
  5858 ;; Return value:  Size  Location     Type
  5859 ;;                  1    wreg      void 
  5860 ;; Registers used:
  5861 ;;		wreg, status,2, status,0
  5862 ;; Tracked objects:
  5863 ;;		On entry : 0/0
  5864 ;;		On exit  : 0/0
  5865 ;;		Unchanged: 0/0
  5866 ;; Data sizes:     COMRAM   BANK0   BANK1   BANK2   BANK3   BANK4   BANK5   BANK6   BANK7   BANK8   BANK9  BANK10  BANK1
      +1  BANK12  BANK13  BANK14  BANK15
  5867 ;;      Params:         0       0       0       0       0       0       0       0       0       0       0       0       
      +0       0       0       0       0
  5868 ;;      Locals:         1       0       0       0       0       0       0       0       0       0       0       0       
      +0       0       0       0       0
  5869 ;;      Temps:          0       0       0       0       0       0       0       0       0       0       0       0       
      +0       0       0       0       0
  5870 ;;      Totals:         1       0       0       0       0       0       0       0       0       0       0       0       
      +0       0       0       0       0
  5871 ;;Total ram usage:        1 bytes
  5872 ;; Hardware stack levels used: 1
  5873 ;; This function calls:
  5874 ;;		Nothing
  5875 ;; This function is called by:
  5876 ;;		_InterruptManagerHigh
  5877 ;; This function uses a non-reentrant model
  5878 ;;
  5879                           
  5880                           	psect	text35
  5881   002B34                     __ptext35:
  5882                           	callstack 0
  5883   002B34                     _RB4_ISR:
  5884                           	callstack 25
  5885                           
  5886                           ;incstack = 0
  5887                           ;RB4_ISR@state stored from wreg
  5888   002B34  6E01               	movwf	RB4_ISR@state^0,c
  5889   002B36                     
  5890                           ;MCAL_Layer/Interrupt/mcal_external_interrupt.c: 187: void RB4_ISR(uint8 state);MCAL_Lay
      +                          er/Interrupt/mcal_external_interrupt.c: 188: {;MCAL_Layer/Interrupt/mcal_external_interr
      +                          upt.c: 190:     (INTCONbits.RBIF = 0);
  5891   002B36  90F2               	bcf	242,0,c	;volatile
  5892   002B38                     
  5893                           ;MCAL_Layer/Interrupt/mcal_external_interrupt.c: 194:     if(0 == state)
  5894   002B38  5001               	movf	RB4_ISR@state^0,w,c
  5895   002B3A  A4D8               	btfss	status,2,c
  5896   002B3C  EFA2  F015         	goto	i2u424_41
  5897   002B40  EFA4  F015         	goto	i2u424_40
  5898   002B44                     i2u424_41:
  5899   002B44  EFA6  F015         	goto	i2l5752
  5900   002B48                     i2u424_40:
  5901   002B48  EFA6  F015         	goto	i2l1004
  5902   002B4C                     i2l5752:
  5903   002B4C                     i2l1004:
  5904   002B4C  0012               	return		;funcret
  5905   002B4E                     __end_of_RB4_ISR:
  5906                           	callstack 0
  5907                           
  5908 ;; *************** function _MSSP_I2C_ISR *****************
  5909 ;; Defined at:
  5910 ;;		line 242 in file "MCAL_Layer/I2C/hal_i2c.c"
  5911 ;; Parameters:    Size  Location     Type
  5912 ;;		None
  5913 ;; Auto vars:     Size  Location     Type
  5914 ;;		None
  5915 ;; Return value:  Size  Location     Type
  5916 ;;                  1    wreg      void 
  5917 ;; Registers used:
  5918 ;;		None
  5919 ;; Tracked objects:
  5920 ;;		On entry : 0/0
  5921 ;;		On exit  : 0/0
  5922 ;;		Unchanged: 0/0
  5923 ;; Data sizes:     COMRAM   BANK0   BANK1   BANK2   BANK3   BANK4   BANK5   BANK6   BANK7   BANK8   BANK9  BANK10  BANK1
      +1  BANK12  BANK13  BANK14  BANK15
  5924 ;;      Params:         0       0       0       0       0       0       0       0       0       0       0       0       
      +0       0       0       0       0
  5925 ;;      Locals:         0       0       0       0       0       0       0       0       0       0       0       0       
      +0       0       0       0       0
  5926 ;;      Temps:          0       0       0       0       0       0       0       0       0       0       0       0       
      +0       0       0       0       0
  5927 ;;      Totals:         0       0       0       0       0       0       0       0       0       0       0       0       
      +0       0       0       0       0
  5928 ;;Total ram usage:        0 bytes
  5929 ;; Hardware stack levels used: 1
  5930 ;; This function calls:
  5931 ;;		Nothing
  5932 ;; This function is called by:
  5933 ;;		_InterruptManagerHigh
  5934 ;; This function uses a non-reentrant model
  5935 ;;
  5936                           
  5937                           	psect	text36
  5938   002BA8                     __ptext36:
  5939                           	callstack 0
  5940   002BA8                     _MSSP_I2C_ISR:
  5941                           	callstack 25
  5942   002BA8                     
  5943                           ;MCAL_Layer/I2C/hal_i2c.c: 244:     (PIR1bits.SSPIF = 0);
  5944   002BA8  969E               	bcf	158,3,c	;volatile
  5945   002BAA  0012               	return		;funcret
  5946   002BAC                     __end_of_MSSP_I2C_ISR:
  5947                           	callstack 0
  5948                           
  5949 ;; *************** function _MSSP_I2C_BC_ISR *****************
  5950 ;; Defined at:
  5951 ;;		line 251 in file "MCAL_Layer/I2C/hal_i2c.c"
  5952 ;; Parameters:    Size  Location     Type
  5953 ;;		None
  5954 ;; Auto vars:     Size  Location     Type
  5955 ;;		None
  5956 ;; Return value:  Size  Location     Type
  5957 ;;                  1    wreg      void 
  5958 ;; Registers used:
  5959 ;;		None
  5960 ;; Tracked objects:
  5961 ;;		On entry : 0/0
  5962 ;;		On exit  : 0/0
  5963 ;;		Unchanged: 0/0
  5964 ;; Data sizes:     COMRAM   BANK0   BANK1   BANK2   BANK3   BANK4   BANK5   BANK6   BANK7   BANK8   BANK9  BANK10  BANK1
      +1  BANK12  BANK13  BANK14  BANK15
  5965 ;;      Params:         0       0       0       0       0       0       0       0       0       0       0       0       
      +0       0       0       0       0
  5966 ;;      Locals:         0       0       0       0       0       0       0       0       0       0       0       0       
      +0       0       0       0       0
  5967 ;;      Temps:          0       0       0       0       0       0       0       0       0       0       0       0       
      +0       0       0       0       0
  5968 ;;      Totals:         0       0       0       0       0       0       0       0       0       0       0       0       
      +0       0       0       0       0
  5969 ;;Total ram usage:        0 bytes
  5970 ;; Hardware stack levels used: 1
  5971 ;; This function calls:
  5972 ;;		Nothing
  5973 ;; This function is called by:
  5974 ;;		_InterruptManagerHigh
  5975 ;; This function uses a non-reentrant model
  5976 ;;
  5977                           
  5978                           	psect	text37
  5979   002BAC                     __ptext37:
  5980                           	callstack 0
  5981   002BAC                     _MSSP_I2C_BC_ISR:
  5982                           	callstack 25
  5983   002BAC                     
  5984                           ;MCAL_Layer/I2C/hal_i2c.c: 253:     (PIR2bits.BCLIF = 0);
  5985   002BAC  96A1               	bcf	161,3,c	;volatile
  5986   002BAE  0012               	return		;funcret
  5987   002BB0                     __end_of_MSSP_I2C_BC_ISR:
  5988                           	callstack 0
  5989                           
  5990 ;; *************** function _INT2_ISR *****************
  5991 ;; Defined at:
  5992 ;;		line 109 in file "MCAL_Layer/Interrupt/mcal_external_interrupt.c"
  5993 ;; Parameters:    Size  Location     Type
  5994 ;;		None
  5995 ;; Auto vars:     Size  Location     Type
  5996 ;;		None
  5997 ;; Return value:  Size  Location     Type
  5998 ;;                  1    wreg      void 
  5999 ;; Registers used:
  6000 ;;		None
  6001 ;; Tracked objects:
  6002 ;;		On entry : 0/0
  6003 ;;		On exit  : 0/0
  6004 ;;		Unchanged: 0/0
  6005 ;; Data sizes:     COMRAM   BANK0   BANK1   BANK2   BANK3   BANK4   BANK5   BANK6   BANK7   BANK8   BANK9  BANK10  BANK1
      +1  BANK12  BANK13  BANK14  BANK15
  6006 ;;      Params:         0       0       0       0       0       0       0       0       0       0       0       0       
      +0       0       0       0       0
  6007 ;;      Locals:         0       0       0       0       0       0       0       0       0       0       0       0       
      +0       0       0       0       0
  6008 ;;      Temps:          0       0       0       0       0       0       0       0       0       0       0       0       
      +0       0       0       0       0
  6009 ;;      Totals:         0       0       0       0       0       0       0       0       0       0       0       0       
      +0       0       0       0       0
  6010 ;;Total ram usage:        0 bytes
  6011 ;; Hardware stack levels used: 1
  6012 ;; This function calls:
  6013 ;;		Nothing
  6014 ;; This function is called by:
  6015 ;;		_InterruptManagerHigh
  6016 ;; This function uses a non-reentrant model
  6017 ;;
  6018                           
  6019                           	psect	text38
  6020   002BB0                     __ptext38:
  6021                           	callstack 0
  6022   002BB0                     _INT2_ISR:
  6023                           	callstack 25
  6024   002BB0                     
  6025                           ;MCAL_Layer/Interrupt/mcal_external_interrupt.c: 112:     (INTCON3bits.INT2F = 0);
  6026   002BB0  92F0               	bcf	240,1,c	;volatile
  6027   002BB2  0012               	return		;funcret
  6028   002BB4                     __end_of_INT2_ISR:
  6029                           	callstack 0
  6030                           
  6031 ;; *************** function _INT1_ISR *****************
  6032 ;; Defined at:
  6033 ;;		line 94 in file "MCAL_Layer/Interrupt/mcal_external_interrupt.c"
  6034 ;; Parameters:    Size  Location     Type
  6035 ;;		None
  6036 ;; Auto vars:     Size  Location     Type
  6037 ;;		None
  6038 ;; Return value:  Size  Location     Type
  6039 ;;                  1    wreg      void 
  6040 ;; Registers used:
  6041 ;;		None
  6042 ;; Tracked objects:
  6043 ;;		On entry : 0/0
  6044 ;;		On exit  : 0/0
  6045 ;;		Unchanged: 0/0
  6046 ;; Data sizes:     COMRAM   BANK0   BANK1   BANK2   BANK3   BANK4   BANK5   BANK6   BANK7   BANK8   BANK9  BANK10  BANK1
      +1  BANK12  BANK13  BANK14  BANK15
  6047 ;;      Params:         0       0       0       0       0       0       0       0       0       0       0       0       
      +0       0       0       0       0
  6048 ;;      Locals:         0       0       0       0       0       0       0       0       0       0       0       0       
      +0       0       0       0       0
  6049 ;;      Temps:          0       0       0       0       0       0       0       0       0       0       0       0       
      +0       0       0       0       0
  6050 ;;      Totals:         0       0       0       0       0       0       0       0       0       0       0       0       
      +0       0       0       0       0
  6051 ;;Total ram usage:        0 bytes
  6052 ;; Hardware stack levels used: 1
  6053 ;; This function calls:
  6054 ;;		Nothing
  6055 ;; This function is called by:
  6056 ;;		_InterruptManagerHigh
  6057 ;; This function uses a non-reentrant model
  6058 ;;
  6059                           
  6060                           	psect	text39
  6061   002BB4                     __ptext39:
  6062                           	callstack 0
  6063   002BB4                     _INT1_ISR:
  6064                           	callstack 25
  6065   002BB4                     
  6066                           ;MCAL_Layer/Interrupt/mcal_external_interrupt.c: 97:     (INTCON3bits.INT1F = 0);
  6067   002BB4  90F0               	bcf	240,0,c	;volatile
  6068   002BB6  0012               	return		;funcret
  6069   002BB8                     __end_of_INT1_ISR:
  6070                           	callstack 0
  6071                           
  6072 ;; *************** function _INT0_ISR *****************
  6073 ;; Defined at:
  6074 ;;		line 79 in file "MCAL_Layer/Interrupt/mcal_external_interrupt.c"
  6075 ;; Parameters:    Size  Location     Type
  6076 ;;		None
  6077 ;; Auto vars:     Size  Location     Type
  6078 ;;		None
  6079 ;; Return value:  Size  Location     Type
  6080 ;;                  1    wreg      void 
  6081 ;; Registers used:
  6082 ;;		None
  6083 ;; Tracked objects:
  6084 ;;		On entry : 0/0
  6085 ;;		On exit  : 0/0
  6086 ;;		Unchanged: 0/0
  6087 ;; Data sizes:     COMRAM   BANK0   BANK1   BANK2   BANK3   BANK4   BANK5   BANK6   BANK7   BANK8   BANK9  BANK10  BANK1
      +1  BANK12  BANK13  BANK14  BANK15
  6088 ;;      Params:         0       0       0       0       0       0       0       0       0       0       0       0       
      +0       0       0       0       0
  6089 ;;      Locals:         0       0       0       0       0       0       0       0       0       0       0       0       
      +0       0       0       0       0
  6090 ;;      Temps:          0       0       0       0       0       0       0       0       0       0       0       0       
      +0       0       0       0       0
  6091 ;;      Totals:         0       0       0       0       0       0       0       0       0       0       0       0       
      +0       0       0       0       0
  6092 ;;Total ram usage:        0 bytes
  6093 ;; Hardware stack levels used: 1
  6094 ;; This function calls:
  6095 ;;		Nothing
  6096 ;; This function is called by:
  6097 ;;		_InterruptManagerHigh
  6098 ;; This function uses a non-reentrant model
  6099 ;;
  6100                           
  6101                           	psect	text40
  6102   002BB8                     __ptext40:
  6103                           	callstack 0
  6104   002BB8                     _INT0_ISR:
  6105                           	callstack 25
  6106   002BB8                     
  6107                           ;MCAL_Layer/Interrupt/mcal_external_interrupt.c: 82:     (INTCONbits.INT0IF = 0);
  6108   002BB8  92F2               	bcf	242,1,c	;volatile
  6109   002BBA  0012               	return		;funcret
  6110   002BBC                     __end_of_INT0_ISR:
  6111                           	callstack 0
  6112                           
  6113 ;; *************** function _ECCP_ISR *****************
  6114 ;; Defined at:
  6115 ;;		line 121 in file "MCAL_Layer/ECCP/hal_eccp.c"
  6116 ;; Parameters:    Size  Location     Type
  6117 ;;		None
  6118 ;; Auto vars:     Size  Location     Type
  6119 ;;		None
  6120 ;; Return value:  Size  Location     Type
  6121 ;;                  1    wreg      void 
  6122 ;; Registers used:
  6123 ;;		None
  6124 ;; Tracked objects:
  6125 ;;		On entry : 0/0
  6126 ;;		On exit  : 0/0
  6127 ;;		Unchanged: 0/0
  6128 ;; Data sizes:     COMRAM   BANK0   BANK1   BANK2   BANK3   BANK4   BANK5   BANK6   BANK7   BANK8   BANK9  BANK10  BANK1
      +1  BANK12  BANK13  BANK14  BANK15
  6129 ;;      Params:         0       0       0       0       0       0       0       0       0       0       0       0       
      +0       0       0       0       0
  6130 ;;      Locals:         0       0       0       0       0       0       0       0       0       0       0       0       
      +0       0       0       0       0
  6131 ;;      Temps:          0       0       0       0       0       0       0       0       0       0       0       0       
      +0       0       0       0       0
  6132 ;;      Totals:         0       0       0       0       0       0       0       0       0       0       0       0       
      +0       0       0       0       0
  6133 ;;Total ram usage:        0 bytes
  6134 ;; Hardware stack levels used: 1
  6135 ;; This function calls:
  6136 ;;		Nothing
  6137 ;; This function is called by:
  6138 ;;		_InterruptManagerHigh
  6139 ;; This function uses a non-reentrant model
  6140 ;;
  6141                           
  6142                           	psect	text41
  6143   002BBC                     __ptext41:
  6144                           	callstack 0
  6145   002BBC                     _ECCP_ISR:
  6146                           	callstack 25
  6147   002BBC                     
  6148                           ;MCAL_Layer/ECCP/hal_eccp.c: 122:     (PIR1bits.CCP1IF = 0);
  6149   002BBC  949E               	bcf	158,2,c	;volatile
  6150   002BBE  0012               	return		;funcret
  6151   002BC0                     __end_of_ECCP_ISR:
  6152                           	callstack 0
  6153                           
  6154 ;; *************** function _CCP2_ISR *****************
  6155 ;; Defined at:
  6156 ;;		line 423 in file "MCAL_Layer/CCP1/hal_ccp.c"
  6157 ;; Parameters:    Size  Location     Type
  6158 ;;		None
  6159 ;; Auto vars:     Size  Location     Type
  6160 ;;		None
  6161 ;; Return value:  Size  Location     Type
  6162 ;;                  1    wreg      void 
  6163 ;; Registers used:
  6164 ;;		None
  6165 ;; Tracked objects:
  6166 ;;		On entry : 0/0
  6167 ;;		On exit  : 0/0
  6168 ;;		Unchanged: 0/0
  6169 ;; Data sizes:     COMRAM   BANK0   BANK1   BANK2   BANK3   BANK4   BANK5   BANK6   BANK7   BANK8   BANK9  BANK10  BANK1
      +1  BANK12  BANK13  BANK14  BANK15
  6170 ;;      Params:         0       0       0       0       0       0       0       0       0       0       0       0       
      +0       0       0       0       0
  6171 ;;      Locals:         0       0       0       0       0       0       0       0       0       0       0       0       
      +0       0       0       0       0
  6172 ;;      Temps:          0       0       0       0       0       0       0       0       0       0       0       0       
      +0       0       0       0       0
  6173 ;;      Totals:         0       0       0       0       0       0       0       0       0       0       0       0       
      +0       0       0       0       0
  6174 ;;Total ram usage:        0 bytes
  6175 ;; Hardware stack levels used: 1
  6176 ;; This function calls:
  6177 ;;		Nothing
  6178 ;; This function is called by:
  6179 ;;		_InterruptManagerHigh
  6180 ;; This function uses a non-reentrant model
  6181 ;;
  6182                           
  6183                           	psect	text42
  6184   002BC0                     __ptext42:
  6185                           	callstack 0
  6186   002BC0                     _CCP2_ISR:
  6187                           	callstack 25
  6188   002BC0                     
  6189                           ;MCAL_Layer/CCP1/hal_ccp.c: 424:     (PIR2bits.CCP2IF = 0);
  6190   002BC0  90A1               	bcf	161,0,c	;volatile
  6191   002BC2  0012               	return		;funcret
  6192   002BC4                     __end_of_CCP2_ISR:
  6193                           	callstack 0
  6194                           
  6195 ;; *************** function _CCP1_ISR *****************
  6196 ;; Defined at:
  6197 ;;		line 417 in file "MCAL_Layer/CCP1/hal_ccp.c"
  6198 ;; Parameters:    Size  Location     Type
  6199 ;;		None
  6200 ;; Auto vars:     Size  Location     Type
  6201 ;;		None
  6202 ;; Return value:  Size  Location     Type
  6203 ;;                  1    wreg      void 
  6204 ;; Registers used:
  6205 ;;		None
  6206 ;; Tracked objects:
  6207 ;;		On entry : 0/0
  6208 ;;		On exit  : 0/0
  6209 ;;		Unchanged: 0/0
  6210 ;; Data sizes:     COMRAM   BANK0   BANK1   BANK2   BANK3   BANK4   BANK5   BANK6   BANK7   BANK8   BANK9  BANK10  BANK1
      +1  BANK12  BANK13  BANK14  BANK15
  6211 ;;      Params:         0       0       0       0       0       0       0       0       0       0       0       0       
      +0       0       0       0       0
  6212 ;;      Locals:         0       0       0       0       0       0       0       0       0       0       0       0       
      +0       0       0       0       0
  6213 ;;      Temps:          0       0       0       0       0       0       0       0       0       0       0       0       
      +0       0       0       0       0
  6214 ;;      Totals:         0       0       0       0       0       0       0       0       0       0       0       0       
      +0       0       0       0       0
  6215 ;;Total ram usage:        0 bytes
  6216 ;; Hardware stack levels used: 1
  6217 ;; This function calls:
  6218 ;;		Nothing
  6219 ;; This function is called by:
  6220 ;;		_InterruptManagerHigh
  6221 ;; This function uses a non-reentrant model
  6222 ;;
  6223                           
  6224                           	psect	text43
  6225   002BC4                     __ptext43:
  6226                           	callstack 0
  6227   002BC4                     _CCP1_ISR:
  6228                           	callstack 25
  6229   002BC4                     
  6230                           ;MCAL_Layer/CCP1/hal_ccp.c: 418:     (PIR1bits.CCP1IF = 0);
  6231   002BC4  949E               	bcf	158,2,c	;volatile
  6232   002BC6  0012               	return		;funcret
  6233   002BC8                     __end_of_CCP1_ISR:
  6234                           	callstack 0
  6235                           
  6236 ;; *************** function _ADC_ISR *****************
  6237 ;; Defined at:
  6238 ;;		line 326 in file "MCAL_Layer/MCAL_ADC/mcal_adc.c"
  6239 ;; Parameters:    Size  Location     Type
  6240 ;;		None
  6241 ;; Auto vars:     Size  Location     Type
  6242 ;;		None
  6243 ;; Return value:  Size  Location     Type
  6244 ;;                  1    wreg      void 
  6245 ;; Registers used:
  6246 ;;		wreg, fsr2l, fsr2h, status,2, status,0, pcl, pclath, pclatu, tosl, cstack
  6247 ;; Tracked objects:
  6248 ;;		On entry : 0/0
  6249 ;;		On exit  : 0/0
  6250 ;;		Unchanged: 0/0
  6251 ;; Data sizes:     COMRAM   BANK0   BANK1   BANK2   BANK3   BANK4   BANK5   BANK6   BANK7   BANK8   BANK9  BANK10  BANK1
      +1  BANK12  BANK13  BANK14  BANK15
  6252 ;;      Params:         0       0       0       0       0       0       0       0       0       0       0       0       
      +0       0       0       0       0
  6253 ;;      Locals:         0       0       0       0       0       0       0       0       0       0       0       0       
      +0       0       0       0       0
  6254 ;;      Temps:          0       0       0       0       0       0       0       0       0       0       0       0       
      +0       0       0       0       0
  6255 ;;      Totals:         0       0       0       0       0       0       0       0       0       0       0       0       
      +0       0       0       0       0
  6256 ;;Total ram usage:        0 bytes
  6257 ;; Hardware stack levels used: 1
  6258 ;; Hardware stack levels required when called: 2
  6259 ;; This function calls:
  6260 ;;		NULL
  6261 ;;		_ADC1_ISR
  6262 ;; This function is called by:
  6263 ;;		_InterruptManagerHigh
  6264 ;; This function uses a non-reentrant model
  6265 ;;
  6266                           
  6267                           	psect	text44
  6268   002A7A                     __ptext44:
  6269                           	callstack 0
  6270   002A7A                     _ADC_ISR:
  6271                           	callstack 23
  6272   002A7A                     
  6273                           ;MCAL_Layer/MCAL_ADC/mcal_adc.c: 330:     ( PIR1bits.ADIF = 0);
  6274   002A7A  9C9E               	bcf	158,6,c	;volatile
  6275   002A7C                     
  6276                           ;MCAL_Layer/MCAL_ADC/mcal_adc.c: 334:     if(((void*)0) == ADC_interruptHandler){}
  6277   002A7C  5052               	movf	_ADC_interruptHandler^0,w,c
  6278   002A7E  1053               	iorwf	(_ADC_interruptHandler+1)^0,w,c
  6279   002A80  A4D8               	btfss	status,2,c
  6280   002A82  EF45  F015         	goto	i2u422_41
  6281   002A86  EF47  F015         	goto	i2u422_40
  6282   002A8A                     i2u422_41:
  6283   002A8A  EF49  F015         	goto	i2l5742
  6284   002A8E                     i2u422_40:
  6285   002A8E  EF55  F015         	goto	i2l407
  6286   002A92                     i2l5742:
  6287                           
  6288                           ;MCAL_Layer/MCAL_ADC/mcal_adc.c: 336:         ADC_interruptHandler ();
  6289   002A92  D802               	call	i2u423_48
  6290   002A94  EF55  F015         	goto	i2u423_49
  6291   002A98                     i2u423_48:
  6292   002A98  0005               	push	
  6293   002A9A  6EFA               	movwf	pclath,c
  6294   002A9C  5052               	movf	_ADC_interruptHandler^0,w,c
  6295   002A9E  6EFD               	movwf	tosl,c
  6296   002AA0  5053               	movf	(_ADC_interruptHandler+1)^0,w,c
  6297   002AA2  6EFE               	movwf	tosh,c
  6298   002AA4  6AFF               	clrf	tosu,c
  6299   002AA6  50FA               	movf	pclath,w,c
  6300   002AA8  0012               	return		;indir
  6301   002AAA                     i2u423_49:
  6302   002AAA                     i2l407:
  6303   002AAA  0012               	return		;funcret
  6304   002AAC                     __end_of_ADC_ISR:
  6305                           	callstack 0
  6306                           
  6307 ;; *************** function _ADC1_ISR *****************
  6308 ;; Defined at:
  6309 ;;		line 107 in file "Application.c"
  6310 ;; Parameters:    Size  Location     Type
  6311 ;;		None
  6312 ;; Auto vars:     Size  Location     Type
  6313 ;;		None
  6314 ;; Return value:  Size  Location     Type
  6315 ;;                  1    wreg      void 
  6316 ;; Registers used:
  6317 ;;		wreg, fsr2l, fsr2h, status,2, status,0, cstack
  6318 ;; Tracked objects:
  6319 ;;		On entry : 0/0
  6320 ;;		On exit  : 0/0
  6321 ;;		Unchanged: 0/0
  6322 ;; Data sizes:     COMRAM   BANK0   BANK1   BANK2   BANK3   BANK4   BANK5   BANK6   BANK7   BANK8   BANK9  BANK10  BANK1
      +1  BANK12  BANK13  BANK14  BANK15
  6323 ;;      Params:         0       0       0       0       0       0       0       0       0       0       0       0       
      +0       0       0       0       0
  6324 ;;      Locals:         0       0       0       0       0       0       0       0       0       0       0       0       
      +0       0       0       0       0
  6325 ;;      Temps:          0       0       0       0       0       0       0       0       0       0       0       0       
      +0       0       0       0       0
  6326 ;;      Totals:         0       0       0       0       0       0       0       0       0       0       0       0       
      +0       0       0       0       0
  6327 ;;Total ram usage:        0 bytes
  6328 ;; Hardware stack levels used: 1
  6329 ;; Hardware stack levels required when called: 1
  6330 ;; This function calls:
  6331 ;;		_ADC_Get_Conversion_Result
  6332 ;; This function is called by:
  6333 ;;		_ADC_ISR
  6334 ;; This function uses a non-reentrant model
  6335 ;;
  6336                           
  6337                           	psect	text45
  6338   002AAC                     __ptext45:
  6339                           	callstack 0
  6340   002AAC                     _ADC1_ISR:
  6341                           	callstack 23
  6342   002AAC                     
  6343                           ;Application.c: 109:     ret = ADC_Get_Conversion_Result(&adc_1 ,&conv_result_temp);
  6344   002AAC  0EDB               	movlw	low _adc_1
  6345   002AAE  6E01               	movwf	ADC_Get_Conversion_Result@adc_^0,c
  6346   002AB0  0E00               	movlw	high _adc_1
  6347   002AB2  6E02               	movwf	(ADC_Get_Conversion_Result@adc_+1)^0,c
  6348   002AB4  0E5B               	movlw	low _conv_result_temp
  6349   002AB6  6E03               	movwf	ADC_Get_Conversion_Result@conversion_Result^0,c
  6350   002AB8  0E00               	movlw	high _conv_result_temp
  6351   002ABA  6E04               	movwf	(ADC_Get_Conversion_Result@conversion_Result+1)^0,c
  6352   002ABC  EC1A  F011         	call	_ADC_Get_Conversion_Result	;wreg free
  6353   002AC0  C001  F0F6         	movff	?_ADC_Get_Conversion_Result,_ret
  6354   002AC4  C002  F0F7         	movff	?_ADC_Get_Conversion_Result+1,_ret+1
  6355   002AC8  0012               	return		;funcret
  6356   002ACA                     __end_of_ADC1_ISR:
  6357                           	callstack 0
  6358                           
  6359 ;; *************** function _ADC_Get_Conversion_Result *****************
  6360 ;; Defined at:
  6361 ;;		line 201 in file "MCAL_Layer/MCAL_ADC/mcal_adc.c"
  6362 ;; Parameters:    Size  Location     Type
  6363 ;;  adc_            2    0[COMRAM] PTR const struct .
  6364 ;;		 -> adc_1(6), 
  6365 ;;  conversion_R    2    2[COMRAM] PTR unsigned short 
  6366 ;;		 -> conv_result_temp(2), 
  6367 ;; Auto vars:     Size  Location     Type
  6368 ;;  ret             2    7[COMRAM] unsigned int 
  6369 ;; Return value:  Size  Location     Type
  6370 ;;                  2    0[COMRAM] unsigned int 
  6371 ;; Registers used:
  6372 ;;		wreg, fsr2l, fsr2h, status,2, status,0
  6373 ;; Tracked objects:
  6374 ;;		On entry : 0/0
  6375 ;;		On exit  : 0/0
  6376 ;;		Unchanged: 0/0
  6377 ;; Data sizes:     COMRAM   BANK0   BANK1   BANK2   BANK3   BANK4   BANK5   BANK6   BANK7   BANK8   BANK9  BANK10  BANK1
      +1  BANK12  BANK13  BANK14  BANK15
  6378 ;;      Params:         4       0       0       0       0       0       0       0       0       0       0       0       
      +0       0       0       0       0
  6379 ;;      Locals:         2       0       0       0       0       0       0       0       0       0       0       0       
      +0       0       0       0       0
  6380 ;;      Temps:          3       0       0       0       0       0       0       0       0       0       0       0       
      +0       0       0       0       0
  6381 ;;      Totals:         9       0       0       0       0       0       0       0       0       0       0       0       
      +0       0       0       0       0
  6382 ;;Total ram usage:        9 bytes
  6383 ;; Hardware stack levels used: 1
  6384 ;; This function calls:
  6385 ;;		Nothing
  6386 ;; This function is called by:
  6387 ;;		_ADC1_ISR
  6388 ;;		_ADC_Get_Conversion_Blocking_Mode
  6389 ;; This function uses a non-reentrant model
  6390 ;;
  6391                           
  6392                           	psect	text46
  6393   002234                     __ptext46:
  6394                           	callstack 0
  6395   002234                     _ADC_Get_Conversion_Result:
  6396                           	callstack 23
  6397   002234                     
  6398                           ;MCAL_Layer/MCAL_ADC/mcal_adc.c: 201: Std_ReturnType ADC_Get_Conversion_Result(const ADC
      +                          _Conf_t *adc_ ,uint16 *conversion_Result);MCAL_Layer/MCAL_ADC/mcal_adc.c: 202: {;MCAL_La
      +                          yer/MCAL_ADC/mcal_adc.c: 203:    Std_ReturnType ret = (Std_ReturnType)0x01 ;
  6399   002234  0E00               	movlw	0
  6400   002236  6E09               	movwf	(ADC_Get_Conversion_Result@ret+1)^0,c
  6401   002238  0E01               	movlw	1
  6402   00223A  6E08               	movwf	ADC_Get_Conversion_Result@ret^0,c
  6403   00223C                     
  6404                           ;MCAL_Layer/MCAL_ADC/mcal_adc.c: 204:     if(((void*)0) == adc_ || ((void*)0) == convers
      +                          ion_Result)
  6405   00223C  5001               	movf	ADC_Get_Conversion_Result@adc_^0,w,c
  6406   00223E  1002               	iorwf	(ADC_Get_Conversion_Result@adc_+1)^0,w,c
  6407   002240  B4D8               	btfsc	status,2,c
  6408   002242  EF25  F011         	goto	i2u389_41
  6409   002246  EF27  F011         	goto	i2u389_40
  6410   00224A                     i2u389_41:
  6411   00224A  EF30  F011         	goto	i2l5412
  6412   00224E                     i2u389_40:
  6413   00224E  5003               	movf	ADC_Get_Conversion_Result@conversion_Result^0,w,c
  6414   002250  1004               	iorwf	(ADC_Get_Conversion_Result@conversion_Result+1)^0,w,c
  6415   002252  A4D8               	btfss	status,2,c
  6416   002254  EF2E  F011         	goto	i2u390_41
  6417   002258  EF30  F011         	goto	i2u390_40
  6418   00225C                     i2u390_41:
  6419   00225C  EF36  F011         	goto	i2l5414
  6420   002260                     i2u390_40:
  6421   002260                     i2l5412:
  6422                           
  6423                           ;MCAL_Layer/MCAL_ADC/mcal_adc.c: 205:     {;MCAL_Layer/MCAL_ADC/mcal_adc.c: 206:        
      +                           ret = (Std_ReturnType)0x00;
  6424   002260  0E00               	movlw	0
  6425   002262  6E09               	movwf	(ADC_Get_Conversion_Result@ret+1)^0,c
  6426   002264  0E00               	movlw	0
  6427   002266  6E08               	movwf	ADC_Get_Conversion_Result@ret^0,c
  6428                           
  6429                           ;MCAL_Layer/MCAL_ADC/mcal_adc.c: 207:     }
  6430   002268  EF8C  F011         	goto	i2l5426
  6431   00226C                     i2l5414:
  6432                           
  6433                           ;MCAL_Layer/MCAL_ADC/mcal_adc.c: 209:     {;MCAL_Layer/MCAL_ADC/mcal_adc.c: 210:        
      +                           if (1 == adc_->format_status)
  6434   00226C  EE20 F005          	lfsr	2,5
  6435   002270  5001               	movf	ADC_Get_Conversion_Result@adc_^0,w,c
  6436   002272  26D9               	addwf	fsr2l,f,c
  6437   002274  5002               	movf	(ADC_Get_Conversion_Result@adc_+1)^0,w,c
  6438   002276  22DA               	addwfc	fsr2h,f,c
  6439   002278  A2DF               	btfss	indf2,1,c
  6440   00227A  EF41  F011         	goto	i2u391_41
  6441   00227E  EF43  F011         	goto	i2u391_40
  6442   002282                     i2u391_41:
  6443   002282  EF57  F011         	goto	i2l5418
  6444   002286                     i2u391_40:
  6445   002286                     
  6446                           ;MCAL_Layer/MCAL_ADC/mcal_adc.c: 211:         {;MCAL_Layer/MCAL_ADC/mcal_adc.c: 212:    
      +                                   *conversion_Result = (uint16)((ADRESH << 8) + ADRESL);
  6447   002286  50C3               	movf	195,w,c	;volatile
  6448   002288  CFC4 F005          	movff	4036,??_ADC_Get_Conversion_Result	;volatile
  6449   00228C  6A06               	clrf	(??_ADC_Get_Conversion_Result+1)^0,c
  6450   00228E  C005  F006         	movff	??_ADC_Get_Conversion_Result,??_ADC_Get_Conversion_Result+1
  6451   002292  6A05               	clrf	??_ADC_Get_Conversion_Result^0,c
  6452   002294  2605               	addwf	??_ADC_Get_Conversion_Result^0,f,c
  6453   002296  0E00               	movlw	0
  6454   002298  2206               	addwfc	(??_ADC_Get_Conversion_Result+1)^0,f,c
  6455   00229A  C003  FFD9         	movff	ADC_Get_Conversion_Result@conversion_Result,fsr2l
  6456   00229E  C004  FFDA         	movff	ADC_Get_Conversion_Result@conversion_Result+1,fsr2h
  6457   0022A2  C005  FFDE         	movff	??_ADC_Get_Conversion_Result,postinc2
  6458   0022A6  C006  FFDD         	movff	??_ADC_Get_Conversion_Result+1,postdec2
  6459                           
  6460                           ;MCAL_Layer/MCAL_ADC/mcal_adc.c: 213:         }
  6461   0022AA  EF8C  F011         	goto	i2l5426
  6462   0022AE                     i2l5418:
  6463   0022AE  EE20 F005          	lfsr	2,5
  6464   0022B2  5001               	movf	ADC_Get_Conversion_Result@adc_^0,w,c
  6465   0022B4  26D9               	addwf	fsr2l,f,c
  6466   0022B6  5002               	movf	(ADC_Get_Conversion_Result@adc_+1)^0,w,c
  6467   0022B8  22DA               	addwfc	fsr2h,f,c
  6468   0022BA  B2DF               	btfsc	indf2,1,c
  6469   0022BC  EF62  F011         	goto	i2u392_41
  6470   0022C0  EF64  F011         	goto	i2u392_40
  6471   0022C4                     i2u392_41:
  6472   0022C4  EF80  F011         	goto	i2l5422
  6473   0022C8                     i2u392_40:
  6474   0022C8                     
  6475                           ;MCAL_Layer/MCAL_ADC/mcal_adc.c: 215:             *conversion_Result = (uint16)(((ADRESH
      +                           << 8) + ADRESL)>> 6);
  6476   0022C8  50C3               	movf	195,w,c	;volatile
  6477   0022CA  CFC4 F005          	movff	4036,??_ADC_Get_Conversion_Result	;volatile
  6478   0022CE  6A06               	clrf	(??_ADC_Get_Conversion_Result+1)^0,c
  6479   0022D0  C005  F006         	movff	??_ADC_Get_Conversion_Result,??_ADC_Get_Conversion_Result+1
  6480   0022D4  6A05               	clrf	??_ADC_Get_Conversion_Result^0,c
  6481   0022D6  2605               	addwf	??_ADC_Get_Conversion_Result^0,f,c
  6482   0022D8  0E00               	movlw	0
  6483   0022DA  2206               	addwfc	(??_ADC_Get_Conversion_Result+1)^0,f,c
  6484   0022DC  0E06               	movlw	6
  6485   0022DE  6E07               	movwf	(??_ADC_Get_Conversion_Result+2)^0,c
  6486   0022E0                     i2u393_45:
  6487   0022E0  3406               	rlcf	(??_ADC_Get_Conversion_Result+1)^0,w,c
  6488   0022E2  3206               	rrcf	(??_ADC_Get_Conversion_Result+1)^0,f,c
  6489   0022E4  3205               	rrcf	??_ADC_Get_Conversion_Result^0,f,c
  6490   0022E6  2E07               	decfsz	(??_ADC_Get_Conversion_Result+2)^0,f,c
  6491   0022E8  EF70  F011         	goto	i2u393_45
  6492   0022EC  C003  FFD9         	movff	ADC_Get_Conversion_Result@conversion_Result,fsr2l
  6493   0022F0  C004  FFDA         	movff	ADC_Get_Conversion_Result@conversion_Result+1,fsr2h
  6494   0022F4  C005  FFDE         	movff	??_ADC_Get_Conversion_Result,postinc2
  6495   0022F8  C006  FFDD         	movff	??_ADC_Get_Conversion_Result+1,postdec2
  6496                           
  6497                           ;MCAL_Layer/MCAL_ADC/mcal_adc.c: 216:         }
  6498   0022FC  EF8C  F011         	goto	i2l5426
  6499   002300                     i2l5422:
  6500                           
  6501                           ;MCAL_Layer/MCAL_ADC/mcal_adc.c: 218:             *conversion_Result = (uint16)((ADRESH 
      +                          >> 8) + ADRESL);
  6502   002300  50C4               	movf	196,w,c	;volatile
  6503   002302  50C3               	movf	195,w,c	;volatile
  6504   002304  6E05               	movwf	??_ADC_Get_Conversion_Result^0,c
  6505   002306  6A06               	clrf	(??_ADC_Get_Conversion_Result+1)^0,c
  6506   002308  C003  FFD9         	movff	ADC_Get_Conversion_Result@conversion_Result,fsr2l
  6507   00230C  C004  FFDA         	movff	ADC_Get_Conversion_Result@conversion_Result+1,fsr2h
  6508   002310  C005  FFDE         	movff	??_ADC_Get_Conversion_Result,postinc2
  6509   002314  C006  FFDD         	movff	??_ADC_Get_Conversion_Result+1,postdec2
  6510   002318                     i2l5426:
  6511                           
  6512                           ;MCAL_Layer/MCAL_ADC/mcal_adc.c: 221:     return ret;
  6513   002318  C008  F001         	movff	ADC_Get_Conversion_Result@ret,?_ADC_Get_Conversion_Result
  6514   00231C  C009  F002         	movff	ADC_Get_Conversion_Result@ret+1,?_ADC_Get_Conversion_Result+1
  6515   002320  0012               	return		;funcret
  6516   002322                     __end_of_ADC_Get_Conversion_Result:
  6517                           	callstack 0
  6518                           
  6519                           	psect	text47
  6520   000000                     __ptext47:
  6521                           	callstack 0
  6522   000000                     
  6523                           	psect	rparam
  6524   000000                     
  6525                           	psect	temp
  6526   000072                     btemp:
  6527                           	callstack 0
  6528   000072                     	ds	1
  6529   000000                     int$flags	set	btemp
  6530   000000                     wtemp8	set	btemp+1
  6531   000000                     ttemp5	set	btemp+1
  6532   000000                     ttemp6	set	btemp+4
  6533   000000                     ttemp7	set	btemp+8
  6534                           
  6535                           	psect	idloc
  6536                           
  6537                           ;Config register IDLOC0 @ 0x200000
  6538                           ;	unspecified, using default values
  6539   200000                     	org	2097152
  6540   200000  FF                 	db	255
  6541                           
  6542                           ;Config register IDLOC1 @ 0x200001
  6543                           ;	unspecified, using default values
  6544   200001                     	org	2097153
  6545   200001  FF                 	db	255
  6546                           
  6547                           ;Config register IDLOC2 @ 0x200002
  6548                           ;	unspecified, using default values
  6549   200002                     	org	2097154
  6550   200002  FF                 	db	255
  6551                           
  6552                           ;Config register IDLOC3 @ 0x200003
  6553                           ;	unspecified, using default values
  6554   200003                     	org	2097155
  6555   200003  FF                 	db	255
  6556                           
  6557                           ;Config register IDLOC4 @ 0x200004
  6558                           ;	unspecified, using default values
  6559   200004                     	org	2097156
  6560   200004  FF                 	db	255
  6561                           
  6562                           ;Config register IDLOC5 @ 0x200005
  6563                           ;	unspecified, using default values
  6564   200005                     	org	2097157
  6565   200005  FF                 	db	255
  6566                           
  6567                           ;Config register IDLOC6 @ 0x200006
  6568                           ;	unspecified, using default values
  6569   200006                     	org	2097158
  6570   200006  FF                 	db	255
  6571                           
  6572                           ;Config register IDLOC7 @ 0x200007
  6573                           ;	unspecified, using default values
  6574   200007                     	org	2097159
  6575   200007  FF                 	db	255
  6576                           
  6577                           	psect	config
  6578                           
  6579                           ; Padding undefined space
  6580   300000                     	org	3145728
  6581   300000  FF                 	db	255
  6582                           
  6583                           ;Config register CONFIG1H @ 0x300001
  6584                           ;	Oscillator Selection bits
  6585                           ;	OSC = HS, HS oscillator
  6586                           ;	Fail-Safe Clock Monitor Enable bit
  6587                           ;	FCMEN = OFF, Fail-Safe Clock Monitor disabled
  6588                           ;	Internal/External Oscillator Switchover bit
  6589                           ;	IESO = OFF, Oscillator Switchover mode disabled
  6590   300001                     	org	3145729
  6591   300001  02                 	db	2
  6592                           
  6593                           ;Config register CONFIG2L @ 0x300002
  6594                           ;	Power-up Timer Enable bit
  6595                           ;	PWRT = OFF, PWRT disabled
  6596                           ;	Brown-out Reset Enable bits
  6597                           ;	BOREN = OFF, Brown-out Reset disabled in hardware and software
  6598                           ;	Brown Out Reset Voltage bits
  6599                           ;	BORV = 1, 
  6600   300002                     	org	3145730
  6601   300002  09                 	db	9
  6602                           
  6603                           ;Config register CONFIG2H @ 0x300003
  6604                           ;	Watchdog Timer Enable bit
  6605                           ;	WDT = OFF, WDT disabled (control is placed on the SWDTEN bit)
  6606                           ;	Watchdog Timer Postscale Select bits
  6607                           ;	WDTPS = 256, 1:256
  6608   300003                     	org	3145731
  6609   300003  10                 	db	16
  6610                           
  6611                           ; Padding undefined space
  6612   300004                     	org	3145732
  6613   300004  FF                 	db	255
  6614                           
  6615                           ;Config register CONFIG3H @ 0x300005
  6616                           ;	CCP2 MUX bit
  6617                           ;	CCP2MX = PORTC, CCP2 input/output is multiplexed with RC1
  6618                           ;	PORTB A/D Enable bit
  6619                           ;	PBADEN = ON, PORTB<4:0> pins are configured as analog input channels on Reset
  6620                           ;	Low-Power Timer1 Oscillator Enable bit
  6621                           ;	LPT1OSC = OFF, Timer1 configured for higher power operation
  6622                           ;	MCLR Pin Enable bit
  6623                           ;	MCLRE = ON, MCLR pin enabled; RE3 input pin disabled
  6624   300005                     	org	3145733
  6625   300005  83                 	db	131
  6626                           
  6627                           ;Config register CONFIG4L @ 0x300006
  6628                           ;	Stack Full/Underflow Reset Enable bit
  6629                           ;	STVREN = ON, Stack full/underflow will cause Reset
  6630                           ;	Single-Supply ICSP Enable bit
  6631                           ;	LVP = OFF, Single-Supply ICSP disabled
  6632                           ;	Extended Instruction Set Enable bit
  6633                           ;	XINST = OFF, Instruction set extension and Indexed Addressing mode disabled (Legacy mo
      +                          de)
  6634                           ;	Background Debugger Enable bit
  6635                           ;	DEBUG = 0x1, unprogrammed default
  6636   300006                     	org	3145734
  6637   300006  81                 	db	129
  6638                           
  6639                           ; Padding undefined space
  6640   300007                     	org	3145735
  6641   300007  FF                 	db	255
  6642                           
  6643                           ;Config register CONFIG5L @ 0x300008
  6644                           ;	Code Protection bit
  6645                           ;	CP0 = OFF, Block 0 (000800-003FFFh) not code-protected
  6646                           ;	Code Protection bit
  6647                           ;	CP1 = OFF, Block 1 (004000-007FFFh) not code-protected
  6648                           ;	Code Protection bit
  6649                           ;	CP2 = OFF, Block 2 (008000-00BFFFh) not code-protected
  6650                           ;	Code Protection bit
  6651                           ;	CP3 = OFF, Block 3 (00C000-00FFFFh) not code-protected
  6652   300008                     	org	3145736
  6653   300008  0F                 	db	15
  6654                           
  6655                           ;Config register CONFIG5H @ 0x300009
  6656                           ;	Boot Block Code Protection bit
  6657                           ;	CPB = OFF, Boot block (000000-0007FFh) not code-protected
  6658                           ;	Data EEPROM Code Protection bit
  6659                           ;	CPD = OFF, Data EEPROM not code-protected
  6660   300009                     	org	3145737
  6661   300009  C0                 	db	192
  6662                           
  6663                           ;Config register CONFIG6L @ 0x30000A
  6664                           ;	Write Protection bit
  6665                           ;	WRT0 = OFF, Block 0 (000800-003FFFh) not write-protected
  6666                           ;	Write Protection bit
  6667                           ;	WRT1 = OFF, Block 1 (004000-007FFFh) not write-protected
  6668                           ;	Write Protection bit
  6669                           ;	WRT2 = OFF, Block 2 (008000-00BFFFh) not write-protected
  6670                           ;	Write Protection bit
  6671                           ;	WRT3 = OFF, Block 3 (00C000-00FFFFh) not write-protected
  6672   30000A                     	org	3145738
  6673   30000A  0F                 	db	15
  6674                           
  6675                           ;Config register CONFIG6H @ 0x30000B
  6676                           ;	Configuration Register Write Protection bit
  6677                           ;	WRTC = OFF, Configuration registers (300000-3000FFh) not write-protected
  6678                           ;	Boot Block Write Protection bit
  6679                           ;	WRTB = OFF, Boot Block (000000-0007FFh) not write-protected
  6680                           ;	Data EEPROM Write Protection bit
  6681                           ;	WRTD = OFF, Data EEPROM not write-protected
  6682   30000B                     	org	3145739
  6683   30000B  E0                 	db	224
  6684                           
  6685                           ;Config register CONFIG7L @ 0x30000C
  6686                           ;	Table Read Protection bit
  6687                           ;	EBTR0 = OFF, Block 0 (000800-003FFFh) not protected from table reads executed in other
      +                           blocks
  6688                           ;	Table Read Protection bit
  6689                           ;	EBTR1 = OFF, Block 1 (004000-007FFFh) not protected from table reads executed in other
      +                           blocks
  6690                           ;	Table Read Protection bit
  6691                           ;	EBTR2 = OFF, Block 2 (008000-00BFFFh) not protected from table reads executed in other
      +                           blocks
  6692                           ;	Table Read Protection bit
  6693                           ;	EBTR3 = OFF, Block 3 (00C000-00FFFFh) not protected from table reads executed in other
      +                           blocks
  6694   30000C                     	org	3145740
  6695   30000C  0F                 	db	15
  6696                           
  6697                           ;Config register CONFIG7H @ 0x30000D
  6698                           ;	Boot Block Table Read Protection bit
  6699                           ;	EBTRB = OFF, Boot Block (000000-0007FFh) not protected from table reads executed in ot
      +                          her blocks
  6700   30000D                     	org	3145741
  6701   30000D  40                 	db	64
  6702                           tosu	equ	0xFFF
  6703                           tosh	equ	0xFFE
  6704                           tosl	equ	0xFFD
  6705                           stkptr	equ	0xFFC
  6706                           pclatu	equ	0xFFB
  6707                           pclath	equ	0xFFA
  6708                           pcl	equ	0xFF9
  6709                           tblptru	equ	0xFF8
  6710                           tblptrh	equ	0xFF7
  6711                           tblptrl	equ	0xFF6
  6712                           tablat	equ	0xFF5
  6713                           prodh	equ	0xFF4
  6714                           prodl	equ	0xFF3
  6715                           indf0	equ	0xFEF
  6716                           postinc0	equ	0xFEE
  6717                           postdec0	equ	0xFED
  6718                           preinc0	equ	0xFEC
  6719                           plusw0	equ	0xFEB
  6720                           fsr0h	equ	0xFEA
  6721                           fsr0l	equ	0xFE9
  6722                           wreg	equ	0xFE8
  6723                           indf1	equ	0xFE7
  6724                           postinc1	equ	0xFE6
  6725                           postdec1	equ	0xFE5
  6726                           preinc1	equ	0xFE4
  6727                           plusw1	equ	0xFE3
  6728                           fsr1h	equ	0xFE2
  6729                           fsr1l	equ	0xFE1
  6730                           bsr	equ	0xFE0
  6731                           indf2	equ	0xFDF
  6732                           postinc2	equ	0xFDE
  6733                           postdec2	equ	0xFDD
  6734                           preinc2	equ	0xFDC
  6735                           plusw2	equ	0xFDB
  6736                           fsr2h	equ	0xFDA
  6737                           fsr2l	equ	0xFD9
  6738                           status	equ	0xFD8

Data Sizes:
    Strings     3
    Constant    16
    Data        71
    BSS         96
    Persistent  2
    Stack       0

Auto Spaces:
    Space          Size  Autos    Used
    COMRAM          126     51     113
    BANK0           128     13     120
    BANK1           256      0       0
    BANK2           256      0       0
    BANK3           256      0       0
    BANK4           256      0       0
    BANK5           256      0       0
    BANK6           256      0       0
    BANK7           256      0       0
    BANK8           256      0       0
    BANK9           256      0       0
    BANK10          256      0       0
    BANK11          256      0       0
    BANK12          256      0       0
    BANK13          256      0       0
    BANK14          256      0       0
    BANK15          128      0       0

Pointer List with Targets:

    vfprintf$2	PTR PTR void  size(2) Largest target is 2
		 -> sprintf@ap(COMRAM[2]), 

    vfprintf$1	PTR const unsigned char  size(2) Largest target is 3
		 -> STR_3(CODE[3]), STR_2(CODE[3]), STR_1(CODE[3]), 

    vfprintf$0	PTR struct _IO_FILE size(2) Largest target is 12
		 -> sprintf@f(COMRAM[12]), 

    I2C_Report_Receive_Overflow_InterruptHandle	PTR FTN()void  size(2) Largest target is 1
		 -> NULL(), 

    S5079$source	PTR const unsigned char  size(2) Largest target is 0

    f...source	PTR const unsigned char  size(2) Largest target is 0

    S5079$buffer	PTR unsigned char  size(2) Largest target is 0

    f...buffer	PTR unsigned char  size(2) Largest target is 0

    adc_1.ADC_IntterruptHandeler	PTR FTN()void  size(2) Largest target is 1
		 -> ADC1_ISR(), 

    EUSART_OVERRUNERRORDefaultHandler_	PTR FTN()void  size(2) Largest target is 1
		 -> NULL(), 

    EUSART_FRAMINGERRORDefaultHandler_	PTR FTN()void  size(2) Largest target is 1
		 -> NULL(), 

    USART_RX_IntterruptHandeler_	PTR FTN()void  size(2) Largest target is 1
		 -> NULL(), 

    EUSART_ASYNC_RX_CONFIG@_usart.EUSART_OVERRUNERRORDefaultHandler	PTR FTN()void  size(2) Largest target is 0

    EUSART_ASYNC_RX_CONFIG@_usart.EUSART_FRAMINGERRORDefaultHandler	PTR FTN()void  size(2) Largest target is 0

    EUSART_ASYNC_RX_CONFIG@_usart.EUSART_RXDefaultInterruptHandler	PTR FTN()void  size(2) Largest target is 0

    EUSART_ASYNC_RX_CONFIG@_usart.EUSART_TxDefaultInterruptHandler	PTR FTN()void  size(2) Largest target is 0

    USART_TX_IntterruptHandeler_	PTR FTN()void  size(2) Largest target is 1
		 -> NULL(), 

    EUSART_ASYNC_TX_CONFIG@_usart.EUSART_OVERRUNERRORDefaultHandler	PTR FTN()void  size(2) Largest target is 0

    EUSART_ASYNC_TX_CONFIG@_usart.EUSART_FRAMINGERRORDefaultHandler	PTR FTN()void  size(2) Largest target is 0

    EUSART_ASYNC_TX_CONFIG@_usart.EUSART_RXDefaultInterruptHandler	PTR FTN()void  size(2) Largest target is 0

    EUSART_ASYNC_TX_CONFIG@_usart.EUSART_TxDefaultInterruptHandler	PTR FTN()void  size(2) Largest target is 0

    S4082$EUSART_OVERRUNERRORDefaultHandler	PTR FTN()void  size(2) Largest target is 0

    EUSART_Baud_Rate_Calculation@_usart.EUSART_OVERRUNERRORDefaultHandler	PTR FTN()void  size(2) Largest target is 0

    S4082$EUSART_FRAMINGERRORDefaultHandler	PTR FTN()void  size(2) Largest target is 0

    EUSART_Baud_Rate_Calculation@_usart.EUSART_FRAMINGERRORDefaultHandler	PTR FTN()void  size(2) Largest target is 0

    S4082$EUSART_RXDefaultInterruptHandler	PTR FTN()void  size(2) Largest target is 0

    EUSART_Baud_Rate_Calculation@_usart.EUSART_RXDefaultInterruptHandler	PTR FTN()void  size(2) Largest target is 0

    S4082$EUSART_TxDefaultInterruptHandler	PTR FTN()void  size(2) Largest target is 0

    EUSART_Baud_Rate_Calculation@_usart.EUSART_TxDefaultInterruptHandler	PTR FTN()void  size(2) Largest target is 0

    Timer3_mode_select@_timer.TIMER3_InterruptHandler	PTR FTN()void  size(2) Largest target is 0

    TIMER3_InterruptHandler	PTR FTN()void  size(2) Largest target is 1
		 -> NULL(), 

    S3894$TIMER3_InterruptHandler	PTR FTN()void  size(2) Largest target is 0

    timer3_init@_timer.TIMER3_InterruptHandler	PTR FTN()void  size(2) Largest target is 0

    TIMER2_IntterruptHandeler_	PTR FTN()void  size(2) Largest target is 1
		 -> NULL(), 

    S3767$TIMER2_IntterruptHandeler	PTR FTN()void  size(2) Largest target is 0

    Timer2_Intialization@timer2_.TIMER2_IntterruptHandeler	PTR FTN()void  size(2) Largest target is 0

    Timer1_Mode_Select@timer1_.TIMER1_IntterruptHandeler	PTR FTN()void  size(2) Largest target is 0

    TIMER1_IntterruptHandeler	PTR FTN()void  size(2) Largest target is 1
		 -> NULL(), 

    S3563$TIMER1_IntterruptHandeler	PTR FTN()void  size(2) Largest target is 0

    Timer1_Intialization@timer1_.TIMER1_IntterruptHandeler	PTR FTN()void  size(2) Largest target is 0

    Timer0_Bit_Mode_Select@timer0_.TIMER0_IntterruptHandeler	PTR FTN()void  size(2) Largest target is 0

    Timer0_Mode_Select@timer0_.TIMER0_IntterruptHandeler	PTR FTN()void  size(2) Largest target is 0

    Timer0_Prescaler_Config@timer0_.TIMER0_IntterruptHandeler	PTR FTN()void  size(2) Largest target is 0

    TIMER0_IntterruptHandeler	PTR FTN()void  size(2) Largest target is 1
		 -> NULL(), 

    S3407$TIMER0_IntterruptHandeler	PTR FTN()void  size(2) Largest target is 0

    Timer0_Intialization@timer0_.TIMER0_IntterruptHandeler	PTR FTN()void  size(2) Largest target is 0

    MSSP_SPI_Slave_Mode_GPIO_PIN_Configurations@_SPI_	PTR const struct . size(2) Largest target is 2
		 -> spi_slave(BANK0[2]), 

    SPI_Read_Byte@_data	PTR unsigned char  size(2) Largest target is 1
		 -> spi_read_master(COMRAM[1]), 

    SPI_Init@_SPI_	PTR const struct . size(2) Largest target is 2
		 -> spi_slave(BANK0[2]), 

    Set_RBX_Handler@int_obj.Interrupt_Handler_Low	PTR FTN()void  size(2) Largest target is 0

    Set_RBX_Handler@int_obj.Interrupt_Handler_High	PTR FTN()void  size(2) Largest target is 0

    S2632$Interrupt_Handler_Low	PTR FTN()void  size(2) Largest target is 0

    Interrupt_RBX_Pin_Intiat@int_obj.Interrupt_Handler_Low	PTR FTN()void  size(2) Largest target is 0

    S2632$Interrupt_Handler_High	PTR FTN()void  size(2) Largest target is 0

    Interrupt_RBX_Pin_Intiat@int_obj.Interrupt_Handler_High	PTR FTN()void  size(2) Largest target is 0

    Set_INTX_Handler@int_obj.Interrupt_Handler	PTR FTN()void  size(2) Largest target is 0

    Interrupt_INTX_Clear_Flag@int_obj.Interrupt_Handler	PTR FTN()void  size(2) Largest target is 0

    Interrupt_INTX_Pin_Intiat@int_obj.Interrupt_Handler	PTR FTN()void  size(2) Largest target is 0

    Interrupt_INTX_Edge_Intiat@int_obj.Interrupt_Handler	PTR FTN()void  size(2) Largest target is 0

    Interrupt_INTX_Disable@int_obj.Interrupt_Handler	PTR FTN()void  size(2) Largest target is 0

    S2524$Interrupt_Handler	PTR FTN()void  size(2) Largest target is 0

    Interrupt_INTX_Enable@int_obj.Interrupt_Handler	PTR FTN()void  size(2) Largest target is 0

    RB7_interruptHandler_Low	PTR FTN()void  size(2) Largest target is 1
		 -> NULL(), 

    RB7_interruptHandler_High	PTR FTN()void  size(2) Largest target is 1
		 -> NULL(), 

    RB6_interruptHandler_Low	PTR FTN()void  size(2) Largest target is 1
		 -> NULL(), 

    RB6_interruptHandler_High	PTR FTN()void  size(2) Largest target is 1
		 -> NULL(), 

    RB5_interruptHandler_Low	PTR FTN()void  size(2) Largest target is 1
		 -> NULL(), 

    RB5_interruptHandler_High	PTR FTN()void  size(2) Largest target is 1
		 -> NULL(), 

    RB4_interruptHandler_Low	PTR FTN()void  size(2) Largest target is 1
		 -> NULL(), 

    RB4_interruptHandler_High	PTR FTN()void  size(2) Largest target is 1
		 -> NULL(), 

    INT2_interruptHandler	PTR FTN()void  size(2) Largest target is 1
		 -> NULL(), 

    INT1_interruptHandler	PTR FTN()void  size(2) Largest target is 1
		 -> NULL(), 

    INT0_interruptHandler	PTR FTN()void  size(2) Largest target is 1
		 -> NULL(), 

    MSSP_I2C_Interrupt_Configurations@i2c_obj.I2C_Report_Receive_Overflow	PTR FTN()void  size(2) Largest target is 0

    MSSP_I2C_Interrupt_Configurations@i2c_obj.I2C_DefaultInterruptHandler	PTR FTN()void  size(2) Largest target is 0

    MSSP_I2C_Interrupt_Configurations@i2c_obj.I2C_Report_Write_Collision	PTR FTN()void  size(2) Largest target is 0

    I2C_Slave_Mode_Configurations@i2c_obj.I2C_Report_Receive_Overflow	PTR FTN()void  size(2) Largest target is 0

    I2C_Slave_Mode_Configurations@i2c_obj.I2C_DefaultInterruptHandler	PTR FTN()void  size(2) Largest target is 0

    I2C_Slave_Mode_Configurations@i2c_obj.I2C_Report_Write_Collision	PTR FTN()void  size(2) Largest target is 0

    I2C_Master_Mode_Clock_Configurations@i2c_obj.I2C_Report_Receive_Overflow	PTR FTN()void  size(2) Largest target is 0

    I2C_Master_Mode_Clock_Configurations@i2c_obj.I2C_DefaultInterruptHandler	PTR FTN()void  size(2) Largest target is 0

    I2C_Master_Mode_Clock_Configurations@i2c_obj.I2C_Report_Write_Collision	PTR FTN()void  size(2) Largest target is 0

    I2C_Report_Write_Collision_InterruptHandler	PTR FTN()void  size(2) Largest target is 1
		 -> NULL(), 

    I2C_DefaultInterruptHandle	PTR FTN()void  size(2) Largest target is 1
		 -> NULL(), 

    S2003$I2C_Report_Receive_Overflow	PTR FTN()void  size(2) Largest target is 0

    MSSP_I2C_Init@i2c_obj.I2C_Report_Receive_Overflow	PTR FTN()void  size(2) Largest target is 0

    S2003$I2C_DefaultInterruptHandler	PTR FTN()void  size(2) Largest target is 0

    MSSP_I2C_Init@i2c_obj.I2C_DefaultInterruptHandler	PTR FTN()void  size(2) Largest target is 0

    S2003$I2C_Report_Write_Collision	PTR FTN()void  size(2) Largest target is 0

    MSSP_I2C_Init@i2c_obj.I2C_Report_Write_Collision	PTR FTN()void  size(2) Largest target is 0

    GPIO_Pin_Intialize@_Pin_Config_	PTR const struct . size(2) Largest target is 8
		 -> lcd1.data_pin(BANK0[4]), lcd1(BANK0[6]), key_pad1.Key_Pad_Coulmns(BANK0[4]), key_pad1.Key_Pad_Rows(BANK0[4]), 
		 -> key_pad1(BANK0[8]), Relay_Intialize@_pin_config(COMRAM[1]), Led_Intialize@_pin_config_(COMRAM[1]), 

    GPIO_Pin_Write_Logic@_Pin_Config_	PTR const struct . size(2) Largest target is 8
		 -> lcd1.data_pin(BANK0[4]), lcd1(BANK0[6]), key_pad1.Key_Pad_Coulmns(BANK0[4]), key_pad1.Key_Pad_Rows(BANK0[4]), 
		 -> key_pad1(BANK0[8]), Relay_Turn_Off@_pin_config(COMRAM[1]), Relay_Turn_On@_pin_config(COMRAM[1]), Relay_Intialize@_pin_config(COMRAM[1]), 
		 -> Led_Turn_Off@_pin_config_(COMRAM[1]), Led_Turn_On@_pin_config_(COMRAM[1]), Led_Intialize@_pin_config_(COMRAM[1]), 

    GPIO_Pin_Direction_Intialize@_Pin_Config_	PTR const struct . size(2) Largest target is 8
		 -> MSSP_SPI_Slave_Mode_GPIO_PIN_Configurations@SPI_SS(COMRAM[1]), MSSP_SPI_Slave_Mode_GPIO_PIN_Configurations@SPI_SCK(COMRAM[1]), MSSP_SPI_Slave_Mode_GPIO_PIN_Configurations@SPI_SDI(COMRAM[1]), MSSP_SPI_Slave_Mode_GPIO_PIN_Configurations@SPI_SDO(COMRAM[1]), 
		 -> MSSP_SPI_Msster_Mode_GPIO_PIN_Configurations@SPI_SCK(COMRAM[1]), MSSP_SPI_Msster_Mode_GPIO_PIN_Configurations@SPI_SDI(COMRAM[1]), MSSP_SPI_Msster_Mode_GPIO_PIN_Configurations@SPI_SDO(COMRAM[1]), lcd1.data_pin(BANK0[4]), 
		 -> lcd1(BANK0[6]), key_pad1.Key_Pad_Coulmns(BANK0[4]), key_pad1.Key_Pad_Rows(BANK0[4]), key_pad1(BANK0[8]), 
		 -> Relay_Intialize@_pin_config(COMRAM[1]), Led_Intialize@_pin_config_(COMRAM[1]), 

    Port_Reg	PTR volatile unsigned char [5] size(2) Largest target is 1
		 -> PORTE(BITBIGSFRlllll[1]), PORTD(BITBIGSFRlllll[1]), PORTC(BITBIGSFRlllll[1]), PORTB(BITBIGSFRlllll[1]), 
		 -> PORTA(BITBIGSFRlllll[1]), 

    Lat_Reg	PTR volatile unsigned char [5] size(2) Largest target is 1
		 -> LATE(BITBIGSFRllllh[1]), LATD(BITBIGSFRllllh[1]), LATC(BITBIGSFRllllh[1]), LATB(BITBIGSFRllllh[1]), 
		 -> LATA(BITBIGSFRlllll[1]), 

    Tris_Reg	PTR volatile unsigned char [5] size(2) Largest target is 1
		 -> TRISD(ABS[1]), TRISC(ABS[1]), TRISB(ABS[1]), TRISE(ABS[1]), 
		 -> TRISA(BITBIGSFRlllll[1]), 

    ECCP_Interrupt_Config@_ECCP_.ECCP_IntterruptHandeler	PTR FTN()void  size(2) Largest target is 0

    ECCP_IntterruptHandeler_	PTR FTN()void  size(2) Largest target is 1
		 -> NULL(), 

    ECCP_PWM_Start@_ECCP_.ECCP_IntterruptHandeler	PTR FTN()void  size(2) Largest target is 0

    S1512$ECCP_IntterruptHandeler	PTR FTN()void  size(2) Largest target is 0

    ECCP_intialize@_ECCP_.ECCP_IntterruptHandeler	PTR FTN()void  size(2) Largest target is 0

    CCP_Compare_Mode_Config_@_CCP_.CCP2_IntterruptHandeler	PTR FTN()void  size(2) Largest target is 0

    CCP_Compare_Mode_Config_@_CCP_.CCP1_IntterruptHandeler	PTR FTN()void  size(2) Largest target is 0

    CCP_capture_Mode_Config_@_CCP_.CCP2_IntterruptHandeler	PTR FTN()void  size(2) Largest target is 0

    CCP_capture_Mode_Config_@_CCP_.CCP1_IntterruptHandeler	PTR FTN()void  size(2) Largest target is 0

    CCP_Capture_Compare_Timer_Selection@_CCP_.CCP2_IntterruptHandeler	PTR FTN()void  size(2) Largest target is 0

    CCP_Capture_Compare_Timer_Selection@_CCP_.CCP1_IntterruptHandeler	PTR FTN()void  size(2) Largest target is 0

    CCP_PWM_Config@_CCP_.CCP2_IntterruptHandeler	PTR FTN()void  size(2) Largest target is 0

    CCP_PWM_Config@_CCP_.CCP1_IntterruptHandeler	PTR FTN()void  size(2) Largest target is 0

    CCP2_IntterruptHandeler	PTR FTN()void  size(2) Largest target is 1
		 -> NULL(), 

    CCP1_IntterruptHandeler	PTR FTN()void  size(2) Largest target is 1
		 -> NULL(), 

    CCP_Interrupt_Config@_CCP_.CCP2_IntterruptHandeler	PTR FTN()void  size(2) Largest target is 0

    CCP_Interrupt_Config@_CCP_.CCP1_IntterruptHandeler	PTR FTN()void  size(2) Largest target is 0

    CCP_Capture_Read_Value@_CCP_.CCP2_IntterruptHandeler	PTR FTN()void  size(2) Largest target is 0

    CCP_Capture_Read_Value@_CCP_.CCP1_IntterruptHandeler	PTR FTN()void  size(2) Largest target is 0

    CCP_Capture_Is_Ready@_CCP_.CCP2_IntterruptHandeler	PTR FTN()void  size(2) Largest target is 0

    CCP_Capture_Is_Ready@_CCP_.CCP1_IntterruptHandeler	PTR FTN()void  size(2) Largest target is 0

    CCP_Deintialize@_CCP_.CCP2_IntterruptHandeler	PTR FTN()void  size(2) Largest target is 0

    CCP_Deintialize@_CCP_.CCP1_IntterruptHandeler	PTR FTN()void  size(2) Largest target is 0

    S1032$CCP2_IntterruptHandeler	PTR FTN()void  size(2) Largest target is 0

    CCP_intialize@_CCP_.CCP2_IntterruptHandeler	PTR FTN()void  size(2) Largest target is 0

    S1032$CCP1_IntterruptHandeler	PTR FTN()void  size(2) Largest target is 0

    CCP_intialize@_CCP_.CCP1_IntterruptHandeler	PTR FTN()void  size(2) Largest target is 0

    ADC_Select_Voltage_Reference@adc_.ADC_IntterruptHandeler	PTR FTN()void  size(2) Largest target is 1
		 -> ADC1_ISR(), 

    ADC_Select_Voltage_Reference@adc_	PTR const struct . size(2) Largest target is 6
		 -> adc_1(BANK0[6]), 

    ADC_Select_format_status@adc_.ADC_IntterruptHandeler	PTR FTN()void  size(2) Largest target is 1
		 -> ADC1_ISR(), 

    ADC_Select_format_status@adc_	PTR const struct . size(2) Largest target is 6
		 -> adc_1(BANK0[6]), 

    ADC_Start_Conversion_Interrupt_Mode@adc_	PTR const struct . size(2) Largest target is 6
		 -> adc_1(BANK0[6]), 

    ADC_Get_Conversion_Result@adc_.ADC_IntterruptHandeler	PTR FTN()void  size(2) Largest target is 1
		 -> ADC1_ISR(), 

    ADC_Get_Conversion_Result@conversion_Result	PTR unsigned short  size(2) Largest target is 2
		 -> conv_result_temp(COMRAM[2]), 

    ADC_Get_Conversion_Result@adc_	PTR const struct . size(2) Largest target is 6
		 -> adc_1(BANK0[6]), 

    ADC_Start_Conversion@adc_	PTR const struct . size(2) Largest target is 6
		 -> adc_1(BANK0[6]), 

    ADC_Channel_Selection@adc_.ADC_IntterruptHandeler	PTR FTN()void  size(2) Largest target is 1
		 -> ADC1_ISR(), 

    ADC_Channel_Selection@adc_	PTR const struct . size(2) Largest target is 6
		 -> adc_1(BANK0[6]), 

    ADC_interruptHandler	PTR FTN()void  size(2) Largest target is 1
		 -> ADC1_ISR(), NULL(), 

    S621$ADC_IntterruptHandeler	PTR FTN()void  size(2) Largest target is 1
		 -> ADC1_ISR(), 

    ADC_Intialization@adc_.ADC_IntterruptHandeler	PTR FTN()void  size(2) Largest target is 1
		 -> ADC1_ISR(), 

    ADC_Intialization@adc_	PTR const struct . size(2) Largest target is 6
		 -> adc_1(BANK0[6]), 

    Led_Turn_Off@Led	PTR const struct . size(2) Largest target is 1
		 -> led_Air_con(COMRAM[1]), led_TV(COMRAM[1]), led_Room4(COMRAM[1]), led_Room3(COMRAM[1]), 
		 -> led_Room2(COMRAM[1]), led_Room1(COMRAM[1]), 

    Led_Turn_On@Led	PTR const struct . size(2) Largest target is 1
		 -> led_Air_con(COMRAM[1]), led_TV(COMRAM[1]), led_Room4(COMRAM[1]), led_Room3(COMRAM[1]), 
		 -> led_Room2(COMRAM[1]), led_Room1(COMRAM[1]), 

    Led_Intialize@Led	PTR const struct . size(2) Largest target is 1
		 -> led_Air_con(COMRAM[1]), led_TV(COMRAM[1]), led_Room4(COMRAM[1]), led_Room3(COMRAM[1]), 
		 -> led_Room2(COMRAM[1]), led_Room1(COMRAM[1]), led_Admin(COMRAM[1]), led_Guest(COMRAM[1]), 
		 -> led_Block(COMRAM[1]), 

    sp__memset	PTR void  size(2) Largest target is 0


Critical Paths under _main in COMRAM

    _main->___fltol
    _intialization->_Led_Intialize
    _SPI_Init->_MSSP_SPI_Slave_Mode_GPIO_PIN_Configurations
    _MSSP_SPI_Slave_Mode_GPIO_PIN_Configurations->_GPIO_Pin_Direction_Intialize
    _MSSP_SPI_Msster_Mode_GPIO_PIN_Configurations->_GPIO_Pin_Direction_Intialize
    _Led_Intialize->_GPIO_Pin_Intialize
    _GPIO_Pin_Intialize->_GPIO_Pin_Write_Logic
    _ADC_Intialization->_ADC_Set_Channel_As_Inbut
    ___fltol->___flmul
    ___flmul->___xxtofl
    _Led_Turn_On->_GPIO_Pin_Write_Logic
    _Led_Turn_Off->_GPIO_Pin_Write_Logic
    _ADC_Start_Conversion_Interrupt_Mode->_ADC_Channel_Selection
    _ADC_Channel_Selection->_ADC_Set_Channel_As_Inbut

Critical Paths under _InterruptManagerHigh in COMRAM

    _ADC1_ISR->_ADC_Get_Conversion_Result

Critical Paths under _main in BANK0

    _main->___flmul
    ___fltol->___flmul

Critical Paths under _InterruptManagerHigh in BANK0

    None.

Critical Paths under _main in BANK1

    None.

Critical Paths under _InterruptManagerHigh in BANK1

    None.

Critical Paths under _main in BANK2

    None.

Critical Paths under _InterruptManagerHigh in BANK2

    None.

Critical Paths under _main in BANK3

    None.

Critical Paths under _InterruptManagerHigh in BANK3

    None.

Critical Paths under _main in BANK4

    None.

Critical Paths under _InterruptManagerHigh in BANK4

    None.

Critical Paths under _main in BANK5

    None.

Critical Paths under _InterruptManagerHigh in BANK5

    None.

Critical Paths under _main in BANK6

    None.

Critical Paths under _InterruptManagerHigh in BANK6

    None.

Critical Paths under _main in BANK7

    None.

Critical Paths under _InterruptManagerHigh in BANK7

    None.

Critical Paths under _main in BANK8

    None.

Critical Paths under _InterruptManagerHigh in BANK8

    None.

Critical Paths under _main in BANK9

    None.

Critical Paths under _InterruptManagerHigh in BANK9

    None.

Critical Paths under _main in BANK10

    None.

Critical Paths under _InterruptManagerHigh in BANK10

    None.

Critical Paths under _main in BANK11

    None.

Critical Paths under _InterruptManagerHigh in BANK11

    None.

Critical Paths under _main in BANK12

    None.

Critical Paths under _InterruptManagerHigh in BANK12

    None.

Critical Paths under _main in BANK13

    None.

Critical Paths under _InterruptManagerHigh in BANK13

    None.

Critical Paths under _main in BANK14

    None.

Critical Paths under _InterruptManagerHigh in BANK14

    None.

Critical Paths under _main in BANK15

    None.

Critical Paths under _InterruptManagerHigh in BANK15

    None.

Call Graph Tables:

 ---------------------------------------------------------------------------------
 (Depth) Function   	        Calls       Base Space   Used Autos Params    Refs
 ---------------------------------------------------------------------------------
 (0) _main                                                 2     2      0   25450
                                             49 COMRAM     2     2      0
_ADC_Start_Conversion_Interrupt_Mode
                       _Led_Turn_Off
                        _Led_Turn_On
                      _SPI_Read_Byte
                      _SPI_Send_Byte
                            ___flmul
                            ___fltol
                            ___lwdiv
                           ___xxtofl
                      _intialization
 ---------------------------------------------------------------------------------
 (1) _intialization                                        0     0      0   10175
                  _ADC_Intialization
                      _Led_Intialize
                           _SPI_Init
 ---------------------------------------------------------------------------------
 (2) _SPI_Init                                             5     3      2    2705
                                             30 COMRAM     3     1      2
_MSSP_SPI_Msster_Mode_GPIO_PIN_Confi
_MSSP_SPI_Slave_Mode_GPIO_PIN_Config
 ---------------------------------------------------------------------------------
 (3) _MSSP_SPI_Slave_Mode_GPIO_PIN_Configurations          9     7      2    1257
                                             23 COMRAM     7     5      2
       _GPIO_Pin_Direction_Intialize
 ---------------------------------------------------------------------------------
 (3) _MSSP_SPI_Msster_Mode_GPIO_PIN_Configurations         5     5      0    1106
                                             23 COMRAM     3     3      0
       _GPIO_Pin_Direction_Intialize
 ---------------------------------------------------------------------------------
 (2) _Led_Intialize                                        6     4      2    6932
                                             28 COMRAM     6     4      2
                 _GPIO_Pin_Intialize
 ---------------------------------------------------------------------------------
 (3) _GPIO_Pin_Intialize                                   4     2      2    6096
                                             24 COMRAM     4     2      2
       _GPIO_Pin_Direction_Intialize
               _GPIO_Pin_Write_Logic
 ---------------------------------------------------------------------------------
 (4) _GPIO_Pin_Direction_Intialize                        10     8      2    1015
                                             13 COMRAM    10     8      2
 ---------------------------------------------------------------------------------
 (2) _ADC_Intialization                                    5     3      2     538
                                             16 COMRAM     5     3      2
       _ADC_Select_Voltage_Reference
           _ADC_Select_format_status
           _ADC_Set_Channel_As_Inbut
 ---------------------------------------------------------------------------------
 (3) _ADC_Select_format_status                             2     0      2     120
                                             13 COMRAM     2     0      2
 ---------------------------------------------------------------------------------
 (3) _ADC_Select_Voltage_Reference                         2     0      2     120
                                             13 COMRAM     2     0      2
 ---------------------------------------------------------------------------------
 (1) ___xxtofl                                            14    10      4    1386
                                             13 COMRAM    14    10      4
 ---------------------------------------------------------------------------------
 (1) ___lwdiv                                              7     3      4     314
                                             13 COMRAM     7     3      4
 ---------------------------------------------------------------------------------
 (1) ___fltol                                             10     6      4     761
                                             39 COMRAM    10     6      4
                            ___flmul (ARG)
                           ___xxtofl (ARG)
 ---------------------------------------------------------------------------------
 (1) ___flmul                                             25    17      8    3413
                                             27 COMRAM    12     4      8
                                              0 BANK0     13    13      0
                           ___xxtofl (ARG)
 ---------------------------------------------------------------------------------
 (1) _SPI_Send_Byte                                        5     3      2      23
                                             13 COMRAM     3     1      2
 ---------------------------------------------------------------------------------
 (1) _SPI_Read_Byte                                        2     0      2     174
                                             13 COMRAM     2     0      2
 ---------------------------------------------------------------------------------
 (1) _Led_Turn_On                                          6     4      2    4124
                                             24 COMRAM     6     4      2
               _GPIO_Pin_Write_Logic
 ---------------------------------------------------------------------------------
 (1) _Led_Turn_Off                                         6     4      2    4200
                                             24 COMRAM     6     4      2
               _GPIO_Pin_Write_Logic
 ---------------------------------------------------------------------------------
 (4) _GPIO_Pin_Write_Logic                                11     8      3    3523
                                             13 COMRAM    11     8      3
 ---------------------------------------------------------------------------------
 (1) _ADC_Start_Conversion_Interrupt_Mode                  5     2      3     880
                                             22 COMRAM     5     2      3
              _ADC_Channel_Selection
               _ADC_Start_Conversion
 ---------------------------------------------------------------------------------
 (2) _ADC_Start_Conversion                                 4     2      2     198
                                             13 COMRAM     4     2      2
 ---------------------------------------------------------------------------------
 (2) _ADC_Channel_Selection                                6     3      3     416
                                             16 COMRAM     6     3      3
           _ADC_Set_Channel_As_Inbut
 ---------------------------------------------------------------------------------
 (3) _ADC_Set_Channel_As_Inbut                             3     3      0      22
                                             13 COMRAM     3     3      0
 ---------------------------------------------------------------------------------
 Estimated maximum stack depth 4
 ---------------------------------------------------------------------------------
 (Depth) Function   	        Calls       Base Space   Used Autos Params    Refs
 ---------------------------------------------------------------------------------
 (5) _InterruptManagerHigh                                 4     4      0     658
                                              9 COMRAM     4     4      0
                            _ADC_ISR
                           _CCP1_ISR
                           _CCP2_ISR
                           _ECCP_ISR
                           _INT0_ISR
                           _INT1_ISR
                           _INT2_ISR
                    _MSSP_I2C_BC_ISR
                       _MSSP_I2C_ISR
                            _RB4_ISR
                            _RB5_ISR
                            _RB6_ISR
                            _RB7_ISR
                            _SPI_ISR
                         _TIMER0_ISR
                         _TIMER1_ISR
                         _TIMER2_ISR
                         _TIMER3_ISR
                       _USART_RX_ISR
                       _USART_TX_ISR
 ---------------------------------------------------------------------------------
 (6) _USART_TX_ISR                                         0     0      0       0
 ---------------------------------------------------------------------------------
 (6) _USART_RX_ISR                                         0     0      0       0
 ---------------------------------------------------------------------------------
 (6) _TIMER3_ISR                                           0     0      0       0
 ---------------------------------------------------------------------------------
 (6) _TIMER2_ISR                                           0     0      0       0
 ---------------------------------------------------------------------------------
 (6) _TIMER1_ISR                                           0     0      0       0
 ---------------------------------------------------------------------------------
 (6) _TIMER0_ISR                                           0     0      0       0
 ---------------------------------------------------------------------------------
 (6) _SPI_ISR                                              0     0      0       0
 ---------------------------------------------------------------------------------
 (6) _RB7_ISR                                              1     1      0      44
                                              0 COMRAM     1     1      0
 ---------------------------------------------------------------------------------
 (6) _RB6_ISR                                              1     1      0      44
                                              0 COMRAM     1     1      0
 ---------------------------------------------------------------------------------
 (6) _RB5_ISR                                              1     1      0      44
                                              0 COMRAM     1     1      0
 ---------------------------------------------------------------------------------
 (6) _RB4_ISR                                              1     1      0      44
                                              0 COMRAM     1     1      0
 ---------------------------------------------------------------------------------
 (6) _MSSP_I2C_ISR                                         0     0      0       0
 ---------------------------------------------------------------------------------
 (6) _MSSP_I2C_BC_ISR                                      0     0      0       0
 ---------------------------------------------------------------------------------
 (6) _INT2_ISR                                             0     0      0       0
 ---------------------------------------------------------------------------------
 (6) _INT1_ISR                                             0     0      0       0
 ---------------------------------------------------------------------------------
 (6) _INT0_ISR                                             0     0      0       0
 ---------------------------------------------------------------------------------
 (6) _ECCP_ISR                                             0     0      0       0
 ---------------------------------------------------------------------------------
 (6) _CCP2_ISR                                             0     0      0       0
 ---------------------------------------------------------------------------------
 (6) _CCP1_ISR                                             0     0      0       0
 ---------------------------------------------------------------------------------
 (6) _ADC_ISR                                              0     0      0     482
                                NULL *
                           _ADC1_ISR *
 ---------------------------------------------------------------------------------
 (7) _ADC1_ISR                                             0     0      0     482
          _ADC_Get_Conversion_Result
 ---------------------------------------------------------------------------------
 (8) _ADC_Get_Conversion_Result                            9     5      4     482
                                              0 COMRAM     9     5      4
 ---------------------------------------------------------------------------------
 (7) NULL(Fake)                                            0     0      0       0
 ---------------------------------------------------------------------------------
 Estimated maximum stack depth 8
 ---------------------------------------------------------------------------------

 Call Graph Graphs:

 _main (ROOT)
   _ADC_Start_Conversion_Interrupt_Mode
     _ADC_Channel_Selection
       _ADC_Set_Channel_As_Inbut
     _ADC_Start_Conversion
   _Led_Turn_Off
     _GPIO_Pin_Write_Logic
   _Led_Turn_On
     _GPIO_Pin_Write_Logic
   _SPI_Read_Byte
   _SPI_Send_Byte
   ___flmul
     ___xxtofl (ARG)
   ___fltol
     ___flmul (ARG)
     ___xxtofl (ARG)
   ___lwdiv
   ___xxtofl
   _intialization
     _ADC_Intialization
       _ADC_Select_Voltage_Reference
       _ADC_Select_format_status
       _ADC_Set_Channel_As_Inbut
     _Led_Intialize
       _GPIO_Pin_Intialize
         _GPIO_Pin_Direction_Intialize
         _GPIO_Pin_Write_Logic
     _SPI_Init
       _MSSP_SPI_Msster_Mode_GPIO_PIN_Configurations
         _GPIO_Pin_Direction_Intialize
       _MSSP_SPI_Slave_Mode_GPIO_PIN_Configurations
         _GPIO_Pin_Direction_Intialize

 _InterruptManagerHigh (ROOT)
   _ADC_ISR
     NULL(Fake) *
     _ADC1_ISR *
       _ADC_Get_Conversion_Result
   _CCP1_ISR
   _CCP2_ISR
   _ECCP_ISR
   _INT0_ISR
   _INT1_ISR
   _INT2_ISR
   _MSSP_I2C_BC_ISR
   _MSSP_I2C_ISR
   _RB4_ISR
   _RB5_ISR
   _RB6_ISR
   _RB7_ISR
   _SPI_ISR
   _TIMER0_ISR
   _TIMER1_ISR
   _TIMER2_ISR
   _TIMER3_ISR
   _USART_RX_ISR
   _USART_TX_ISR

 Address spaces:
Name               Size   Autos  Total    Cost      Usage
BIGRAM             F7F      0       0      47        0.0%
EEDATA             400      0       0       0        0.0%
BITBANK14          100      0       0      33        0.0%
BANK14             100      0       0      34        0.0%
BITBANK13          100      0       0      31        0.0%
BANK13             100      0       0      32        0.0%
BITBANK12          100      0       0      29        0.0%
BANK12             100      0       0      30        0.0%
BITBANK11          100      0       0      27        0.0%
BANK11             100      0       0      28        0.0%
BITBANK10          100      0       0      25        0.0%
BANK10             100      0       0      26        0.0%
BITBANK9           100      0       0      23        0.0%
BANK9              100      0       0      24        0.0%
BITBANK8           100      0       0      21        0.0%
BANK8              100      0       0      22        0.0%
BITBANK7           100      0       0      18        0.0%
BANK7              100      0       0      19        0.0%
BITBANK6           100      0       0      16        0.0%
BANK6              100      0       0      17        0.0%
BITBANK5           100      0       0      14        0.0%
BANK5              100      0       0      15        0.0%
BITBANK4           100      0       0      12        0.0%
BANK4              100      0       0      13        0.0%
BITBANK3           100      0       0      10        0.0%
BANK3              100      0       0      11        0.0%
BITBANK2           100      0       0       8        0.0%
BANK2              100      0       0       9        0.0%
BITBANK1           100      0       0       6        0.0%
BANK1              100      0       0       7        0.0%
BITBANK15           80      0       0      35        0.0%
BANK15              80      0       0      36        0.0%
BITBANK0            80      0       0       4        0.0%
BANK0               80      D      78       5       93.8%
BITCOMRAM           7E      0       0       0        0.0%
COMRAM              7E     33      71       1       89.7%
BITBIGSFRhlhhlh     18      0       0      38        0.0%
BITBIGSFRhh          D      0       0      37        0.0%
BITBIGSFRlllhh       6      0       0      44        0.0%
BITBIGSFRhlhhll      5      0       0      39        0.0%
BITBIGSFRllllh       4      0       0      45        0.0%
BITBIGSFRllhllh      4      0       0      42        0.0%
BITBIGSFRlllll       4      0       0      46        0.0%
BITBIGSFRllhllh      2      0       0      41        0.0%
BITBIGSFRllhllh      1      0       0      40        0.0%
BITBIGSFRllhlll      1      0       0      43        0.0%
BIGSFR               0      0       0     200        0.0%
BITSFR               0      0       0     200        0.0%
SFR                  0      0       0     200        0.0%
STACK                0      0       0       2        0.0%
NULL                 0      0       0       0        0.0%
ABS                  0      0      E9      20        0.0%
DATA                 0      0      E9       3        0.0%
CODE                 0      0       0       0        0.0%


Microchip Technology PIC18 Macro Assembler V2.41 build 20230208172133 
Symbol Table                                                                                   Wed Aug 30 05:00:59 2023

                        ADC_Get_Conversion_Result@ret 0008                                           _SSPSTATbits 0FC7  
                                       _SPI_Send_Byte 2B4E                                                   l200 2714  
                                                 l210 2614                                                   l203 2582  
                                                 l214 2686                                                   l207 25F4  
                                                 l400 2998                                                   l330 2A70  
                                                 l402 299C                                                   l314 241A  
                                                 l331 2A78                                                   l316 24C0  
                                                 l326 2906                                                   l329 2A6E  
                                                 l364 2952                                                   l196 26A6  
                                                 l382 23F2                                                   l711 1FEC  
                                                 l705 1FE4                                                   l393 296E  
                                                 l730 28B2                                                   l387 29DE  
                                                 l397 2990                                                   l389 29E0  
                                                 l692 1EA6                                                   l686 1E9E  
                                                 _PR2 0FCB                             ADC_Channel_Selection@adc_ 0011  
                              ??_InterruptManagerHigh 000A                                       __end_of_ADC_ISR 2AAC  
                                                 _ret 00F6                                                   prod 0FF3  
                                                 tosl 0FFD                                                   wreg 0FE8  
                __end_of_ADC_Select_Voltage_Reference 299E                          _ADC_Select_Voltage_Reference 2954  
                                        ___flmul@aexp 00EA                                          ___flmul@bexp 00EF  
                                        ___flmul@sign 00E9                                          ___flmul@temp 00F4  
                                        ___flmul@prod 00F0                                ??_GPIO_Pin_Write_Logic 0011  
                               _ADC_Channel_Selection 28B4                                       __end_of_RB4_ISR 2B4E  
                                     __end_of_RB5_ISR 2B34                                       __end_of_RB6_ISR 2B1A  
                                     __end_of_RB7_ISR 2B00                                          ___fltol@exp1 0031  
                                                l1310 2A46                                                  l1322 27F0  
                                                l2065 2232                                                  l1258 2004  
                                                l1291 2AE4                                                  l1276 2B54  
                                                l1268 212C                                                  l1278 2B62  
                                                l2430 1C90                                                  l1279 2B64  
                                                l2423 1BF8                                                  l1288 2ACA  
                                                l2266 2788                                                  l2426 1D54  
                                                l2259 2780                                                  l2437 1CEC  
                                                l2382 1522                                                  l2391 1790  
                                                l2392 177E                                                  l6000 2184  
                                                l2386 1886                                                  l6002 2194  
                                                l1762 2562                                                  l6012 21BE  
                                                l6004 2198                                                  l5300 1E00  
                                                l2389 1718                                                  l5310 1EA8  
                                                l6030 2222                                                  l6022 21E6  
                                                l6014 21C8                                                  l6006 21A6  
                                                l2399 1848                                                  l5320 1F52  
                                                l5312 1EB0                                                  l6024 21F2  
                                                l6016 21D2                                                  l6040 2738  
                                                l5400 29D8                                                  l5304 1E5C  
                                                l5322 1FAE                                                  l5314 1EC2  
                                                l6026 2202                                                  l6050 2772  
                                                l6042 2740                                                  l6034 2716  
                                                l5402 2954                                                  l5330 2854  
                                                l5324 1FBA                                                  l5316 1EE4  
                                                l6028 2212                                                  l6052 2774  
                                                l6044 274E                                                  l6036 271E  
                                                l6060 1BC2                                                  l5404 2976  
                                                l5332 2854                                                  l5500 26E6  
                                                l5318 1EF0                                                  l6054 277A  
                                                l6046 2754                                                  l6038 2730  
                                                l6070 1C3A                                                  l6062 1C08  
                                                l5510 23FC                                                  l5334 2866  
                                                l5502 26F8                                                  l5430 2A16  
                                                l5360 2328                                                  l6048 276A  
                                                l6080 1CC2                                                  l6072 1C46  
                                                l6064 1C1E                                                  l6056 1BA4  
                                                l5520 2488                                                  l5512 240E  
                                                l5336 2872                                                  l5504 270C  
                                                l5440 2A2E                                                  l5432 2A16  
                                                l5370 2340                                                  l6090 1D00  
                                                l6082 1CCE                                                  l6074 1C78  
                                                l6058 1BB4                                                  l5530 24AA  
                                                l5522 248A                                                  l5514 241C  
                                                l5290 1D56                                                  l5338 28AA  
                                                l5442 2A3A                                                  l5434 2A1A  
                                                l5450 2792                                                  l5380 235E  
                                                l5372 2346                                                  l5364 232E  
                                                l5540 28BC                                                  l5700 25EC  
                                                l6092 1D24                                                  l6084 1CDC  
                                                l6076 1C7A                                                  l6068 1C32  
                                                l5532 24B6                                                  l5524 248C  
                                                l5516 2474                                                  l5508 23F4  
                                                l5292 1D5E                                                  l5436 2A1E  
                                                l5460 27BE                                                  l5452 2796  
                                                l5444 278A                                                  l5382 2364  
                                                l5374 234C                                                  l5366 2334  
                                                l5358 2324                                                  l5542 28CE  
                                                l5710 2618                                                  l6094 1D34  
                                                l6086 1CFA                                                  l6078 1C86  
                                                l5526 248E                                                  l5518 2486  
                                                l5534 24B8                                                  l5294 1D70  
                                                l5438 2A22                                                  l5462 27CA  
                                                l5454 279A                                                  l5446 278A  
                                                l5384 236A                                                  l5376 2352  
                                                l5368 233A                                                  l5544 28DA  
                                                l5552 2A48                                                  l5712 2652  
                                                l5704 25F6                                                  l7400 14DA  
                                                l6096 1D42                                                  l6088 1CFC  
                                                l5528 249E                                                  l5296 1D92  
                                                l5464 27E4                                                  l5456 27A6  
                                                l5448 278E                                                  l5560 1FEE  
                                    __end_of_ADC1_ISR 2ACA                                                  l5378 2358  
                                                l5546 28EC                                                  l5538 28B4  
                                                l5554 2A50                                                  l5730 2936  
                                                l5722 2908                                                  l5714 2654  
                                                l5706 25F6                                                  l7410 1512  
                                                l7402 14DC                                                  l6098 1D44  
                                                l5394 299E                                                  l5298 1D9E  
                                                l5490 2688                                                  l5458 27B2  
                                                l5570 204C                                                  l5562 2000  
                                                l5388 2370                                                  l5548 28FE  
                                                l5556 2A62                                                  l5732 294A  
                                                l5724 2908                                                  l5716 2666  
                                                l5708 2608                                                  l7500 186C  
                                                l7420 1562                                                  l7412 1532  
                                                l7404 14EC                                                  l5396 29B8  
                                                l5492 2688                                                  l5580 20BC  
                                                l5572 2066                                                  l5564 2006  
                                                l5726 291A                                                  l5718 267E  
                                                l7502 1872                                                  l7430 15B2  
                                                l7422 156C                                                  l7414 1542  
                                                l7406 14FC                                                  l5398 29BE  
                                                l5494 269A                                                  l5582 20C8  
                                                l5574 2080                                                  l5566 201C  
                                                l5558 1FEE                                                  l5728 2926  
                                                l7504 1876                                                  l7440 15F4  
                                                l7432 15BE                                                  l7424 1582  
                                                l7408 150C                                                  l5496 26AA  
                                                l5584 212A                                                  l5576 2088  
                                                l5568 2034                                                  l7600 199C  
                                                l5690 2576                                                  l5850 2B50  
                                                l7450 1656                                                  l7442 1604  
                                                l7434 15CC                                                  l7426 158E  
                                                l7418 1556                                                  l5498 26E4  
                                                l5578 20A2                                                  l7610 19EC  
                                                l7602 19AE                                                  l5692 2586  
                                                l5852 2ACA                                                  l7460 16FE  
                                                l7452 1672                                                  l7444 161E  
                                                l7436 15D8                                                  l7428 15A6  
                                                l7380 146A                                                  l7620 1A82  
                                                l7604 19C2                                                  l5694 25C0  
                                                l5686 2564                                                  l5854 2AD8  
                                                l7470 173A                                                  l7462 1708  
                                                l7454 169C                                                  l7446 162E  
                                                l7438 15E8                                                  l7390 14AA  
                                                l7382 1478                                                  l7622 1A9E  
                                                l7614 1A04                                                  l7606 19D4  
                                                l5696 25C2                                                  l5688 2564  
                                                l5848 2B50                                                  l7480 17AC  
                                                l7472 1748                                                  l7464 1716  
                                                l7456 16D2                                                  l7448 164A  
                                                l7392 14B0                                                  l7384 147A  
                                                l5856 24C2                                                  l7632 1AFE  
                                                l7624 1ABA                                                  l7616 1A18  
                                                l5698 25D4                                                  l7490 1816  
                                                l7482 17BA                                                  l7474 1776  
                                                l7466 1728                                                  l7458 16E0  
                                                l7394 14C0                                                  l7386 148A  
                                                l7378 145C                                                  l5858 254E  
                                                l7722 1B38                                                  l7634 1B12  
                                                l7626 1AD2                                                  l7618 1A30  
                                                l7570 1888                                                  l7492 1830  
                                                l7484 17E4                                                  l7468 1736  
                                                l7396 14C6                                                  l7388 149A  
                                                l7724 1E88                                                  l7628 1AE6  
                                                l7580 18DE                                                  l7636 1B24  
                                                l7572 188C                                                  l7726 1FCE  
                                                l7494 184C                                                  l7478 17A0  
                                                l7486 17E8                                                  l7398 14CC  
                                                l5990 212E                                                  l7590 193C  
                                                l7582 18F0                                                  l7574 18A4  
                                                l7728 2384                                                  l7496 185C  
                                                l7488 1802                                                  l5992 2144  
                                                l7592 1950                                                  l7584 1904  
                                                l7576 18B8                                                  l7498 186A  
                                                l7594 1962                                                  l7586 1916  
                                                l7578 18CA                                                  l5996 2158  
                                                l7596 1976                                                  l7588 192A  
                                                l5998 2182                                                  l7598 1988  
                                                STR_1 1011                                                  _LATA 0F89  
                                                _LATB 0F8A                                                  _LATC 0F8B  
                                                u4000 28CE                                                  _LATD 0F8C  
                                                u4001 28CA                                                  _LATE 0F8D  
                                                u4010 2A62                                                  u4011 2A5E  
                                                u4020 2000                                                  u4021 1FFC  
                                                u4030 2034                                                  u4031 2030  
                                                u4040 204C                                                  u4041 2048  
                                                u4210 291A                                                  u4050 2066  
                                                u4211 2916                                                  u4051 2062  
                                                u4060 2080                                                  u4205 2664  
                                                u4061 207C                                                  u4070 20A2  
                                                u4207 2666                                                  u4071 209E  
                                                u4080 20BC                                                  u4081 20B8  
                                                u4170 2576                                                  u4171 2572  
                                                u4500 2178                                                  u4190 2608  
                                                u4510 21A6                                                  u4191 2604  
                                                u4511 21A2                                                  u4280 2B62  
                                                u4520 21BA                                                  u4600 1BC2  
                                                u3720 1D70                                                  u4185 25D2  
                                                u4281 2B5E                                                  u4521 21B6  
                                                u4505 216E                                                  u4601 1BBE  
                                                u3721 1D6C                                                  u4290 2AD8  
                                                u4530 21E2                                                  u4610 1C1E  
                                                u3730 1D92                                                  u4187 25D4  
                                                u4291 2AD4                                                  u4531 21DE  
                                                u4611 1C1A                                                  u3731 1D8E  
                                                u3804 1F10                                                  u4540 2202  
                                                u4620 1C74                                                  u3820 2866  
                                                u3805 1F0C                                                  u4541 21FE  
                                                u4621 1C70                                                  u3821 2862  
                                                u3814 1F72                                                  u4550 2212  
                                                u4630 1CBE                                                  u3815 1F6E  
                                                u4551 220E                                                  u4631 1CBA  
                                                u4560 2730                                                  u4640 1CDC  
                                                u3760 1E74                                                  u3744 1DBE  
                                                u4561 272C                                                  u4641 1CD8  
                                                u3761 1E6E                                                  u3745 1DBA  
                                                u4490 2144                                                  u4570 274E  
                                                u4650 1CEC                                                  u3850 29B8  
                                                u3770 1E76                                                  u3754 1E20  
                                                u4491 2140                                                  u4571 274A  
                                                u4651 1CE8                                                  u3851 29B4  
                                                u3755 1E1C                                                  u3780 1EC2  
                                                u6500 148A                                                  u4580 276A  
                                                u4660 1CFA                                                  u3860 29D8  
                                                u3940 27E4                                                  u3781 1EBE  
                                                u6501 1486                                                  u4581 2766  
                                                u4661 1CF6                                                  u3861 29D4  
                                                u3941 27E0                                                  u3790 1EE4  
                                                u6510 149A                                                  u4670 1D34  
                                                u4590 1BB4                                                  u3870 296E  
                                                u3791 1EE0                                                  u6511 1496  
                                                u4671 1D30                                                  u4591 1BB0  
                                                u3871 296A                                                  u6600 1748  
                                                u6520 14DA                                                  u4680 1D42  
                                                u3880 2990                                                  u6601 1744  
                                                u6521 14D6                                                  u4681 1D3E  
                                                u3881 298C                                                  u6610 1776  
                                                u6530 14EC                                                  u3970 269A  
                                                u6611 1772                                                  u6531 14E8  
                                                u3971 2696                                                  u6620 178C  
                                                u6540 14FC                                                  u6700 1ABA  
                                                u6621 1788                                                  u6541 14F8  
                                                u6701 1AB6                                                  u6630 17A0  
                                                u6550 1532                                                  u3990 240E  
                                                u6710 1AFA                                                  u6631 179C  
                                                u6551 152E                                                  u3991 240A  
                                                u6711 1AF6                                                  u6640 17BA  
                                                u6560 1542                                                  u6641 17B6  
                                                u6561 153E                                                  u3985 26F6  
                                                u6650 1802                                                  u6570 16BC  
                                                u6490 1478                                                  u6651 17FE  
                                                u6491 1474                                                  u3987 26F8  
                                                u6660 1830                                                  u6580 1716  
                                                u6661 182C                                                  u6581 1712  
                                                u6670 186A                                                  u6590 1736  
                                                u6671 1866                                                  u6591 1732  
                                                u6575 16B2                                                  _TMR2 0FCC  
                           _RB6_interruptHandler_High 00AB                              _ADC_Select_format_status 299E  
                                                _lcd1 00E1                       GPIO_Pin_Direction_Intialize@ret 0016  
                                                _main 1888                                      __end_of_CCP1_ISR 2BC8  
                                    __end_of_CCP2_ISR 2BC4                                       __end_of_SPI_ISR 2BCC  
                                                fsr2h 0FDA                                                  indf2 0FDF  
                                                fsr1l 0FE1                                                  fsr2l 0FD9  
                                                btemp 0072                               GPIO_Pin_Write_Logic@ret 0017  
                                                prodh 0FF4                                                  prodl 0FF3  
                                    __end_of_ECCP_ISR 2BC0                                                  start 000E  
                                      ?_SPI_Read_Byte 000E                              _RB5_interruptHandler_Low 00AD  
                                        ___param_bank 0000                                  _timer3_preload_value 0036  
                                 __end_of_Led_Turn_On 25F6                            _TIMER2_IntterruptHandeler_ 009F  
                                         ?_TIMER0_ISR 0001                                           ?_TIMER1_ISR 0001  
                                         ?_TIMER2_ISR 0001                                           ?_TIMER3_ISR 0001  
                                      ?_SPI_Send_Byte 000E                                      __end_of_INT0_ISR 2BBC  
                                    __end_of_INT1_ISR 2BB8                                      __end_of_INT2_ISR 2BB4  
                  _EUSART_FRAMINGERRORDefaultHandler_ 0097                                         ___fltol@sign1 0030  
                                               ?_main 0001                                                 _EEADR 0FA9  
                                     __end_of___flmul 1888                                       __end_of___fltol 2234  
                                     __end_of___lwdiv 278A                                                 i2l351 2320  
                                               i2l407 2AAA                                                 i2l617 2BBE  
                                               i2l563 2BC2                                                 i2l559 2BC6  
                                               i2l903 2BAE                                                 i2l973 2BBA  
                                               i2l983 2BB2                                                 i2l978 2BB6  
                                               i2l899 2BAA                                                 _RCREG 0FAE  
                                               _TMR0H 0FD7                                                 _TMR1H 0FCF  
                                               _TMR0L 0FD6                                                 _TMR1L 0FCE  
                                               _TMR3H 0FB3                                                 _TMR3L 0FB2  
                                               _SPBRG 0FAF                                                 _PORTA 0F80  
                                               _PORTB 0F81                                                 _PORTC 0F82  
                                               _PORTD 0F83                                                 _PORTE 0F84  
                                               _TRISA 0F92                                                 _TRISB 0F93  
                                               _TRISC 0F94                                                 _TRISD 0F95  
                                               _TRISE 0F96                                                 _TXREG 0FAD  
                                               _adc_1 00DB                         ?_ADC_Select_Voltage_Reference 000E  
                                _ADC_Start_Conversion 2A48                        ??_GPIO_Pin_Direction_Intialize 0010  
                          __end_of_GPIO_Pin_Intialize 28B4                                      __end_of_SPI_Init 212E  
                                               pclath 0FFA                                                 pclatu 0FFB  
                                               tablat 0FF5                                                 ttemp5 0073  
                                               ttemp6 0076                                                 ttemp7 007A  
                                               status 0FD8                                                 wtemp8 0073  
                                     __initialization 27F2                                          RB4_ISR@state 0001  
                                     Led_Turn_Off@Led 0019                                          __end_of_main 1BA2  
                                     Led_Turn_Off@ret 001C                                  __end_of_Led_Turn_Off 2688  
                                           ??_ADC_ISR 000A                                          RB5_ISR@state 0001  
                                              ??_main 0032                                         __activetblptr 0003  
                                           ??_RB4_ISR 0001                                             ??_RB5_ISR 0001  
                                           ??_RB6_ISR 0001                                             ??_RB7_ISR 0001  
                              ?_ADC_Channel_Selection 0011                                 ?_ADC_Start_Conversion 000E  
                                        RB6_ISR@state 0001                                             ??_SPI_ISR 0001  
                                              _ADRESH 0FC4                                                _EEADRH 0FAA  
                                              _ADRESL 0FC3                                                _EEDATA 0FA8  
                                              _CCPR1H 0FBF                                                _CCPR2H 0FBC  
                                              _CCPR1L 0FBE                                                _CCPR2L 0FBB  
                                              _EECON2 0FA7                                                i2l1004 2B4C  
                                              i2l1015 2B32                                                i2l1026 2B18  
                                              i2l1211 1068                                                i2l1037 2AFE  
                                              i2l1221 1198                                                i2l1213 1088  
                                              i2l1223 11DC                                                i2l1215 10CC  
                                              i2l1400 2B90                                                i2l1241 1448  
                                              i2l1217 1110                                                i2l1209 1048  
                                              i2l1226 1264                                                i2l1219 1154  
                                              i2l1328 2BCA                                                i2l1540 2B84  
                                              i2l1458 2B9A                                                i2l1496 2BA2  
                                              i2l1675 2BA6                                                i2l1684 2BC8  
                                              i2l1765 2AC8                                                i2l7000 1408  
                                              i2l5410 224E                                                i2l2930 2BC0  
                                              i2l7010 1444                                                i2l7002 1416  
                                              i2l5420 22C8                                                i2l5412 2260  
                                              i2l7004 1424                                                i2l5422 2300  
                                              i2l5414 226C                                                i2l5406 2234  
                                              i2l2926 2BC4                                                i2l2934 2BBC  
                                              i2l2942 2BAC                                                i2l7006 1428  
                                              i2l5424 2302                                                i2l5416 2286  
                                              i2l5408 223C                                                i2l2952 2BB4  
                                              i2l7008 1436                                                i2l5418 22AE  
                                              i2l5426 2318                                                i2l2946 2BB8  
                                              i2l2938 2BA8                                                i2l2958 2BB0  
                                              i2l5800 2B86                                                i2l5802 2B88  
                                              i2l5810 2B92                                                i2l5804 2B8C  
                                              i2l5812 2B96                                                i2l5742 2A92  
                                              i2l5822 2B7A                                                i2l5830 2BA4  
                                              i2l5736 2A7A                                                i2l5752 2B4C  
                                              i2l5744 2B36                                                i2l5760 2B1E  
                                              i2l5824 2B7C                                                i2l5586 2AAC  
                                              i2l5738 2A7C                                                i2l5746 2B38  
                                              i2l5818 2B9C                                                i2l5826 2B80  
                                              i2l5780 2B18                                                i2l5772 2B02  
                                              i2l5836 2BC8                                                i2l6900 11D6  
                                              i2l5766 2B32                                                i2l5758 2B1C  
                                              i2l5774 2B04                                                i2l6910 121A  
                                              i2l6902 11EA                                                i2l6920 125A  
                                              i2l6904 11F8                                                i2l6912 1220  
                                              i2l6840 1036                                                i2l5794 2AFE  
                                              i2l5786 2AE8                                                i2l6930 129E  
                                              i2l6922 125E                                                i2l6914 122E  
                                              i2l6906 1206                                                i2l6850 1084  
                                              i2l6842 1044                                                i2l5788 2AEA  
                                              i2l6940 12C8                                                i2l6932 12A2  
                                              i2l6924 1272                                                i2l6916 123C  
                                              i2l6908 1216                                                i2l6860 10C6  
                                              i2l6852 1096                                                i2l6844 1056  
                                              i2l6950 1304                                                i2l6942 12D6  
                                              i2l6926 1280                                                i2l6934 12A8  
                                              i2l6918 124A                                                i2l6870 110A  
                                              i2l6862 10DA                                                i2l6854 10A4  
                                              i2l6846 1064                                                i2l6838 1028  
                                              i2l6960 1336                                                i2l6952 1308  
                                              i2l6944 12E4                                                i2l6936 12B6  
                                              i2l6928 128E                                                i2l6880 114E  
                                              i2l6872 111E                                                i2l6864 10E8  
                                              i2l6856 10B2                                                i2l6848 1076  
                                              i2l6970 1368                                                i2l6962 1344  
                                              i2l6954 1316                                                i2l6946 12E8  
                                              i2l6938 12C4                                                i2l6890 1192  
                                              i2l6882 1162                                                i2l6874 112C  
                                              i2l6866 10F6                                                i2l6858 10C2  
                                              i2l6980 13A4                                                i2l6972 1376  
                                              i2l6964 1348                                                i2l6956 1324  
                                              i2l6948 12F6                                                i2l6892 11A6  
                                              i2l6884 1170                                                i2l6876 113A  
                                              i2l6868 1106                                                i2l6990 13D6  
                                              i2l6982 13A8                                                i2l6974 1384  
                                              i2l6966 1356                                                i2l6958 1328  
                                              i2l6894 11B4                                                i2l6886 117E  
                                              i2l6878 114A                                                i2l6992 13E4  
                                              i2l6984 13B6                                                i2l6976 1388  
                                              i2l6968 1364                                                i2l6896 11C2  
                                              i2l6888 118E                                                i2l6994 13E8  
                                              i2l6986 13C4                                                i2l6978 1396  
                                              i2l6898 11D2                                                i2l6996 13F6  
                                              i2l6988 13C8                                                i2l6998 1404  
                                              _SPBRGH 0FB0                                          RB7_ISR@state 0001  
                                              _SSPADD 0FC8                                                _SSPBUF 0FC9  
                      GPIO_Pin_Intialize@_Pin_Config_ 0019                                       ??_SPI_Read_Byte 0010  
                                    __end_of___xxtofl 1D56                                           _Led_Turn_On 2564  
                                     ??_SPI_Send_Byte 0010                                             ??___flmul 0024  
                                           ??___fltol 002C                                             ??___lwdiv 0012  
                                              _led_TV 006B                          ADC_Channel_Selection@channel 0013  
                                              clear_0 2838                                                clear_1 2844  
                                           ?_ADC1_ISR 0001                                                isa$std 0001  
         _I2C_Report_Receive_Overflow_InterruptHandle 00B3                                             ?_CCP1_ISR 0001  
                                        __pdataCOMRAM 005F                                             ?_CCP2_ISR 0001  
                               __end_of_Led_Intialize 2716                                          __mediumconst 0000  
                                           ?_ECCP_ISR 0001                                                tblptrh 0FF7  
                                              tblptrl 0FF6                                                tblptru 0FF8  
                             ADC_Start_Conversion@ret 0010                                         SPI_Init@_SPI_ 001F  
                                        ___xxtofl@arg 0018                                          ___xxtofl@exp 0017  
                                        ___xxtofl@val 000E                                            __accesstop 0080  
                             __end_of__initialization 284A                                             ?_INT0_ISR 0001  
                                           ?_INT1_ISR 0001                                             ?_INT2_ISR 0001  
                                    Led_Turn_On@F2825 0059                                         ___rparam_used 0001  
                            _ECCP_IntterruptHandeler_ 004A                                            ___fltol@f1 0028  
                                      __pcstackCOMRAM 0001                            _I2C_DefaultInterruptHandle 0046  
                                        __pidataBANK0 29E2            ADC_Start_Conversion_Interrupt_Mode@channel 0019  
                        convert_short_to_string@F3106 008B                                   Relay_Turn_Off@F2829 0054  
                                          ??_ADC1_ISR 000A                                             ?_SPI_Init 001F  
             ADC_Start_Conversion_Interrupt_Mode@adc_ 0017                               _CCP2_IntterruptHandeler 004E  
                                          ??_CCP1_ISR 0001                                            ??_CCP2_ISR 0001  
                              ??_ADC_Start_Conversion 0010                            ??_ADC_Select_format_status 0010  
                    ADC_Select_Voltage_Reference@adc_ 000E                                            ??_ECCP_ISR 0001  
                          ?_ADC_Get_Conversion_Result 0001                                            __pbssBANK0 0080  
                                          ??_INT0_ISR 0001                                            ??_INT1_ISR 0001  
                                          ??_INT2_ISR 0001                          ADC_Select_format_status@adc_ 000E  
                                        ??_TIMER0_ISR 0001                                          ??_TIMER1_ISR 0001  
                                        ??_TIMER2_ISR 0001                                          ??_TIMER3_ISR 0001  
 __end_of_MSSP_SPI_Slave_Mode_GPIO_PIN_Configurations 27F2         ??_MSSP_SPI_Slave_Mode_GPIO_PIN_Configurations 001A  
        ?_MSSP_SPI_Slave_Mode_GPIO_PIN_Configurations 0018           _MSSP_SPI_Slave_Mode_GPIO_PIN_Configurations 278A  
                           ?_ADC_Set_Channel_As_Inbut 0001                                               _ADC_ISR 2A7A  
                                          ??_SPI_Init 0021                                               _RB4_ISR 2B34  
                                             _RB5_ISR 2B1A                                               _RB6_ISR 2B00  
                                             _RB7_ISR 2AE6                                             ?___xxtofl 000E  
                                       ?_MSSP_I2C_ISR 0001                             _TIMER1_IntterruptHandeler 00A1  
                                             _SPI_ISR 2BCA                          _USART_RX_IntterruptHandeler_ 0099  
                   __end_of_ADC_Get_Conversion_Result 2322                                      Led_Intialize@Led 001D  
                           _RB4_interruptHandler_High 003E                                      Led_Intialize@ret 0020  
                                        _Led_Turn_Off 25F6                             _RB7_interruptHandler_High 00A7  
                                  __end_of_TIMER0_ISR 2B92                                    __end_of_TIMER1_ISR 2B9C  
                                  __end_of_TIMER2_ISR 2BA4                                    __end_of_TIMER3_ISR 2B86  
                                             _Lat_Reg 00BF                                     ??_MSSP_I2C_BC_ISR 0001  
                            _RB4_interruptHandler_Low 00B1                                               __Hparam 0000  
                            _RB7_interruptHandler_Low 00A5                                               __Lparam 0000  
                                  _GPIO_Pin_Intialize 2854                                               ___flmul 145C  
                                             ___fltol 212E                                               ___lwdiv 2716  
                                        __psmallconst 1000                                               __pcinit 27F2  
__end_of_MSSP_SPI_Msster_Mode_GPIO_PIN_Configurations 2A48        ??_MSSP_SPI_Msster_Mode_GPIO_PIN_Configurations 0018  
       ?_MSSP_SPI_Msster_Mode_GPIO_PIN_Configurations 0001          _MSSP_SPI_Msster_Mode_GPIO_PIN_Configurations 2A16  
                                             __ramtop 1000                                   ?_GPIO_Pin_Intialize 0019  
                                             __ptext0 1888                                               __ptext1 24C2  
                                             __ptext2 1FEE                                               __ptext3 278A  
                                             __ptext4 2A16                                               __ptext5 2688  
                                             __ptext6 2854                                               __ptext7 1D56  
                                             __ptext8 23F4                                               __ptext9 299E  
                             ??_ADC_Channel_Selection 0014                                         _intialization 24C2  
                                           _T0CONbits 0FD5                                             _T1CONbits 0FCD  
                                      ??_MSSP_I2C_ISR 0001                                             _T2CONbits 0FCA  
                                          ??___xxtofl 0012                                             _T3CONbits 0FB1  
                                      __pintcode_body 1016                                  end_of_initialization 284A  
                                ??_GPIO_Pin_Intialize 001B                                  ADC_Intialization@ret 0014  
                                             int_func 1016                                          ?_Led_Turn_On 0019  
                            Led_Turn_Off@_pin_config_ 001E                                      _conv_result_temp 005B  
                                           _RCSTAbits 0FAB                                               postdec1 0FE5  
                                             postdec2 0FDD                                               postinc0 0FEE  
                                             postinc2 0FDE                              ADC_Start_Conversion@adc_ 000E  
                                      ?_intialization 0001                                             _PORTBbits 0F81  
                                  Led_Intialize@F2820 005A                                 __end_of_Key_Pad_Array 1011  
                                   _ADC_Intialization 23F4    MSSP_SPI_Slave_Mode_GPIO_PIN_Configurations@SPI_SCK 001E  
  MSSP_SPI_Slave_Mode_GPIO_PIN_Configurations@SPI_SDI 001C   MSSP_SPI_Msster_Mode_GPIO_PIN_Configurations@SPI_SCK 001A  
 MSSP_SPI_Msster_Mode_GPIO_PIN_Configurations@SPI_SDI 0019    MSSP_SPI_Slave_Mode_GPIO_PIN_Configurations@SPI_SDO 001B  
 MSSP_SPI_Msster_Mode_GPIO_PIN_Configurations@SPI_SDO 0018                                         ___xxtofl@sign 0016  
                                           _TRISCbits 0F94                                    ?_ADC_Intialization 0011  
            GPIO_Pin_Direction_Intialize@_Pin_Config_ 000E                                         ?_USART_RX_ISR 0001  
                                       ?_USART_TX_ISR 0001                               Led_Turn_On@_pin_config_ 001E  
                                 ??_ADC_Intialization 0013                                           ___flmul@grs 00EB  
                                  SPI_Read_Byte@_data 000E                                           _CCP1CONbits 0FBD  
                                         _CCP2CONbits 0FBA                                             _TXSTAbits 0FAC  
                     ADC_Set_Channel_As_Inbut@channel 0010                                 __end_of_SPI_Read_Byte 2AE6  
                                   Led_Turn_Off@F2830 0058                                           _ECCP1ASbits 0FB6  
                               __end_of_SPI_Send_Byte 2B66                                           _BAUDCONbits 0FB8  
                                       __pidataCOMRAM 2B66                             __end_of_ADC_Intialization 24C2  
                    GPIO_Pin_Write_Logic@_Pin_Config_ 000E                                   start_initialization 27F2  
                               GPIO_Pin_Intialize@ret 001B                                        Led_Turn_On@Led 0019  
   MSSP_SPI_Msster_Mode_GPIO_PIN_Configurations@F2863 0065      MSSP_SPI_Slave_Mode_GPIO_PIN_Configurations@F2872 0062  
   MSSP_SPI_Msster_Mode_GPIO_PIN_Configurations@F2865 0064      MSSP_SPI_Slave_Mode_GPIO_PIN_Configurations@F2874 0061  
   MSSP_SPI_Msster_Mode_GPIO_PIN_Configurations@F2867 0063      MSSP_SPI_Slave_Mode_GPIO_PIN_Configurations@F2876 0060  
    MSSP_SPI_Slave_Mode_GPIO_PIN_Configurations@F2878 005F                                        Led_Turn_On@ret 001C  
                         ??_ADC_Get_Conversion_Result 0005                                        ??_USART_RX_ISR 0001  
                                      ??_USART_TX_ISR 0001      MSSP_SPI_Slave_Mode_GPIO_PIN_Configurations@_SPI_ 0018  
                    __end_of_ADC_Set_Channel_As_Inbut 23F4                         ADC_Get_Conversion_Result@adc_ 0001  
                                __end_of_MSSP_I2C_ISR 2BAC                            convert_int_to_string@F3113 0080  
                         convert_byte_to_string@F3099 0091                                       ??_intialization 0023  
                                         __pdataBANK0 00B5                                              ?_ADC_ISR 0001  
                             _CCP1_IntterruptHandeler 0050                                              ?_RB4_ISR 0001  
                                            ?_RB5_ISR 0001                                              ?_RB6_ISR 0001  
                                            ?_RB7_ISR 0001                                    Relay_Turn_On@F2823 0055  
                                           ___flmul@a 0020                                             ___flmul@b 001C  
                                         __pbssCOMRAM 0034           _I2C_Report_Write_Collision_InterruptHandler 0048  
                                       __pcstackBANK0 00E9                                       _MSSP_I2C_BC_ISR 2BAC  
                                            ?_SPI_ISR 0001                ADC_Start_Conversion_Interrupt_Mode@ret 001A  
                               _INT0_interruptHandler 0044                                             __pnvBANK0 00F6  
                      ??_ADC_Select_Voltage_Reference 0010                             ?_ADC_Select_format_status 000E  
                        __end_of_InterruptManagerHigh 145C                                      ___lwdiv@dividend 000E  
                                  SPI_Send_Byte@_data 0010                             _ADC_Get_Conversion_Result 2234  
                                           __pintcode 0008                          __end_of_GPIO_Pin_Write_Logic 1FEE  
                                            ?___flmul 001C                                              ?___fltol 0028  
                                           _led_Admin 005E                                              ?___lwdiv 000E  
                                           _led_Block 0071                                             _led_Guest 0070  
                                           _led_Room1 006F                                             _led_Room2 006E  
                                           _led_Room3 006D                                             _led_Room4 006C  
                                            _ADC1_ISR 2AAC                               _TIMER3_InterruptHandler 009D  
                                         __smallconst 1000                                              _CCP1_ISR 2BC4  
                                            _CCP2_ISR 2BC0                         __end_of_ADC_Channel_Selection 2908  
                                            _ECCP_ISR 2BBC                                         _Led_Intialize 2688  
                           _TIMER0_IntterruptHandeler 00A3                                           _led_Air_con 006A  
                                    ___lwdiv@quotient 0012                          _USART_TX_IntterruptHandeler_ 009B  
                           _RB5_interruptHandler_High 00AF                              ADC_Channel_Selection@ret 0015  
                                            _INT0_ISR 2BB8                                              _INT1_ISR 2BB4  
                                     _spi_read_master 005D                                              _INT2_ISR 2BB0  
                                            _RB4_flag 0069                                              _PIE1bits 0F9D  
                                            _PIE2bits 0FA0                                              _RB5_flag 0068  
                                            _RB6_flag 0067                                              _RB7_flag 0066  
                            _RB6_interruptHandler_Low 00A9                                  _ADC_interruptHandler 0052  
                                            i2u422_40 2A8E                                              i2u422_41 2A8A  
                                            i2u423_48 2A98                                              i2u424_40 2B48  
                                            i2u600_40 1364                                              i2u423_49 2AAA  
                                            i2u424_41 2B44                                              i2u600_41 1360  
                                            i2u425_40 2B2E                                              i2u601_40 1376  
                                            i2u425_41 2B2A                                              i2u601_41 1372  
                                            _PIR1bits 0F9E                                              i2u426_40 2B14  
                                            i2u610_40 1404                                              i2u602_40 1384  
                                            i2u426_41 2B10                                              i2u610_41 1400  
                                            i2u602_41 1380                                              i2u427_40 2AFA  
                                            i2u611_40 1416                                              i2u603_40 1396  
                                            i2u427_41 2AF6                                              i2u611_41 1412  
                                            i2u603_41 1392                                              _PIR2bits 0FA1  
                                            i2u612_40 1424                                              i2u604_40 13A4  
                                            i2u612_41 1420                                              i2u604_41 13A0  
                                            i2u613_40 1436                                              i2u605_40 13B6  
                                            i2u613_41 1432                                              i2u605_41 13B2  
                                            i2u390_40 2260                                              i2u614_40 1444  
                                            i2u606_40 13C4                                              i2u390_41 225C  
                                            i2u614_41 1440                                              i2u606_41 13C0  
                                            i2u391_40 2286                                              i2u607_40 13D6  
                                            i2u551_40 1036                                              i2u391_41 2282  
                                            i2u607_41 13D2                                              i2u551_41 1032  
                                            i2u392_40 22C8                                              i2u608_40 13E4  
                                            i2u560_40 10C2                                              i2u552_40 1044  
                                            i2u392_41 22C4                                              i2u608_41 13E0  
                                            i2u560_41 10BE                                              i2u552_41 1040  
                                            i2u609_40 13F6                                              i2u561_40 10DA  
                                            i2u553_40 1056                                              i2u609_41 13F2  
                                            i2u561_41 10D6                                              i2u553_41 1052  
                                            i2u393_45 22E0                                              i2u570_40 1170  
                                            i2u562_40 10E8                                              i2u554_40 1064  
                                            i2u570_41 116C                                              i2u562_41 10E4  
                                            i2u554_41 1060                                              i2u571_40 117E  
                                            i2u563_40 10F6                                              i2u555_40 1076  
                                            i2u571_41 117A                                              i2u563_41 10F2  
                                            i2u555_41 1072                                              i2u580_40 1216  
                                            i2u572_40 118E                                              i2u564_40 1106  
                                            i2u556_40 1084                                              i2u580_41 1212  
                                            i2u572_41 118A                                              i2u564_41 1102  
                                            i2u556_41 1080                              _ADC_Set_Channel_As_Inbut 2322  
                                            i2u389_40 224E                                              i2u581_40 122E  
                                            i2u573_40 11A6                                              i2u565_40 111E  
                                            i2u557_40 1096                                              i2u389_41 224A  
                                            i2u581_41 122A                                              i2u573_41 11A2  
                                            i2u565_41 111A                                              i2u557_41 1092  
                                            i2u590_40 12C4                                              i2u582_40 123C  
                                            i2u574_40 11B4                                              i2u566_40 112C  
                                            i2u558_40 10A4                                              i2u590_41 12C0  
                                            i2u582_41 1238                                              i2u574_41 11B0  
                                            i2u566_41 1128                                              i2u558_41 10A0  
                                            i2u591_40 12D6                                              i2u583_40 124A  
                                            i2u575_40 11C2                                              i2u567_40 113A  
                                            i2u559_40 10B2                                              i2u591_41 12D2  
                                            i2u583_41 1246                                              i2u575_41 11BE  
                                            i2u567_41 1136                                              i2u559_41 10AE  
                                            i2u592_40 12E4                                              i2u584_40 125A  
                                            i2u576_40 11D2                                              i2u568_40 114A  
                                            i2u592_41 12E0                                              i2u584_41 1256  
                                            i2u576_41 11CE                                              i2u568_41 1146  
                                            i2u593_40 12F6                                              i2u585_40 1272  
                                            i2u577_40 11EA                                              i2u569_40 1162  
                                            i2u593_41 12F2                                              i2u585_41 126E  
                                            i2u577_41 11E6                                              i2u569_41 115E  
                                            i2u594_40 1304                                              i2u586_40 1280  
                                            i2u578_40 11F8                                              i2u594_41 1300  
                                            i2u586_41 127C                                              i2u578_41 11F4  
                                            i2u595_40 1316                                              i2u587_40 128E  
                                            i2u579_40 1206                                              i2u595_41 1312  
                                            i2u587_41 128A                                              i2u579_41 1202  
                                            i2u596_40 1324                                              i2u588_40 129E  
                                            i2u596_41 1320                                              i2u588_41 129A  
                                            i2u597_40 1336                                              i2u589_40 12B6  
                                            i2u597_41 1332                                              i2u589_41 12B2  
                                            i2u598_40 1344                                              i2u598_41 1340  
                                            i2u599_40 1356                                              i2u599_41 1352  
                           Led_Intialize@_pin_config_ 0022                                  __end_of_USART_RX_ISR 2BCA  
                                __end_of_USART_TX_ISR 2BA8                                             _spi_slave 00E7  
   MSSP_SPI_Slave_Mode_GPIO_PIN_Configurations@SPI_SS 001D                                              _SPI_Init 1FEE  
                                          _ADCON0bits 0FC2                                            _ADCON1bits 0FC1  
                                          _ADCON2bits 0FC0                               __end_of_MSSP_I2C_BC_ISR 2BB0  
                                      ?_Led_Intialize 001D                                           _INTCON2bits 0FF1  
                                         _INTCON3bits 0FF0                                             copy_data0 2806  
                                           copy_data1 2826                           CCP_Capture_Read_Value@F2943 004C  
                                          _EECON1bits 0FA6                                              __Hrparam 0000  
                                            __Lrparam 0000                                              _Port_Reg 00B5  
                           GPIO_Pin_Write_Logic@Logic 0010                                              _Tris_Reg 00C9  
                               _INT1_interruptHandler 0042                                              ___xxtofl 1BA2  
                                        _MSSP_I2C_ISR 2BA8                                       ___lwdiv@divisor 0010  
                                _InterruptManagerHigh 0008                                       ___lwdiv@counter 0014  
                                         fp__ADC1_ISR 0000                                              __ptext10 2954  
                                            __ptext11 1BA2                                              __ptext20 2908  
                                            __ptext12 2716                                              __ptext21 2A48  
                                            __ptext13 212E                                              __ptext30 2B86  
                                            __ptext22 28B4                                              __ptext14 145C  
                                            __ptext31 2BCA                                              __ptext23 2322  
                                            __ptext15 2B4E                                              __ptext40 2BB8  
                                            __ptext32 2AE6                                              __ptext16 2ACA  
                                            __ptext41 2BBC                                              __ptext33 2B00  
                                            __ptext25 2BA4                                              __ptext17 2564  
                                            __ptext42 2BC0                                              __ptext34 2B1A  
                                            __ptext26 2BC8                                              __ptext18 25F6  
                                            __ptext43 2BC4                                              __ptext35 2B34  
                                            __ptext27 2B7A                                              __ptext19 1EA8  
                                            __ptext44 2A7A                                              __ptext36 2BA8  
                                            __ptext28 2B9C                                              __ptext45 2AAC  
                                            __ptext37 2BAC                                              __ptext29 2B92  
                                            __ptext46 2234                                              __ptext38 2BB0  
                                            __ptext47 0000                                              __ptext39 2BB4  
                                _GPIO_Pin_Write_Logic 1EA8                            _pre_load@mcal_timer1$F3694 003A  
                          _pre_load@mcal_timer2$F3864 0038                                              _key_pad1 00D3  
                  _EUSART_OVERRUNERRORDefaultHandler_ 0095                                              _pre_load 003C  
                                            isa$xinst 0000                                              int$flags 0072  
          ADC_Get_Conversion_Result@conversion_Result 0003                  __end_of_GPIO_Pin_Direction_Intialize 1EA8  
                        _GPIO_Pin_Direction_Intialize 1D56                                       ??_Led_Intialize 001F  
                                    ?_MSSP_I2C_BC_ISR 0001                                            _INTCONbits 0FF2  
                                         _PWM1CONbits 0FB7                                 ?_InterruptManagerHigh 0001  
                               ADC_Intialization@adc_ 0011                      __end_of_ADC_Select_format_status 29E2  
                               ?_GPIO_Pin_Write_Logic 000E                                         ?_Led_Turn_Off 0019  
                                            intlevel2 0000           __end_of_ADC_Start_Conversion_Interrupt_Mode 2954  
               ??_ADC_Start_Conversion_Interrupt_Mode 001A                  ?_ADC_Start_Conversion_Interrupt_Mode 0017  
                 _ADC_Start_Conversion_Interrupt_Mode 2908                                       Led_Toggle@F2835 0057  
                        __end_of_ADC_Start_Conversion 2A7A                                            _TIMER0_ISR 2B86  
                                          _TIMER1_ISR 2B92                                            _TIMER2_ISR 2B9C  
                                          _TIMER3_ISR 2B7A                                 __end_of_intialization 2564  
                                         _temperature 0034                         ?_GPIO_Pin_Direction_Intialize 000E  
                                       _Key_Pad_Array 1001                                           _SSPCON1bits 0FC6  
                                         _SSPCON2bits 0FC5                                        ??_Led_Turn_Off 001B  
                                Relay_Intialize@F2818 0056                            ??_ADC_Set_Channel_As_Inbut 000E  
                                        _USART_RX_ISR 2BC8                                          _USART_TX_ISR 2BA4  
                               _INT2_interruptHandler 0040                                         ??_Led_Turn_On 001B  
                                       _SPI_Read_Byte 2ACA  
