

Microchip MPLAB XC8 Assembler V2.41 build 20230208172133 
                                                                                               Tue Aug 29 00:29:06 2023

Microchip MPLAB XC8 C Compiler v2.41 (Free license) build 20230208172133 Og1 
     1                           	processor	18F4620
     2                           	fnconf	rparam,??,?,0
     3                           	pagewidth 120
     4                           	opt	flic
     5                           	psect	idataCOMRAM,global,class=CODE,delta=1,noexec
     6                           	psect	idataBANK0,global,class=CODE,delta=1,noexec
     7                           	psect	mediumconst,global,reloc=2,class=MEDIUMCONST,delta=1,noexec
     8                           	psect	nvBANK0,global,class=BANK0,space=1,delta=1,lowdata,noexec
     9                           	psect	cinit,global,reloc=2,class=CODE,delta=1
    10                           	psect	bssCOMRAM,global,class=COMRAM,space=1,delta=1,lowdata,noexec
    11                           	psect	dataCOMRAM,global,class=COMRAM,space=1,delta=1,lowdata,noexec
    12                           	psect	bssBANK0,global,class=BANK0,space=1,delta=1,lowdata,noexec
    13                           	psect	dataBANK0,global,class=BANK0,space=1,delta=1,lowdata,noexec
    14                           	psect	bssBANK1,global,class=BANK1,space=1,delta=1,lowdata,noexec
    15                           	psect	cstackBANK1,global,class=BANK1,space=1,delta=1,lowdata,noexec
    16                           	psect	cstackBANK0,global,class=BANK0,space=1,delta=1,lowdata,noexec
    17                           	psect	cstackCOMRAM,global,class=COMRAM,space=1,delta=1,lowdata,noexec
    18                           	psect	text0,global,reloc=2,class=CODE,delta=1
    19                           	psect	text1,global,reloc=2,class=CODE,delta=1
    20                           	psect	text2,global,reloc=2,class=CODE,delta=1
    21                           	psect	text3,global,reloc=2,class=CODE,delta=1
    22                           	psect	text4,global,reloc=2,class=CODE,delta=1
    23                           	psect	text5,global,reloc=2,class=CODE,delta=1
    24                           	psect	text6,global,reloc=2,class=CODE,delta=1
    25                           	psect	text7,global,reloc=2,class=CODE,delta=1
    26                           	psect	text8,global,reloc=2,class=CODE,delta=1
    27                           	psect	text9,global,reloc=2,class=CODE,delta=1
    28                           	psect	text10,global,reloc=2,class=CODE,delta=1
    29                           	psect	text11,global,reloc=2,class=CODE,delta=1
    30                           	psect	text12,global,reloc=2,class=CODE,delta=1
    31                           	psect	text13,global,reloc=2,class=CODE,delta=1
    32                           	psect	text14,global,reloc=2,class=CODE,delta=1
    33                           	psect	text15,global,reloc=2,class=CODE,delta=1
    34                           	psect	text16,global,reloc=2,class=CODE,delta=1
    35                           	psect	text17,global,reloc=2,class=CODE,delta=1
    36                           	psect	text18,global,reloc=2,class=CODE,delta=1
    37                           	psect	text19,global,reloc=2,class=CODE,delta=1
    38                           	psect	text20,global,reloc=2,class=CODE,delta=1
    39                           	psect	text21,global,reloc=2,class=CODE,delta=1
    40                           	psect	text22,global,reloc=2,class=CODE,delta=1
    41                           	psect	text23,global,reloc=2,class=CODE,delta=1
    42                           	psect	text24,global,reloc=2,class=CODE,delta=1
    43                           	psect	text25,global,reloc=2,class=CODE,delta=1
    44                           	psect	text26,global,reloc=2,class=CODE,delta=1
    45                           	psect	text27,global,reloc=2,class=CODE,delta=1
    46                           	psect	text28,global,reloc=2,class=CODE,delta=1
    47                           	psect	text29,global,reloc=2,class=CODE,delta=1
    48                           	psect	intcode,global,reloc=2,class=CODE,delta=1
    49                           	psect	intcode_body,global,reloc=2,class=CODE,delta=1
    50                           	psect	text31,global,reloc=2,class=CODE,delta=1
    51                           	psect	text32,global,reloc=2,class=CODE,delta=1
    52                           	psect	text33,global,reloc=2,class=CODE,delta=1
    53                           	psect	text34,global,reloc=2,class=CODE,delta=1
    54                           	psect	text35,global,reloc=2,class=CODE,delta=1
    55                           	psect	text36,global,reloc=2,class=CODE,delta=1
    56                           	psect	text37,global,reloc=2,class=CODE,delta=1
    57                           	psect	text38,global,reloc=2,class=CODE,delta=1
    58                           	psect	text39,global,reloc=2,class=CODE,delta=1
    59                           	psect	text40,global,reloc=2,class=CODE,delta=1
    60                           	psect	text41,global,reloc=2,class=CODE,delta=1
    61                           	psect	text42,global,reloc=2,class=CODE,delta=1
    62                           	psect	text43,global,reloc=2,class=CODE,delta=1
    63                           	psect	text44,global,reloc=2,class=CODE,delta=1
    64                           	psect	text45,global,reloc=2,class=CODE,delta=1
    65                           	psect	text46,global,reloc=2,class=CODE,delta=1
    66                           	psect	text47,global,reloc=2,class=CODE,delta=1
    67                           	psect	text48,global,reloc=2,class=CODE,delta=1
    68                           	psect	text49,global,reloc=2,class=CODE,delta=1
    69                           	psect	text50,global,reloc=2,class=CODE,delta=1
    70                           	psect	text51,global,reloc=2,class=CODE,delta=1
    71                           	psect	text52,global,reloc=2,class=CODE,delta=1
    72                           	psect	text53,global,reloc=2,class=CODE,delta=1
    73                           	psect	text54,global,reloc=2,class=CODE,delta=1
    74                           	psect	text55,global,reloc=2,class=CODE,delta=1
    75                           	psect	text56,global,reloc=2,class=CODE,delta=1
    76                           	psect	text57,global,reloc=2,class=CODE,delta=1
    77                           	psect	text58,global,reloc=2,class=CODE,delta=1
    78                           	psect	text59,global,reloc=2,class=CODE,delta=1
    79                           	psect	intsave_regs,global,class=BIGRAM,space=1,delta=1,noexec
    80                           	psect	text60,global,reloc=2,class=CODE,delta=1
    81                           	psect	rparam,global,class=COMRAM,space=1,delta=1,noexec
    82                           	psect	temp,global,ovrld,common,class=COMRAM,space=1,delta=1
    83                           	psect	idloc,global,abs,ovrld,class=IDLOC,space=5,delta=1,noexec
    84                           	psect	config,global,abs,ovrld,class=CONFIG,space=4,delta=1,noexec
    85   000000                     
    86                           ; Version 2.40
    87                           ; Generated 17/11/2021 GMT
    88                           ; 
    89                           ; Copyright © 2021, Microchip Technology Inc. and its subsidiaries ("Microchip")
    90                           ; All rights reserved.
    91                           ; 
    92                           ; This software is developed by Microchip Technology Inc. and its subsidiaries ("Microch
      +                          ip").
    93                           ; 
    94                           ; Redistribution and use in source and binary forms, with or without modification, are
    95                           ; permitted provided that the following conditions are met:
    96                           ; 
    97                           ;     1. Redistributions of source code must retain the above copyright notice, this lis
      +                          t of
    98                           ;        conditions and the following disclaimer.
    99                           ; 
   100                           ;     2. Redistributions in binary form must reproduce the above copyright notice, this 
      +                          list
   101                           ;        of conditions and the following disclaimer in the documentation and/or other
   102                           ;        materials provided with the distribution. Publication is not required when
   103                           ;        this file is used in an embedded application.
   104                           ; 
   105                           ;     3. Microchip's name may not be used to endorse or promote products derived from th
      +                          is
   106                           ;        software without specific prior written permission.
   107                           ; 
   108                           ; THIS SOFTWARE IS PROVIDED BY MICROCHIP "AS IS" AND ANY EXPRESS OR IMPLIED WARRANTIES,
   109                           ; INCLUDING, BUT NOT LIMITED TO, THE IMPLIED WARRANTIES OF MERCHANTABILITY AND FITNESS F
      +                          OR
   110                           ; PURPOSE ARE DISCLAIMED.  IN NO EVENT SHALL MICROCHIP BE LIABLE FOR ANY DIRECT, INDIREC
      +                          T,
   111                           ; INCIDENTAL, SPECIAL, EXEMPLARY, OR CONSEQUENTIAL DAMAGES (INCLUDING BUT NOT LIMITED TO
   112                           ; PROCUREMENT OF SUBSTITUTE GOODS OR SERVICES; LOSS OF USE, DATA OR PROFITS; OR BUSINESS
   113                           ; INTERRUPTION) HOWSOEVER CAUSED AND ON ANY THEORY OF LIABILITY, WHETHER IN CONTRACT, ST
      +                          RICT
   114                           ; LIABILITY, OR TORT (INCLUDING NEGLIGENCE OR OTHERWISE) ARISING IN ANY WAY OUT OF THE U
      +                          SE OF
   115                           ; THIS SOFTWARE, EVEN IF ADVISED OF THE POSSIBILITY OF SUCH DAMAGE.
   116                           ; 
   117                           ; 
   118                           ; Code-generator required, PIC18F4620 Definitions
   119                           ; 
   120                           ; SFR Addresses
   121   000000                     
   122                           	psect	idataCOMRAM
   123   003E92                     __pidataCOMRAM:
   124                           	callstack 0
   125                           
   126                           ;initializer for MSSP_SPI_Slave_Mode_GPIO_PIN_Configurations@F2878
   127   003E92  68                 	db	104
   128                           
   129                           ;initializer for MSSP_SPI_Slave_Mode_GPIO_PIN_Configurations@F2876
   130   003E93  5A                 	db	90
   131                           
   132                           ;initializer for MSSP_SPI_Slave_Mode_GPIO_PIN_Configurations@F2874
   133   003E94  62                 	db	98
   134                           
   135                           ;initializer for MSSP_SPI_Slave_Mode_GPIO_PIN_Configurations@F2872
   136   003E95  2A                 	db	42
   137                           
   138                           ;initializer for MSSP_SPI_Msster_Mode_GPIO_PIN_Configurations@F2867
   139   003E96  1A                 	db	26
   140                           
   141                           ;initializer for MSSP_SPI_Msster_Mode_GPIO_PIN_Configurations@F2865
   142   003E97  62                 	db	98
   143                           
   144                           ;initializer for MSSP_SPI_Msster_Mode_GPIO_PIN_Configurations@F2863
   145   003E98  2A                 	db	42
   146                           
   147                           ;initializer for _RB7_flag
   148   003E99  01                 	db	1
   149                           
   150                           ;initializer for _RB6_flag
   151   003E9A  01                 	db	1
   152                           
   153                           ;initializer for _RB5_flag
   154   003E9B  01                 	db	1
   155                           
   156                           ;initializer for _RB4_flag
   157   003E9C  01                 	db	1
   158                           
   159                           ;initializer for _lcd1
   160   003E9D  02                 	db	2
   161   003E9E  0A                 	db	10
   162   003E9F  12                 	db	18
   163   003EA0  18                 	db	24
   164   003EA1  32                 	db	50
   165   003EA2  3A                 	db	58
   166                           
   167                           ;initializer for _led_Guest
   168   003EA3  08                 	db	8
   169                           
   170                           ;initializer for _led_Block
   171   003EA4  10                 	db	16
   172                           
   173                           	psect	idataBANK0
   174   003D58                     __pidataBANK0:
   175                           	callstack 0
   176                           
   177                           ;initializer for _Port_Reg
   178   003D58  80                 	db	128
   179   003D59  0F                 	db	15
   180   003D5A  81                 	db	129
   181   003D5B  0F                 	db	15
   182   003D5C  82                 	db	130
   183   003D5D  0F                 	db	15
   184   003D5E  83                 	db	131
   185   003D5F  0F                 	db	15
   186   003D60  84                 	db	132
   187   003D61  0F                 	db	15
   188                           
   189                           ;initializer for _Lat_Reg
   190   003D62  89                 	db	137
   191   003D63  0F                 	db	15
   192   003D64  8A                 	db	138
   193   003D65  0F                 	db	15
   194   003D66  8B                 	db	139
   195   003D67  0F                 	db	15
   196   003D68  8C                 	db	140
   197   003D69  0F                 	db	15
   198   003D6A  8D                 	db	141
   199   003D6B  0F                 	db	15
   200                           
   201                           ;initializer for _Tris_Reg
   202   003D6C  92                 	db	146
   203   003D6D  0F                 	db	15
   204   003D6E  93                 	db	147
   205   003D6F  0F                 	db	15
   206   003D70  94                 	db	148
   207   003D71  0F                 	db	15
   208   003D72  95                 	db	149
   209   003D73  0F                 	db	15
   210   003D74  96                 	db	150
   211   003D75  0F                 	db	15
   212                           
   213                           ;initializer for _Guest_pass_tries
   214   003D76  03                 	db	3
   215                           
   216                           ;initializer for _admin_pass_tries
   217   003D77  03                 	db	3
   218                           
   219                           ;initializer for _pass_counter
   220   003D78  01                 	db	1
   221                           
   222                           ;initializer for _cursor
   223   003D79  0C                 	db	12
   224                           
   225                           ;initializer for _Guest_Start_address
   226   003D7A  06                 	db	6
   227                           
   228                           ;initializer for _Admin_Start_address
   229   003D7B  02                 	db	2
   230                           
   231                           ;initializer for _key_pad1
   232   003D7C  03                 	db	3
   233   003D7D  0B                 	db	11
   234   003D7E  13                 	db	19
   235   003D7F  1B                 	db	27
   236   003D80  63                 	db	99
   237   003D81  6B                 	db	107
   238   003D82  73                 	db	115
   239   003D83  7B                 	db	123
   240                           
   241                           ;initializer for _timer0
   242   003D84  CC                 	db	low _timer0_isr
   243   003D85  2F                 	db	high _timer0_isr
   244   003D86  06                 	db	6
   245   003D87  676A               	dw	26474
   246   003D89  08                 	db	8
   247                           
   248                           ;initializer for _spi_master
   249   003D8A  00                 	db	0
   250   003D8B  11                 	db	17
   251                           
   252                           ;initializer for _eeprom_digit_read
   253   003D8C  FF                 	db	255
   254                           
   255                           ;initializer for _Guest_pass_status
   256   003D8D  FF                 	db	255
   257                           
   258                           ;initializer for _Admin_pass_status
   259   003D8E  FF                 	db	255
   260                           
   261                           	psect	mediumconst
   262   00FE14                     __pmediumconst:
   263                           	callstack 0
   264   00FE14  00                 	db	0
   265   00FE15                     _Key_Pad_Array:
   266                           	callstack 0
   267   00FE15  37                 	db	55
   268   00FE16  38                 	db	56
   269   00FE17  39                 	db	57
   270   00FE18  2F                 	db	47
   271   00FE19  34                 	db	52
   272   00FE1A  35                 	db	53
   273   00FE1B  36                 	db	54
   274   00FE1C  2A                 	db	42
   275   00FE1D  31                 	db	49
   276   00FE1E  32                 	db	50
   277   00FE1F  33                 	db	51
   278   00FE20  2D                 	db	45
   279   00FE21  40                 	db	64
   280   00FE22  30                 	db	48
   281   00FE23  3D                 	db	61
   282   00FE24  2B                 	db	43
   283   00FE25                     __end_of_Key_Pad_Array:
   284                           	callstack 0
   285   000000                     _SPBRGH	set	4016
   286   000000                     _SPBRG	set	4015
   287   000000                     _TXREG	set	4013
   288   000000                     _TXSTAbits	set	4012
   289   000000                     _RCREG	set	4014
   290   000000                     _RCSTAbits	set	4011
   291   000000                     _TMR3L	set	4018
   292   000000                     _TMR3H	set	4019
   293   000000                     _TMR2	set	4044
   294   000000                     _T2CONbits	set	4042
   295   000000                     _TMR1L	set	4046
   296   000000                     _TMR1H	set	4047
   297   000000                     _T1CONbits	set	4045
   298   000000                     _TMR0L	set	4054
   299   000000                     _TMR0H	set	4055
   300   000000                     _T0CONbits	set	4053
   301   000000                     _INTCON2bits	set	4081
   302   000000                     _INTCON3bits	set	4080
   303   000000                     _SSPBUF	set	4041
   304   000000                     _SSPSTATbits	set	4039
   305   000000                     _SSPADD	set	4040
   306   000000                     _SSPCON2bits	set	4037
   307   000000                     _SSPCON1bits	set	4038
   308   000000                     _EECON2	set	4007
   309   000000                     _ECCP1ASbits	set	4022
   310   000000                     _PWM1CONbits	set	4023
   311   000000                     _PR2	set	4043
   312   000000                     _INTCONbits	set	4082
   313   000000                     _CCPR2H	set	4028
   314   000000                     _CCPR2L	set	4027
   315   000000                     _CCPR1H	set	4031
   316   000000                     _CCPR1L	set	4030
   317   000000                     _ADCON1bits	set	4033
   318   000000                     _ADRESL	set	4035
   319   000000                     _ADRESH	set	4036
   320   000000                     _TRISD	set	3989
   321   000000                     _TRISC	set	3988
   322   000000                     _TRISB	set	3987
   323   000000                     _TRISE	set	3990
   324   00FE25                     STR_5:
   325   00FE25  54                 	db	84	;'T'
   326   00FE26  6F                 	db	111	;'o'
   327   00FE27  20                 	db	32
   328   00FE28  53                 	db	83	;'S'
   329   00FE29  6D                 	db	109	;'m'
   330   00FE2A  61                 	db	97	;'a'
   331   00FE2B  72                 	db	114	;'r'
   332   00FE2C  74                 	db	116	;'t'
   333   00FE2D  20                 	db	32
   334   00FE2E  48                 	db	72	;'H'
   335   00FE2F  6F                 	db	111	;'o'
   336   00FE30  6D                 	db	109	;'m'
   337   00FE31  65                 	db	101	;'e'
   338   00FE32  20                 	db	32
   339   00FE33  53                 	db	83	;'S'
   340   00FE34  79                 	db	121	;'y'
   341   00FE35  73                 	db	115	;'s'
   342   00FE36  74                 	db	116	;'t'
   343   00FE37  65                 	db	101	;'e'
   344   00FE38  6D                 	db	109	;'m'
   345   00FE39  00                 	db	0
   346   00FE3A                     STR_86:
   347   00FE3A  72                 	db	114	;'r'
   348   00FE3B  65                 	db	101	;'e'
   349   00FE3C  73                 	db	115	;'s'
   350   00FE3D  74                 	db	116	;'t'
   351   00FE3E  61                 	db	97	;'a'
   352   00FE3F  72                 	db	114	;'r'
   353   00FE40  74                 	db	116	;'t'
   354   00FE41  20                 	db	32
   355   00FE42  74                 	db	116	;'t'
   356   00FE43  68                 	db	104	;'h'
   357   00FE44  65                 	db	101	;'e'
   358   00FE45  20                 	db	32
   359   00FE46  73                 	db	115	;'s'
   360   00FE47  79                 	db	121	;'y'
   361   00FE48  73                 	db	115	;'s'
   362   00FE49  74                 	db	116	;'t'
   363   00FE4A  65                 	db	101	;'e'
   364   00FE4B  6D                 	db	109	;'m'
   365   00FE4C  20                 	db	32
   366   00FE4D  00                 	db	0
   367   00FE4E                     STR_8:
   368   00FE4E  73                 	db	115	;'s'
   369   00FE4F  75                 	db	117	;'u'
   370   00FE50  63                 	db	99	;'c'
   371   00FE51  63                 	db	99	;'c'
   372   00FE52  65                 	db	101	;'e'
   373   00FE53  73                 	db	115	;'s'
   374   00FE54  73                 	db	115	;'s'
   375   00FE55  66                 	db	102	;'f'
   376   00FE56  75                 	db	117	;'u'
   377   00FE57  6C                 	db	108	;'l'
   378   00FE58  6C                 	db	108	;'l'
   379   00FE59  79                 	db	121	;'y'
   380   00FE5A  20                 	db	32
   381   00FE5B  61                 	db	97	;'a'
   382   00FE5C  64                 	db	100	;'d'
   383   00FE5D  64                 	db	100	;'d'
   384   00FE5E  65                 	db	101	;'e'
   385   00FE5F  64                 	db	100	;'d'
   386   00FE60  00                 	db	0
   387   00FE61                     STR_6:
   388   00FE61  53                 	db	83	;'S'
   389   00FE62  65                 	db	101	;'e'
   390   00FE63  74                 	db	116	;'t'
   391   00FE64  20                 	db	32
   392   00FE65  41                 	db	65	;'A'
   393   00FE66  64                 	db	100	;'d'
   394   00FE67  6D                 	db	109	;'m'
   395   00FE68  69                 	db	105	;'i'
   396   00FE69  6E                 	db	110	;'n'
   397   00FE6A  20                 	db	32
   398   00FE6B  50                 	db	80	;'P'
   399   00FE6C  61                 	db	97	;'a'
   400   00FE6D  73                 	db	115	;'s'
   401   00FE6E  73                 	db	115	;'s'
   402   00FE6F  77                 	db	119	;'w'
   403   00FE70  6F                 	db	111	;'o'
   404   00FE71  72                 	db	114	;'r'
   405   00FE72  64                 	db	100	;'d'
   406   00FE73  00                 	db	0
   407   00FE74                     STR_9:
   408   00FE74  53                 	db	83	;'S'
   409   00FE75  65                 	db	101	;'e'
   410   00FE76  74                 	db	116	;'t'
   411   00FE77  20                 	db	32
   412   00FE78  47                 	db	71	;'G'
   413   00FE79  75                 	db	117	;'u'
   414   00FE7A  65                 	db	101	;'e'
   415   00FE7B  73                 	db	115	;'s'
   416   00FE7C  74                 	db	116	;'t'
   417   00FE7D  20                 	db	32
   418   00FE7E  50                 	db	80	;'P'
   419   00FE7F  61                 	db	97	;'a'
   420   00FE80  73                 	db	115	;'s'
   421   00FE81  73                 	db	115	;'s'
   422   00FE82  77                 	db	119	;'w'
   423   00FE83  6F                 	db	111	;'o'
   424   00FE84  72                 	db	114	;'r'
   425   00FE85  64                 	db	100	;'d'
   426   00FE86  00                 	db	0
   427   00FE87                     STR_25:
   428   00FE87  6C                 	db	108	;'l'
   429   00FE88  6F                 	db	111	;'o'
   430   00FE89  61                 	db	97	;'a'
   431   00FE8A  64                 	db	100	;'d'
   432   00FE8B  69                 	db	105	;'i'
   433   00FE8C  6E                 	db	110	;'n'
   434   00FE8D  67                 	db	103	;'g'
   435   00FE8E  20                 	db	32
   436   00FE8F  62                 	db	98	;'b'
   437   00FE90  6C                 	db	108	;'l'
   438   00FE91  6F                 	db	111	;'o'
   439   00FE92  63                 	db	99	;'c'
   440   00FE93  6B                 	db	107	;'k'
   441   00FE94  65                 	db	101	;'e'
   442   00FE95  64                 	db	100	;'d'
   443   00FE96  2E                 	db	46
   444   00FE97  2E                 	db	46
   445   00FE98  00                 	db	0
   446   00FE99                     STR_17:
   447   00FE99  53                 	db	83	;'S'
   448   00FE9A  75                 	db	117	;'u'
   449   00FE9B  63                 	db	99	;'c'
   450   00FE9C  63                 	db	99	;'c'
   451   00FE9D  65                 	db	101	;'e'
   452   00FE9E  73                 	db	115	;'s'
   453   00FE9F  73                 	db	115	;'s'
   454   00FEA0  20                 	db	32
   455   00FEA1  4C                 	db	76	;'L'
   456   00FEA2  6F                 	db	111	;'o'
   457   00FEA3  67                 	db	103	;'g'
   458   00FEA4  69                 	db	105	;'i'
   459   00FEA5  6E                 	db	110	;'n'
   460   00FEA6  2E                 	db	46
   461   00FEA7  2E                 	db	46
   462   00FEA8  00                 	db	0
   463   00FEA9                     STR_85:
   464   00FEA9  73                 	db	115	;'s'
   465   00FEAA  65                 	db	101	;'e'
   466   00FEAB  73                 	db	115	;'s'
   467   00FEAC  73                 	db	115	;'s'
   468   00FEAD  69                 	db	105	;'i'
   469   00FEAE  6F                 	db	111	;'o'
   470   00FEAF  6E                 	db	110	;'n'
   471   00FEB0  20                 	db	32
   472   00FEB1  74                 	db	116	;'t'
   473   00FEB2  69                 	db	105	;'i'
   474   00FEB3  6D                 	db	109	;'m'
   475   00FEB4  65                 	db	101	;'e'
   476   00FEB5  6F                 	db	111	;'o'
   477   00FEB6  75                 	db	117	;'u'
   478   00FEB7  74                 	db	116	;'t'
   479   00FEB8  00                 	db	0
   480   00FEB9                     STR_87:
   481   00FEB9  74                 	db	116	;'t'
   482   00FEBA  6F                 	db	111	;'o'
   483   00FEBB  20                 	db	32
   484   00FEBC  65                 	db	101	;'e'
   485   00FEBD  6E                 	db	110	;'n'
   486   00FEBE  74                 	db	116	;'t'
   487   00FEBF  65                 	db	101	;'e'
   488   00FEC0  72                 	db	114	;'r'
   489   00FEC1  20                 	db	32
   490   00FEC2  61                 	db	97	;'a'
   491   00FEC3  67                 	db	103	;'g'
   492   00FEC4  61                 	db	97	;'a'
   493   00FEC5  69                 	db	105	;'i'
   494   00FEC6  6E                 	db	110	;'n'
   495   00FEC7  00                 	db	0
   496   00FEC8                     STR_12:
   497   00FEC8  53                 	db	83	;'S'
   498   00FEC9  65                 	db	101	;'e'
   499   00FECA  6C                 	db	108	;'l'
   500   00FECB  65                 	db	101	;'e'
   501   00FECC  63                 	db	99	;'c'
   502   00FECD  74                 	db	116	;'t'
   503   00FECE  20                 	db	32
   504   00FECF  4D                 	db	77	;'M'
   505   00FED0  6F                 	db	111	;'o'
   506   00FED1  64                 	db	100	;'d'
   507   00FED2  65                 	db	101	;'e'
   508   00FED3  20                 	db	32
   509   00FED4  3A                 	db	58	;':'
   510   00FED5  00                 	db	0
   511   00FED6                     STR_15:
   512   00FED6  41                 	db	65	;'A'
   513   00FED7  64                 	db	100	;'d'
   514   00FED8  6D                 	db	109	;'m'
   515   00FED9  69                 	db	105	;'i'
   516   00FEDA  6E                 	db	110	;'n'
   517   00FEDB  20                 	db	32
   518   00FEDC  4D                 	db	77	;'M'
   519   00FEDD  6F                 	db	111	;'o'
   520   00FEDE  64                 	db	100	;'d'
   521   00FEDF  65                 	db	101	;'e'
   522   00FEE0  3A                 	db	58	;':'
   523   00FEE1  2D                 	db	45
   524   00FEE2  00                 	db	0
   525   00FEE3                     STR_20:
   526   00FEE3  47                 	db	71	;'G'
   527   00FEE4  75                 	db	117	;'u'
   528   00FEE5  65                 	db	101	;'e'
   529   00FEE6  73                 	db	115	;'s'
   530   00FEE7  74                 	db	116	;'t'
   531   00FEE8  20                 	db	32
   532   00FEE9  4D                 	db	77	;'M'
   533   00FEEA  6F                 	db	111	;'o'
   534   00FEEB  64                 	db	100	;'d'
   535   00FEEC  65                 	db	101	;'e'
   536   00FEED  3A                 	db	58	;':'
   537   00FEEE  2D                 	db	45
   538   00FEEF  00                 	db	0
   539   00FEF0                     STR_18:
   540   00FEF0  57                 	db	87	;'W'
   541   00FEF1  72                 	db	114	;'r'
   542   00FEF2  6F                 	db	111	;'o'
   543   00FEF3  6E                 	db	110	;'n'
   544   00FEF4  67                 	db	103	;'g'
   545   00FEF5  20                 	db	32
   546   00FEF6  69                 	db	105	;'i'
   547   00FEF7  6E                 	db	110	;'n'
   548   00FEF8  70                 	db	112	;'p'
   549   00FEF9  75                 	db	117	;'u'
   550   00FEFA  74                 	db	116	;'t'
   551   00FEFB  2E                 	db	46
   552   00FEFC  00                 	db	0
   553   00FEFD                     STR_26:
   554   00FEFD  77                 	db	119	;'w'
   555   00FEFE  61                 	db	97	;'a'
   556   00FEFF  69                 	db	105	;'i'
   557   00FF00  74                 	db	116	;'t'
   558   00FF01  20                 	db	32
   559   00FF02  20                 	db	32
   560   00FF03  31                 	db	49	;'1'
   561   00FF04  30                 	db	48	;'0'
   562   00FF05  20                 	db	32
   563   00FF06  73                 	db	115	;'s'
   564   00FF07  65                 	db	101	;'e'
   565   00FF08  63                 	db	99	;'c'
   566   00FF09  00                 	db	0
   567   00FF0A                     STR_36:
   568   00FF0A  57                 	db	87	;'W'
   569   00FF0B  72                 	db	114	;'r'
   570   00FF0C  6F                 	db	111	;'o'
   571   00FF0D  6E                 	db	110	;'n'
   572   00FF0E  67                 	db	103	;'g'
   573   00FF0F  20                 	db	32
   574   00FF10  63                 	db	99	;'c'
   575   00FF11  68                 	db	104	;'h'
   576   00FF12  6F                 	db	111	;'o'
   577   00FF13  69                 	db	105	;'i'
   578   00FF14  63                 	db	99	;'c'
   579   00FF15  65                 	db	101	;'e'
   580   00FF16  00                 	db	0
   581   00FF17                     STR_7:
   582   00FF17  41                 	db	65	;'A'
   583   00FF18  64                 	db	100	;'d'
   584   00FF19  6D                 	db	109	;'m'
   585   00FF1A  69                 	db	105	;'i'
   586   00FF1B  6E                 	db	110	;'n'
   587   00FF1C  20                 	db	32
   588   00FF1D  50                 	db	80	;'P'
   589   00FF1E  61                 	db	97	;'a'
   590   00FF1F  73                 	db	115	;'s'
   591   00FF20  73                 	db	115	;'s'
   592   00FF21  3A                 	db	58	;':'
   593   00FF22  00                 	db	0
   594   00FF23                     STR_10:
   595   00FF23  47                 	db	71	;'G'
   596   00FF24  75                 	db	117	;'u'
   597   00FF25  65                 	db	101	;'e'
   598   00FF26  73                 	db	115	;'s'
   599   00FF27  74                 	db	116	;'t'
   600   00FF28  20                 	db	32
   601   00FF29  50                 	db	80	;'P'
   602   00FF2A  61                 	db	97	;'a'
   603   00FF2B  73                 	db	115	;'s'
   604   00FF2C  73                 	db	115	;'s'
   605   00FF2D  3A                 	db	58	;':'
   606   00FF2E  00                 	db	0
   607   00FF2F                     STR_16:
   608   00FF2F  57                 	db	87	;'W'
   609   00FF30  72                 	db	114	;'r'
   610   00FF31  69                 	db	105	;'i'
   611   00FF32  74                 	db	116	;'t'
   612   00FF33  65                 	db	101	;'e'
   613   00FF34  20                 	db	32
   614   00FF35  70                 	db	112	;'p'
   615   00FF36  61                 	db	97	;'a'
   616   00FF37  73                 	db	115	;'s'
   617   00FF38  73                 	db	115	;'s'
   618   00FF39  3A                 	db	58	;':'
   619   00FF3A  00                 	db	0
   620   00FF3B                     STR_19:
   621   00FF3B  54                 	db	84	;'T'
   622   00FF3C  72                 	db	114	;'r'
   623   00FF3D  69                 	db	105	;'i'
   624   00FF3E  65                 	db	101	;'e'
   625   00FF3F  73                 	db	115	;'s'
   626   00FF40  20                 	db	32
   627   00FF41  6C                 	db	108	;'l'
   628   00FF42  65                 	db	101	;'e'
   629   00FF43  66                 	db	102	;'f'
   630   00FF44  74                 	db	116	;'t'
   631   00FF45  3A                 	db	58	;':'
   632   00FF46  00                 	db	0
   633   00FF47                     STR_68:
   634   00FF47  33                 	db	51	;'3'
   635   00FF48  3A                 	db	58	;':'
   636   00FF49  41                 	db	65	;'A'
   637   00FF4A  69                 	db	105	;'i'
   638   00FF4B  72                 	db	114	;'r'
   639   00FF4C  20                 	db	32
   640   00FF4D  63                 	db	99	;'c'
   641   00FF4E  6F                 	db	111	;'o'
   642   00FF4F  6E                 	db	110	;'n'
   643   00FF50  2E                 	db	46
   644   00FF51  00                 	db	0
   645   00FF52                     STR_41:
   646   00FF52  32                 	db	50	;'2'
   647   00FF53  3A                 	db	58	;':'
   648   00FF54  6C                 	db	108	;'l'
   649   00FF55  65                 	db	101	;'e'
   650   00FF56  64                 	db	100	;'d'
   651   00FF57  20                 	db	32
   652   00FF58  6F                 	db	111	;'o'
   653   00FF59  66                 	db	102	;'f'
   654   00FF5A  66                 	db	102	;'f'
   655   00FF5B  00                 	db	0
   656   00FF5C                     STR_37:
   657   00FF5C  52                 	db	82	;'R'
   658   00FF5D  6F                 	db	111	;'o'
   659   00FF5E  6F                 	db	111	;'o'
   660   00FF5F  6D                 	db	109	;'m'
   661   00FF60  31                 	db	49	;'1'
   662   00FF61  20                 	db	32
   663   00FF62  53                 	db	83	;'S'
   664   00FF63  3A                 	db	58	;':'
   665   00FF64  00                 	db	0
   666   00FF65                     STR_44:
   667   00FF65  52                 	db	82	;'R'
   668   00FF66  6F                 	db	111	;'o'
   669   00FF67  6F                 	db	111	;'o'
   670   00FF68  6D                 	db	109	;'m'
   671   00FF69  32                 	db	50	;'2'
   672   00FF6A  20                 	db	32
   673   00FF6B  53                 	db	83	;'S'
   674   00FF6C  3A                 	db	58	;':'
   675   00FF6D  00                 	db	0
   676   00FF6E                     STR_51:
   677   00FF6E  52                 	db	82	;'R'
   678   00FF6F  6F                 	db	111	;'o'
   679   00FF70  6F                 	db	111	;'o'
   680   00FF71  6D                 	db	109	;'m'
   681   00FF72  33                 	db	51	;'3'
   682   00FF73  20                 	db	32
   683   00FF74  53                 	db	83	;'S'
   684   00FF75  3A                 	db	58	;':'
   685   00FF76  00                 	db	0
   686   00FF77                     STR_58:
   687   00FF77  52                 	db	82	;'R'
   688   00FF78  6F                 	db	111	;'o'
   689   00FF79  6F                 	db	111	;'o'
   690   00FF7A  6D                 	db	109	;'m'
   691   00FF7B  34                 	db	52	;'4'
   692   00FF7C  20                 	db	32
   693   00FF7D  53                 	db	83	;'S'
   694   00FF7E  3A                 	db	58	;':'
   695   00FF7F  00                 	db	0
   696   00FF80                     STR_81:
   697   00FF80  32                 	db	50	;'2'
   698   00FF81  3A                 	db	58	;':'
   699   00FF82  54                 	db	84	;'T'
   700   00FF83  56                 	db	86	;'V'
   701   00FF84  20                 	db	32
   702   00FF85  6F                 	db	111	;'o'
   703   00FF86  66                 	db	102	;'f'
   704   00FF87  66                 	db	102	;'f'
   705   00FF88  00                 	db	0
   706   00FF89                     STR_13:
   707   00FF89  31                 	db	49	;'1'
   708   00FF8A  3A                 	db	58	;':'
   709   00FF8B  20                 	db	32
   710   00FF8C  41                 	db	65	;'A'
   711   00FF8D  64                 	db	100	;'d'
   712   00FF8E  6D                 	db	109	;'m'
   713   00FF8F  69                 	db	105	;'i'
   714   00FF90  6E                 	db	110	;'n'
   715   00FF91  00                 	db	0
   716   00FF92                     STR_40:
   717   00FF92  31                 	db	49	;'1'
   718   00FF93  3A                 	db	58	;':'
   719   00FF94  6C                 	db	108	;'l'
   720   00FF95  65                 	db	101	;'e'
   721   00FF96  64                 	db	100	;'d'
   722   00FF97  20                 	db	32
   723   00FF98  6F                 	db	111	;'o'
   724   00FF99  6E                 	db	110	;'n'
   725   00FF9A  00                 	db	0
   726   00FF9B                     STR_14:
   727   00FF9B  32                 	db	50	;'2'
   728   00FF9C  3A                 	db	58	;':'
   729   00FF9D  20                 	db	32
   730   00FF9E  47                 	db	71	;'G'
   731   00FF9F  75                 	db	117	;'u'
   732   00FFA0  65                 	db	101	;'e'
   733   00FFA1  73                 	db	115	;'s'
   734   00FFA2  74                 	db	116	;'t'
   735   00FFA3  00                 	db	0
   736   00FFA4                     STR_31:
   737   00FFA4  31                 	db	49	;'1'
   738   00FFA5  3A                 	db	58	;':'
   739   00FFA6  52                 	db	82	;'R'
   740   00FFA7  6F                 	db	111	;'o'
   741   00FFA8  6F                 	db	111	;'o'
   742   00FFA9  6D                 	db	109	;'m'
   743   00FFAA  31                 	db	49	;'1'
   744   00FFAB  00                 	db	0
   745   00FFAC                     STR_32:
   746   00FFAC  32                 	db	50	;'2'
   747   00FFAD  3A                 	db	58	;':'
   748   00FFAE  52                 	db	82	;'R'
   749   00FFAF  6F                 	db	111	;'o'
   750   00FFB0  6F                 	db	111	;'o'
   751   00FFB1  6D                 	db	109	;'m'
   752   00FFB2  32                 	db	50	;'2'
   753   00FFB3  00                 	db	0
   754   00FFB4                     STR_33:
   755   00FFB4  33                 	db	51	;'3'
   756   00FFB5  3A                 	db	58	;':'
   757   00FFB6  52                 	db	82	;'R'
   758   00FFB7  6F                 	db	111	;'o'
   759   00FFB8  6F                 	db	111	;'o'
   760   00FFB9  6D                 	db	109	;'m'
   761   00FFBA  33                 	db	51	;'3'
   762   00FFBB  00                 	db	0
   763   00FFBC                     STR_66:
   764   00FFBC  31                 	db	49	;'1'
   765   00FFBD  3A                 	db	58	;':'
   766   00FFBE  52                 	db	82	;'R'
   767   00FFBF  6F                 	db	111	;'o'
   768   00FFC0  6F                 	db	111	;'o'
   769   00FFC1  6D                 	db	109	;'m'
   770   00FFC2  34                 	db	52	;'4'
   771   00FFC3  00                 	db	0
   772   00FFC4                     STR_34:
   773   00FFC4  34                 	db	52	;'4'
   774   00FFC5  3A                 	db	58	;':'
   775   00FFC6  52                 	db	82	;'R'
   776   00FFC7  6F                 	db	111	;'o'
   777   00FFC8  6F                 	db	111	;'o'
   778   00FFC9  6D                 	db	109	;'m'
   779   00FFCA  34                 	db	52	;'4'
   780   00FFCB  00                 	db	0
   781   00FFCC                     STR_4:
   782   00FFCC  57                 	db	87	;'W'
   783   00FFCD  65                 	db	101	;'e'
   784   00FFCE  6C                 	db	108	;'l'
   785   00FFCF  63                 	db	99	;'c'
   786   00FFD0  6F                 	db	111	;'o'
   787   00FFD1  6D                 	db	109	;'m'
   788   00FFD2  65                 	db	101	;'e'
   789   00FFD3  00                 	db	0
   790   00FFD4                     STR_80:
   791   00FFD4  31                 	db	49	;'1'
   792   00FFD5  3A                 	db	58	;':'
   793   00FFD6  54                 	db	84	;'T'
   794   00FFD7  56                 	db	86	;'V'
   795   00FFD8  20                 	db	32
   796   00FFD9  6F                 	db	111	;'o'
   797   00FFDA  6E                 	db	110	;'n'
   798   00FFDB  00                 	db	0
   799   00FFDC                     STR_35:
   800   00FFDC  34                 	db	52	;'4'
   801   00FFDD  3A                 	db	58	;':'
   802   00FFDE  4D                 	db	77	;'M'
   803   00FFDF  6F                 	db	111	;'o'
   804   00FFE0  72                 	db	114	;'r'
   805   00FFE1  65                 	db	101	;'e'
   806   00FFE2  00                 	db	0
   807   00FFE3                     STR_77:
   808   00FFE3  54                 	db	84	;'T'
   809   00FFE4  56                 	db	86	;'V'
   810   00FFE5  20                 	db	32
   811   00FFE6  53                 	db	83	;'S'
   812   00FFE7  3A                 	db	58	;':'
   813   00FFE8  00                 	db	0
   814   00FFE9                     STR_42:
   815   00FFE9  30                 	db	48	;'0'
   816   00FFEA  3A                 	db	58	;':'
   817   00FFEB  52                 	db	82	;'R'
   818   00FFEC  65                 	db	101	;'e'
   819   00FFED  74                 	db	116	;'t'
   820   00FFEE  00                 	db	0
   821   00FFEF                     STR_67:
   822   00FFEF  32                 	db	50	;'2'
   823   00FFF0  3A                 	db	58	;':'
   824   00FFF1  54                 	db	84	;'T'
   825   00FFF2  56                 	db	86	;'V'
   826   00FFF3  00                 	db	0
   827   00FFF4                     STR_38:
   828   00FFF4  4F                 	db	79	;'O'
   829   00FFF5  4E                 	db	78	;'N'
   830   00FFF6  20                 	db	32
   831   00FFF7  00                 	db	0
   832   00FFF8                     STR_39:
   833   00FFF8  4F                 	db	79	;'O'
   834   00FFF9  46                 	db	70	;'F'
   835   00FFFA  46                 	db	70	;'F'
   836   00FFFB  00                 	db	0
   837   00FFFC                     STR_1:
   838   00FFFC  25                 	db	37
   839   00FFFD  69                 	db	105	;'i'
   840   00FFFE  00                 	db	0
   841   00FFFF  00                 	db	0	; dummy byte at the end
   842   000000                     
   843                           	psect	nvBANK0
   844   0000FE                     __pnvBANK0:
   845                           	callstack 0
   846   0000FE                     _ret:
   847                           	callstack 0
   848   0000FE                     	ds	2
   849   000000                     _PORTBbits	set	3969
   850   000000                     _TRISCbits	set	3988
   851   000000                     _ADCON2bits	set	4032
   852   000000                     _ADCON0bits	set	4034
   853   000000                     _PORTE	set	3972
   854   000000                     _PORTD	set	3971
   855   000000                     _PORTC	set	3970
   856   000000                     _PORTB	set	3969
   857   000000                     _PORTA	set	3968
   858   000000                     _LATA	set	3977
   859   000000                     _TRISA	set	3986
   860   000000                     _PIE1bits	set	3997
   861   000000                     _CCP2CONbits	set	4026
   862   000000                     _CCP1CONbits	set	4029
   863   000000                     _PIR1bits	set	3998
   864   000000                     _PIE2bits	set	4000
   865   000000                     _EECON1bits	set	4006
   866   000000                     _EEDATA	set	4008
   867   000000                     _EEADR	set	4009
   868   000000                     _EEADRH	set	4010
   869   000000                     _T3CONbits	set	4017
   870   000000                     _PIR2bits	set	4001
   871   000000                     _BAUDCONbits	set	4024
   872   000000                     _LATE	set	3981
   873   000000                     _LATD	set	3980
   874   000000                     _LATC	set	3979
   875   000000                     _LATB	set	3978
   876   000000                     _WDTCONbits	set	4049
   877                           
   878                           ; #config settings
   879                           
   880                           	psect	cinit
   881   003902                     __pcinit:
   882                           	callstack 0
   883   003902                     start_initialization:
   884                           	callstack 0
   885   003902                     __initialization:
   886                           	callstack 0
   887                           
   888                           ; Initialize objects allocated to BANK0 (55 bytes)
   889                           ; load TBLPTR registers with __pidataBANK0
   890   003902  0E58               	movlw	low __pidataBANK0
   891   003904  6EF6               	movwf	tblptrl,c
   892   003906  0E3D               	movlw	high __pidataBANK0
   893   003908  6EF7               	movwf	tblptrh,c
   894   00390A  0E00               	movlw	low (__pidataBANK0 shr (0+16))
   895   00390C  6EF8               	movwf	tblptru,c
   896   00390E  EE00  F080         	lfsr	0,__pdataBANK0
   897   003912  EE10 F037          	lfsr	1,55
   898   003916                     copy_data0:
   899   003916  0009               	tblrd		*+
   900   003918  CFF5 FFEE          	movff	tablat,postinc0
   901   00391C  50E5               	movf	postdec1,w,c
   902   00391E  50E1               	movf	fsr1l,w,c
   903   003920  E1FA               	bnz	copy_data0
   904                           
   905                           ; Initialize objects allocated to COMRAM (19 bytes)
   906                           ; load TBLPTR registers with __pidataCOMRAM
   907   003922  0E92               	movlw	low __pidataCOMRAM
   908   003924  6EF6               	movwf	tblptrl,c
   909   003926  0E3E               	movlw	high __pidataCOMRAM
   910   003928  6EF7               	movwf	tblptrh,c
   911   00392A  0E00               	movlw	low (__pidataCOMRAM shr (0+16))
   912   00392C  6EF8               	movwf	tblptru,c
   913   00392E  EE00  F052         	lfsr	0,__pdataCOMRAM
   914   003932  EE10 F013          	lfsr	1,19
   915   003936                     copy_data1:
   916   003936  0009               	tblrd		*+
   917   003938  CFF5 FFEE          	movff	tablat,postinc0
   918   00393C  50E5               	movf	postdec1,w,c
   919   00393E  50E1               	movf	fsr1l,w,c
   920   003940  E1FA               	bnz	copy_data1
   921                           
   922                           ; Clear objects allocated to BANK1 (11 bytes)
   923   003942  EE01  F015         	lfsr	0,__pbssBANK1
   924   003946  0E0B               	movlw	11
   925   003948                     clear_0:
   926   003948  6AEE               	clrf	postinc0,c
   927   00394A  06E8               	decf	wreg,f,c
   928   00394C  E1FD               	bnz	clear_0
   929                           
   930                           ; Clear objects allocated to BANK0 (52 bytes)
   931   00394E  EE00  F0B7         	lfsr	0,__pbssBANK0
   932   003952  0E34               	movlw	52
   933   003954                     clear_1:
   934   003954  6AEE               	clrf	postinc0,c
   935   003956  06E8               	decf	wreg,f,c
   936   003958  E1FD               	bnz	clear_1
   937                           
   938                           ; Clear objects allocated to COMRAM (31 bytes)
   939   00395A  EE00  F033         	lfsr	0,__pbssCOMRAM
   940   00395E  0E1F               	movlw	31
   941   003960                     clear_2:
   942   003960  6AEE               	clrf	postinc0,c
   943   003962  06E8               	decf	wreg,f,c
   944   003964  E1FD               	bnz	clear_2
   945   003966                     end_of_initialization:
   946                           	callstack 0
   947   003966                     __end_of__initialization:
   948                           	callstack 0
   949   003966  9065               	bcf	int$flags,0,c	;clear compiler interrupt flag (level 1)
   950   003968  9265               	bcf	int$flags,1,c	;clear compiler interrupt flag (level 2)
   951   00396A  0100               	movlb	0
   952   00396C  EF09  F000         	goto	_main	;jump to C main() function
   953                           
   954                           	psect	bssCOMRAM
   955   000033                     __pbssCOMRAM:
   956                           	callstack 0
   957   000033                     _timer3_preload_value:
   958                           	callstack 0
   959   000033                     	ds	2
   960   000035                     _pre_load@mcal_timer2$F3791:
   961                           	callstack 0
   962   000035                     	ds	2
   963   000037                     _pre_load@mcal_timer1$F3621:
   964                           	callstack 0
   965   000037                     	ds	2
   966   000039                     _pre_load:
   967                           	callstack 0
   968   000039                     	ds	2
   969   00003B                     _TIMER0_IntterruptHandeler:
   970                           	callstack 0
   971   00003B                     	ds	2
   972   00003D                     _I2C_DefaultInterruptHandle:
   973                           	callstack 0
   974   00003D                     	ds	2
   975   00003F                     _I2C_Report_Write_Collision_InterruptHandler:
   976                           	callstack 0
   977   00003F                     	ds	2
   978   000041                     _ECCP_IntterruptHandeler_:
   979                           	callstack 0
   980   000041                     	ds	2
   981   000043                     CCP_Capture_Read_Value@F2943:
   982                           	callstack 0
   983   000043                     	ds	2
   984   000045                     _CCP2_IntterruptHandeler:
   985                           	callstack 0
   986   000045                     	ds	2
   987   000047                     _CCP1_IntterruptHandeler:
   988                           	callstack 0
   989   000047                     	ds	2
   990   000049                     _count_sec_timer_flag:
   991                           	callstack 0
   992   000049                     	ds	1
   993   00004A                     Relay_Turn_Off@F2829:
   994                           	callstack 0
   995   00004A                     	ds	1
   996   00004B                     Relay_Turn_On@F2823:
   997                           	callstack 0
   998   00004B                     	ds	1
   999   00004C                     Relay_Intialize@F2818:
  1000                           	callstack 0
  1001   00004C                     	ds	1
  1002   00004D                     Led_Toggle@F2835:
  1003                           	callstack 0
  1004   00004D                     	ds	1
  1005   00004E                     Led_Turn_Off@F2830:
  1006                           	callstack 0
  1007   00004E                     	ds	1
  1008   00004F                     Led_Turn_On@F2825:
  1009                           	callstack 0
  1010   00004F                     	ds	1
  1011   000050                     Led_Intialize@F2820:
  1012                           	callstack 0
  1013   000050                     	ds	1
  1014   000051                     _led_Admin:
  1015                           	callstack 0
  1016   000051                     	ds	1
  1017                           
  1018                           	psect	dataCOMRAM
  1019   000052                     __pdataCOMRAM:
  1020                           	callstack 0
  1021   000052                     MSSP_SPI_Slave_Mode_GPIO_PIN_Configurations@F2878:
  1022                           	callstack 0
  1023   000052                     	ds	1
  1024   000053                     MSSP_SPI_Slave_Mode_GPIO_PIN_Configurations@F2876:
  1025                           	callstack 0
  1026   000053                     	ds	1
  1027   000054                     MSSP_SPI_Slave_Mode_GPIO_PIN_Configurations@F2874:
  1028                           	callstack 0
  1029   000054                     	ds	1
  1030   000055                     MSSP_SPI_Slave_Mode_GPIO_PIN_Configurations@F2872:
  1031                           	callstack 0
  1032   000055                     	ds	1
  1033   000056                     MSSP_SPI_Msster_Mode_GPIO_PIN_Configurations@F2867:
  1034                           	callstack 0
  1035   000056                     	ds	1
  1036   000057                     MSSP_SPI_Msster_Mode_GPIO_PIN_Configurations@F2865:
  1037                           	callstack 0
  1038   000057                     	ds	1
  1039   000058                     MSSP_SPI_Msster_Mode_GPIO_PIN_Configurations@F2863:
  1040                           	callstack 0
  1041   000058                     	ds	1
  1042   000059                     _RB7_flag:
  1043                           	callstack 0
  1044   000059                     	ds	1
  1045   00005A                     _RB6_flag:
  1046                           	callstack 0
  1047   00005A                     	ds	1
  1048   00005B                     _RB5_flag:
  1049                           	callstack 0
  1050   00005B                     	ds	1
  1051   00005C                     _RB4_flag:
  1052                           	callstack 0
  1053   00005C                     	ds	1
  1054   00005D                     _lcd1:
  1055                           	callstack 0
  1056   00005D                     	ds	6
  1057   000063                     _led_Guest:
  1058                           	callstack 0
  1059   000063                     	ds	1
  1060   000064                     _led_Block:
  1061                           	callstack 0
  1062   000064                     	ds	1
  1063                           
  1064                           	psect	bssBANK0
  1065   0000B7                     __pbssBANK0:
  1066                           	callstack 0
  1067   0000B7                     	ds	6
  1068   0000BD                     	ds	4
  1069   0000C1                     _EUSART_OVERRUNERRORDefaultHandler_:
  1070                           	callstack 0
  1071   0000C1                     	ds	2
  1072   0000C3                     _EUSART_FRAMINGERRORDefaultHandler_:
  1073                           	callstack 0
  1074   0000C3                     	ds	2
  1075   0000C5                     _USART_RX_IntterruptHandeler_:
  1076                           	callstack 0
  1077   0000C5                     	ds	2
  1078   0000C7                     _USART_TX_IntterruptHandeler_:
  1079                           	callstack 0
  1080   0000C7                     	ds	2
  1081   0000C9                     _TIMER3_InterruptHandler:
  1082                           	callstack 0
  1083   0000C9                     	ds	2
  1084   0000CB                     _TIMER2_IntterruptHandeler_:
  1085                           	callstack 0
  1086   0000CB                     	ds	2
  1087   0000CD                     _TIMER1_IntterruptHandeler:
  1088                           	callstack 0
  1089   0000CD                     	ds	2
  1090   0000CF                     _RB7_interruptHandler_Low:
  1091                           	callstack 0
  1092   0000CF                     	ds	2
  1093   0000D1                     _RB7_interruptHandler_High:
  1094                           	callstack 0
  1095   0000D1                     	ds	2
  1096   0000D3                     _RB6_interruptHandler_Low:
  1097                           	callstack 0
  1098   0000D3                     	ds	2
  1099   0000D5                     _RB6_interruptHandler_High:
  1100                           	callstack 0
  1101   0000D5                     	ds	2
  1102   0000D7                     _RB5_interruptHandler_Low:
  1103                           	callstack 0
  1104   0000D7                     	ds	2
  1105   0000D9                     _RB5_interruptHandler_High:
  1106                           	callstack 0
  1107   0000D9                     	ds	2
  1108   0000DB                     _RB4_interruptHandler_Low:
  1109                           	callstack 0
  1110   0000DB                     	ds	2
  1111   0000DD                     _RB4_interruptHandler_High:
  1112                           	callstack 0
  1113   0000DD                     	ds	2
  1114   0000DF                     _INT2_interruptHandler:
  1115                           	callstack 0
  1116   0000DF                     	ds	2
  1117   0000E1                     _INT1_interruptHandler:
  1118                           	callstack 0
  1119   0000E1                     	ds	2
  1120   0000E3                     _INT0_interruptHandler:
  1121                           	callstack 0
  1122   0000E3                     	ds	2
  1123   0000E5                     	ds	2
  1124   0000E7                     _spi_slave_reader:
  1125                           	callstack 0
  1126   0000E7                     	ds	1
  1127   0000E8                     _Guest_pass_flag:
  1128                           	callstack 0
  1129   0000E8                     	ds	1
  1130   0000E9                     _Admin_pass_flag:
  1131                           	callstack 0
  1132   0000E9                     	ds	1
  1133   0000EA                     _key_status:
  1134                           	callstack 0
  1135   0000EA                     	ds	1
  1136                           
  1137                           	psect	dataBANK0
  1138   000080                     __pdataBANK0:
  1139                           	callstack 0
  1140   000080                     _Port_Reg:
  1141                           	callstack 0
  1142   000080                     	ds	10
  1143   00008A                     _Lat_Reg:
  1144                           	callstack 0
  1145   00008A                     	ds	10
  1146   000094                     _Tris_Reg:
  1147                           	callstack 0
  1148   000094                     	ds	10
  1149   00009E                     _Guest_pass_tries:
  1150                           	callstack 0
  1151   00009E                     	ds	1
  1152   00009F                     _admin_pass_tries:
  1153                           	callstack 0
  1154   00009F                     	ds	1
  1155   0000A0                     _pass_counter:
  1156                           	callstack 0
  1157   0000A0                     	ds	1
  1158   0000A1                     _cursor:
  1159                           	callstack 0
  1160   0000A1                     	ds	1
  1161   0000A2                     _Guest_Start_address:
  1162                           	callstack 0
  1163   0000A2                     	ds	1
  1164   0000A3                     _Admin_Start_address:
  1165                           	callstack 0
  1166   0000A3                     	ds	1
  1167   0000A4                     _key_pad1:
  1168                           	callstack 0
  1169   0000A4                     	ds	8
  1170   0000AC                     _timer0:
  1171                           	callstack 0
  1172   0000AC                     	ds	6
  1173   0000B2                     _spi_master:
  1174                           	callstack 0
  1175   0000B2                     	ds	2
  1176   0000B4                     _eeprom_digit_read:
  1177                           	callstack 0
  1178   0000B4                     	ds	1
  1179   0000B5                     _Guest_pass_status:
  1180                           	callstack 0
  1181   0000B5                     	ds	1
  1182   0000B6                     _Admin_pass_status:
  1183                           	callstack 0
  1184   0000B6                     	ds	1
  1185                           
  1186                           	psect	bssBANK1
  1187   000115                     __pbssBANK1:
  1188                           	callstack 0
  1189   000115                     	ds	11
  1190                           
  1191                           	psect	cstackBANK1
  1192   000100                     __pcstackBANK1:
  1193                           	callstack 0
  1194   000100                     ??_SPI_Init:
  1195   000100                     ?_lcd_send_command:
  1196                           	callstack 0
  1197   000100                     ?_lcd_send_char_data:
  1198                           	callstack 0
  1199   000100                     lcd_send_command@_LCD_:
  1200                           	callstack 0
  1201   000100                     lcd_send_char_data@_LCD_:
  1202                           	callstack 0
  1203   000100                     Key_Pad_Intialize@ret:
  1204                           	callstack 0
  1205   000100                     Key_Pad_Get_Value@ret:
  1206                           	callstack 0
  1207   000100                     Led_Intialize@ret:
  1208                           	callstack 0
  1209                           
  1210                           ; 2 bytes @ 0x0
  1211   000100                     	ds	2
  1212   000102                     lcd_send_command@command:
  1213                           	callstack 0
  1214   000102                     lcd_send_char_data@data:
  1215                           	callstack 0
  1216   000102                     Key_Pad_Intialize@counter:
  1217                           	callstack 0
  1218   000102                     Key_Pad_Get_Value@coulmns_logic:
  1219                           	callstack 0
  1220   000102                     Led_Intialize@_pin_config_:
  1221                           	callstack 0
  1222                           
  1223                           ; 1 bytes @ 0x2
  1224   000102                     	ds	1
  1225   000103                     Key_Pad_Get_Value@rows:
  1226                           	callstack 0
  1227   000103                     lcd_send_command@ret:
  1228                           	callstack 0
  1229   000103                     lcd_send_char_data@ret:
  1230                           	callstack 0
  1231                           
  1232                           ; 2 bytes @ 0x3
  1233   000103                     	ds	1
  1234   000104                     Key_Pad_Get_Value@coulmns:
  1235                           	callstack 0
  1236                           
  1237                           ; 1 bytes @ 0x4
  1238   000104                     	ds	1
  1239   000105                     ?_lcd_intialize:
  1240                           	callstack 0
  1241   000105                     ?_lcd_send_string_data:
  1242                           	callstack 0
  1243   000105                     lcd_intialize@_LCD_:
  1244                           	callstack 0
  1245   000105                     lcd_send_string_data@_LCD_:
  1246                           	callstack 0
  1247   000105                     lcd_set_cursor@_LCD_:
  1248                           	callstack 0
  1249                           
  1250                           ; 2 bytes @ 0x5
  1251   000105                     	ds	2
  1252   000107                     ??_lcd_intialize:
  1253   000107                     lcd_set_cursor@row:
  1254                           	callstack 0
  1255   000107                     lcd_send_string_data@str:
  1256                           	callstack 0
  1257                           
  1258                           ; 2 bytes @ 0x7
  1259   000107                     	ds	1
  1260   000108                     lcd_set_cursor@coulmn:
  1261                           	callstack 0
  1262                           
  1263                           ; 1 bytes @ 0x8
  1264   000108                     	ds	1
  1265   000109                     ??_lcd_set_cursor:
  1266   000109                     lcd_intialize@ret:
  1267                           	callstack 0
  1268   000109                     lcd_send_string_data@ret:
  1269                           	callstack 0
  1270                           
  1271                           ; 2 bytes @ 0x9
  1272   000109                     	ds	2
  1273   00010B                     ?_lcd_send_ATpos_char_data:
  1274                           	callstack 0
  1275   00010B                     ?_lcd_send_ATpos_string_data:
  1276                           	callstack 0
  1277   00010B                     lcd_intialize@data_pin_counter:
  1278                           	callstack 0
  1279   00010B                     lcd_send_ATpos_char_data@_LCD_:
  1280                           	callstack 0
  1281   00010B                     lcd_send_ATpos_string_data@_LCD_:
  1282                           	callstack 0
  1283                           
  1284                           ; 2 bytes @ 0xB
  1285   00010B                     	ds	2
  1286   00010D                     lcd_send_ATpos_char_data@row:
  1287                           	callstack 0
  1288   00010D                     lcd_send_ATpos_string_data@row:
  1289                           	callstack 0
  1290                           
  1291                           ; 1 bytes @ 0xD
  1292   00010D                     	ds	1
  1293   00010E                     lcd_send_ATpos_char_data@coulmns:
  1294                           	callstack 0
  1295   00010E                     lcd_send_ATpos_string_data@coulmns:
  1296                           	callstack 0
  1297                           
  1298                           ; 1 bytes @ 0xE
  1299   00010E                     	ds	1
  1300   00010F                     lcd_send_ATpos_char_data@data:
  1301                           	callstack 0
  1302   00010F                     lcd_send_ATpos_string_data@str:
  1303                           	callstack 0
  1304                           
  1305                           ; 2 bytes @ 0xF
  1306   00010F                     	ds	1
  1307   000110                     lcd_send_ATpos_char_data@ret:
  1308                           	callstack 0
  1309                           
  1310                           ; 2 bytes @ 0x10
  1311   000110                     	ds	1
  1312   000111                     lcd_send_ATpos_string_data@ret:
  1313                           	callstack 0
  1314                           
  1315                           ; 2 bytes @ 0x11
  1316   000111                     	ds	2
  1317   000113                     ??_main:
  1318                           
  1319                           ; 1 bytes @ 0x13
  1320   000113                     	ds	2
  1321                           
  1322                           	psect	cstackBANK0
  1323   0000EB                     __pcstackBANK0:
  1324                           	callstack 0
  1325   0000EB                     ?_GPIO_Pin_Direction_Intialize:
  1326                           	callstack 0
  1327   0000EB                     ?_GPIO_Pin_Read_Logic:
  1328                           	callstack 0
  1329   0000EB                     ?_GPIO_Pin_Write_Logic:
  1330                           	callstack 0
  1331   0000EB                     ?_EEPROM_Data_WriteByte:
  1332                           	callstack 0
  1333   0000EB                     ?_EEPROM_Data_ReadByte:
  1334                           	callstack 0
  1335   0000EB                     ?_SPI_Send_Byte:
  1336   0000EB                     EEPROM_Data_WriteByte@bAdd:
  1337                           	callstack 0
  1338   0000EB                     EEPROM_Data_ReadByte@bAdd:
  1339                           	callstack 0
  1340   0000EB                     GPIO_Pin_Direction_Intialize@_Pin_Config_:
  1341                           	callstack 0
  1342   0000EB                     GPIO_Pin_Write_Logic@_Pin_Config_:
  1343                           	callstack 0
  1344   0000EB                     GPIO_Pin_Read_Logic@_Pin_Config_:
  1345                           	callstack 0
  1346   0000EB                     Timer0_Prescaler_Config@timer0_:
  1347                           	callstack 0
  1348   0000EB                     Timer0_Mode_Select@timer0_:
  1349                           	callstack 0
  1350   0000EB                     Timer0_Bit_Mode_Select@timer0_:
  1351                           	callstack 0
  1352                           
  1353                           ; 2 bytes @ 0x0
  1354   0000EB                     	ds	2
  1355   0000ED                     ??_GPIO_Pin_Direction_Intialize:
  1356   0000ED                     ??_Timer0_Prescaler_Config:
  1357   0000ED                     EEPROM_Data_WriteByte@bData:
  1358                           	callstack 0
  1359   0000ED                     GPIO_Pin_Write_Logic@Logic:
  1360                           	callstack 0
  1361   0000ED                     SPI_Send_Byte@_data:
  1362                           	callstack 0
  1363   0000ED                     EEPROM_Data_ReadByte@bData:
  1364                           	callstack 0
  1365   0000ED                     GPIO_Pin_Read_Logic@Logic:
  1366                           	callstack 0
  1367                           
  1368                           ; 2 bytes @ 0x2
  1369   0000ED                     	ds	1
  1370   0000EE                     ??_GPIO_Pin_Write_Logic:
  1371   0000EE                     ?_Timer0_Intialization:
  1372                           	callstack 0
  1373   0000EE                     EEPROM_Data_WriteByte@Global_int_status:
  1374                           	callstack 0
  1375   0000EE                     Timer0_Intialization@timer0_:
  1376                           	callstack 0
  1377                           
  1378                           ; 2 bytes @ 0x3
  1379   0000EE                     	ds	1
  1380   0000EF                     ??_GPIO_Pin_Read_Logic:
  1381   0000EF                     EEPROM_Data_WriteByte@ret:
  1382                           	callstack 0
  1383   0000EF                     EEPROM_Data_ReadByte@ret:
  1384                           	callstack 0
  1385                           
  1386                           ; 2 bytes @ 0x4
  1387   0000EF                     	ds	1
  1388   0000F0                     ??_Timer0_Intialization:
  1389                           
  1390                           ; 1 bytes @ 0x5
  1391   0000F0                     	ds	2
  1392   0000F2                     Timer0_Intialization@ret:
  1393                           	callstack 0
  1394                           
  1395                           ; 2 bytes @ 0x7
  1396   0000F2                     	ds	1
  1397   0000F3                     GPIO_Pin_Direction_Intialize@ret:
  1398                           	callstack 0
  1399                           
  1400                           ; 2 bytes @ 0x8
  1401   0000F3                     	ds	1
  1402   0000F4                     GPIO_Pin_Write_Logic@ret:
  1403                           	callstack 0
  1404                           
  1405                           ; 2 bytes @ 0x9
  1406   0000F4                     	ds	1
  1407   0000F5                     MSSP_SPI_Msster_Mode_GPIO_PIN_Configurations@SPI_SDO:
  1408                           	callstack 0
  1409   0000F5                     GPIO_Pin_Read_Logic@ret:
  1410                           	callstack 0
  1411   0000F5                     MSSP_SPI_Slave_Mode_GPIO_PIN_Configurations@_SPI_:
  1412                           	callstack 0
  1413                           
  1414                           ; 2 bytes @ 0xA
  1415   0000F5                     	ds	1
  1416   0000F6                     ?_GPIO_Pin_Intialize:
  1417                           	callstack 0
  1418   0000F6                     ?_Led_Turn_On:
  1419                           	callstack 0
  1420   0000F6                     MSSP_SPI_Msster_Mode_GPIO_PIN_Configurations@SPI_SDI:
  1421                           	callstack 0
  1422   0000F6                     lcd_send_4_bit_data@_LCD_:
  1423                           	callstack 0
  1424   0000F6                     lcd_send_enable@_LCD_:
  1425                           	callstack 0
  1426   0000F6                     Led_Turn_On@Led:
  1427                           	callstack 0
  1428   0000F6                     GPIO_Pin_Intialize@_Pin_Config_:
  1429                           	callstack 0
  1430                           
  1431                           ; 2 bytes @ 0xB
  1432   0000F6                     	ds	1
  1433   0000F7                     ?_Key_Pad_Get_Value:
  1434                           	callstack 0
  1435   0000F7                     MSSP_SPI_Msster_Mode_GPIO_PIN_Configurations@SPI_SCK:
  1436                           	callstack 0
  1437   0000F7                     Key_Pad_Get_Value@_key_pad:
  1438                           	callstack 0
  1439                           
  1440                           ; 2 bytes @ 0xC
  1441   0000F7                     	ds	1
  1442   0000F8                     ??_Led_Turn_On:
  1443   0000F8                     lcd_send_4_bit_data@_data_command:
  1444                           	callstack 0
  1445   0000F8                     MSSP_SPI_Slave_Mode_GPIO_PIN_Configurations@SPI_SDO:
  1446                           	callstack 0
  1447   0000F8                     GPIO_Pin_Intialize@ret:
  1448                           	callstack 0
  1449                           
  1450                           ; 2 bytes @ 0xD
  1451   0000F8                     	ds	1
  1452   0000F9                     ??_lcd_send_4_bit_data:
  1453   0000F9                     MSSP_SPI_Slave_Mode_GPIO_PIN_Configurations@SPI_SDI:
  1454                           	callstack 0
  1455   0000F9                     Key_Pad_Get_Value@value:
  1456                           	callstack 0
  1457   0000F9                     Led_Turn_On@ret:
  1458                           	callstack 0
  1459                           
  1460                           ; 2 bytes @ 0xE
  1461   0000F9                     	ds	1
  1462   0000FA                     ?_Key_Pad_Intialize:
  1463                           	callstack 0
  1464   0000FA                     ?_Led_Intialize:
  1465                           	callstack 0
  1466   0000FA                     MSSP_SPI_Slave_Mode_GPIO_PIN_Configurations@SPI_SS:
  1467                           	callstack 0
  1468   0000FA                     Key_Pad_Intialize@_key_pad:
  1469                           	callstack 0
  1470   0000FA                     Led_Intialize@Led:
  1471                           	callstack 0
  1472                           
  1473                           ; 2 bytes @ 0xF
  1474   0000FA                     	ds	1
  1475   0000FB                     ??_Key_Pad_Get_Value:
  1476   0000FB                     Led_Turn_On@_pin_config_:
  1477                           	callstack 0
  1478   0000FB                     MSSP_SPI_Slave_Mode_GPIO_PIN_Configurations@SPI_SCK:
  1479                           	callstack 0
  1480                           
  1481                           ; 1 bytes @ 0x10
  1482   0000FB                     	ds	1
  1483   0000FC                     ??_Key_Pad_Intialize:
  1484   0000FC                     ??_Led_Intialize:
  1485   0000FC                     ?_SPI_Init:
  1486   0000FC                     SPI_Init@_SPI_:
  1487                           	callstack 0
  1488                           
  1489                           ; 2 bytes @ 0x11
  1490   0000FC                     	ds	1
  1491   0000FD                     lcd_send_4_bit_data@pin_counter:
  1492                           	callstack 0
  1493                           
  1494                           ; 1 bytes @ 0x12
  1495   0000FD                     	ds	1
  1496   0000FE                     
  1497                           ; 1 bytes @ 0x13
  1498                           
  1499                           	psect	cstackCOMRAM
  1500   000001                     __pcstackCOMRAM:
  1501                           	callstack 0
  1502   000001                     ?i2_GPIO_Pin_Write_Logic:
  1503                           	callstack 0
  1504   000001                     RB4_ISR@state:
  1505                           	callstack 0
  1506   000001                     RB5_ISR@state:
  1507                           	callstack 0
  1508   000001                     RB6_ISR@state:
  1509                           	callstack 0
  1510   000001                     RB7_ISR@state:
  1511                           	callstack 0
  1512   000001                     i2GPIO_Pin_Write_Logic@_Pin_Config_:
  1513                           	callstack 0
  1514                           
  1515                           ; 2 bytes @ 0x0
  1516   000001                     	ds	2
  1517   000003                     i2GPIO_Pin_Write_Logic@Logic:
  1518                           	callstack 0
  1519                           
  1520                           ; 1 bytes @ 0x2
  1521   000003                     	ds	1
  1522   000004                     ??i2_GPIO_Pin_Write_Logic:
  1523                           
  1524                           ; 1 bytes @ 0x3
  1525   000004                     	ds	6
  1526   00000A                     i2GPIO_Pin_Write_Logic@ret:
  1527                           	callstack 0
  1528                           
  1529                           ; 2 bytes @ 0x9
  1530   00000A                     	ds	2
  1531   00000C                     i2lcd_send_4_bit_data@_LCD_:
  1532                           	callstack 0
  1533   00000C                     i2lcd_send_enable@_LCD_:
  1534                           	callstack 0
  1535                           
  1536                           ; 2 bytes @ 0xB
  1537   00000C                     	ds	2
  1538   00000E                     i2lcd_send_4_bit_data@_data_command:
  1539                           	callstack 0
  1540                           
  1541                           ; 1 bytes @ 0xD
  1542   00000E                     	ds	1
  1543   00000F                     ??i2_lcd_send_4_bit_data:
  1544                           
  1545                           ; 1 bytes @ 0xE
  1546   00000F                     	ds	4
  1547   000013                     i2lcd_send_4_bit_data@pin_counter:
  1548                           	callstack 0
  1549                           
  1550                           ; 1 bytes @ 0x12
  1551   000013                     	ds	1
  1552   000014                     ?i2_lcd_send_command:
  1553                           	callstack 0
  1554   000014                     ?i2_lcd_send_char_data:
  1555                           	callstack 0
  1556   000014                     i2lcd_send_command@_LCD_:
  1557                           	callstack 0
  1558   000014                     i2lcd_send_char_data@_LCD_:
  1559                           	callstack 0
  1560                           
  1561                           ; 2 bytes @ 0x13
  1562   000014                     	ds	2
  1563   000016                     i2lcd_send_command@command:
  1564                           	callstack 0
  1565   000016                     i2lcd_send_char_data@data:
  1566                           	callstack 0
  1567                           
  1568                           ; 1 bytes @ 0x15
  1569   000016                     	ds	1
  1570   000017                     i2lcd_send_command@ret:
  1571                           	callstack 0
  1572   000017                     i2lcd_send_char_data@ret:
  1573                           	callstack 0
  1574                           
  1575                           ; 2 bytes @ 0x16
  1576   000017                     	ds	2
  1577   000019                     ?i2_lcd_send_string_data:
  1578                           	callstack 0
  1579   000019                     i2lcd_send_string_data@_LCD_:
  1580                           	callstack 0
  1581   000019                     i2lcd_set_cursor@_LCD_:
  1582                           	callstack 0
  1583                           
  1584                           ; 2 bytes @ 0x18
  1585   000019                     	ds	2
  1586   00001B                     i2lcd_set_cursor@row:
  1587                           	callstack 0
  1588   00001B                     i2lcd_send_string_data@str:
  1589                           	callstack 0
  1590                           
  1591                           ; 2 bytes @ 0x1A
  1592   00001B                     	ds	1
  1593   00001C                     i2lcd_set_cursor@coulmn:
  1594                           	callstack 0
  1595                           
  1596                           ; 1 bytes @ 0x1B
  1597   00001C                     	ds	1
  1598   00001D                     ??i2_lcd_set_cursor:
  1599   00001D                     i2lcd_send_string_data@ret:
  1600                           	callstack 0
  1601                           
  1602                           ; 2 bytes @ 0x1C
  1603   00001D                     	ds	2
  1604   00001F                     ?i2_lcd_send_ATpos_string_data:
  1605                           	callstack 0
  1606   00001F                     i2lcd_send_ATpos_string_data@_LCD_:
  1607                           	callstack 0
  1608                           
  1609                           ; 2 bytes @ 0x1E
  1610   00001F                     	ds	2
  1611   000021                     i2lcd_send_ATpos_string_data@row:
  1612                           	callstack 0
  1613                           
  1614                           ; 1 bytes @ 0x20
  1615   000021                     	ds	1
  1616   000022                     i2lcd_send_ATpos_string_data@coulmns:
  1617                           	callstack 0
  1618                           
  1619                           ; 1 bytes @ 0x21
  1620   000022                     	ds	1
  1621   000023                     i2lcd_send_ATpos_string_data@str:
  1622                           	callstack 0
  1623                           
  1624                           ; 2 bytes @ 0x22
  1625   000023                     	ds	2
  1626   000025                     i2lcd_send_ATpos_string_data@ret:
  1627                           	callstack 0
  1628                           
  1629                           ; 2 bytes @ 0x24
  1630   000025                     	ds	2
  1631   000027                     ??_timer0_isr:
  1632                           
  1633                           ; 1 bytes @ 0x26
  1634   000027                     	ds	2
  1635   000029                     ??_InterruptManagerHigh:
  1636                           
  1637                           ; 1 bytes @ 0x28
  1638   000029                     	ds	10
  1639                           
  1640 ;;
  1641 ;;Main: autosize = 0, tempsize = 2, incstack = 0, save=0
  1642 ;;
  1643 ;; *************** function _main *****************
  1644 ;; Defined at:
  1645 ;;		line 13 in file "Application.c"
  1646 ;; Parameters:    Size  Location     Type
  1647 ;;		None
  1648 ;; Auto vars:     Size  Location     Type
  1649 ;;		None
  1650 ;; Return value:  Size  Location     Type
  1651 ;;                  2  1752[None  ] int 
  1652 ;; Registers used:
  1653 ;;		wreg, fsr2l, fsr2h, status,2, status,0, tblptrl, tblptrh, tblptru, prodl, prodh, cstack
  1654 ;; Tracked objects:
  1655 ;;		On entry : 0/0
  1656 ;;		On exit  : 0/0
  1657 ;;		Unchanged: 0/0
  1658 ;; Data sizes:     COMRAM   BANK0   BANK1   BANK2   BANK3   BANK4   BANK5   BANK6   BANK7   BANK8   BANK9  BANK10  BANK1
      +1  BANK12  BANK13  BANK14  BANK15
  1659 ;;      Params:         0       0       0       0       0       0       0       0       0       0       0       0       
      +0       0       0       0       0
  1660 ;;      Locals:         0       0       0       0       0       0       0       0       0       0       0       0       
      +0       0       0       0       0
  1661 ;;      Temps:          0       0       2       0       0       0       0       0       0       0       0       0       
      +0       0       0       0       0
  1662 ;;      Totals:         0       0       2       0       0       0       0       0       0       0       0       0       
      +0       0       0       0       0
  1663 ;;Total ram usage:        2 bytes
  1664 ;; Hardware stack levels required when called: 14
  1665 ;; This function calls:
  1666 ;;		_EEPROM_Data_ReadByte
  1667 ;;		_EEPROM_Data_WriteByte
  1668 ;;		_Key_Pad_Get_Value
  1669 ;;		_Led_Turn_On
  1670 ;;		_SPI_Send_Byte
  1671 ;;		_Timer0_Intialization
  1672 ;;		_intialization
  1673 ;;		_lcd_send_ATpos_char_data
  1674 ;;		_lcd_send_ATpos_string_data
  1675 ;;		_lcd_send_command
  1676 ;; This function is called by:
  1677 ;;		Startup code after reset
  1678 ;; This function uses a non-reentrant model
  1679 ;;
  1680                           
  1681                           	psect	text0
  1682   000012                     __ptext0:
  1683                           	callstack 0
  1684   000012                     _main:
  1685                           	callstack 17
  1686   000012                     
  1687                           ;Application.c: 14:     intialization();
  1688   000012  ECFA  F01E         	call	_intialization	;wreg free
  1689                           
  1690                           ;Application.c: 15:     ret = lcd_send_command(&lcd1 , 0x01);
  1691   000016  0E5D               	movlw	low _lcd1
  1692   000018  0101               	movlb	1	; () banked
  1693   00001A  6F00               	movwf	lcd_send_command@_LCD_& (0+255),b
  1694   00001C  0E00               	movlw	high _lcd1
  1695   00001E  6F01               	movwf	(lcd_send_command@_LCD_+1)& (0+255),b
  1696   000020  0E01               	movlw	1
  1697   000022  6F02               	movwf	lcd_send_command@command& (0+255),b
  1698   000024  EC52  F01B         	call	_lcd_send_command	;wreg free
  1699   000028  C100  F0FE         	movff	?_lcd_send_command,_ret
  1700   00002C  C101  F0FF         	movff	?_lcd_send_command+1,_ret+1
  1701   000030                     
  1702                           ;Application.c: 16:     ret = lcd_send_ATpos_string_data(&lcd1 , 1 , 7 , "Welcome");
  1703   000030  0E5D               	movlw	low _lcd1
  1704   000032  0101               	movlb	1	; () banked
  1705   000034  6F0B               	movwf	lcd_send_ATpos_string_data@_LCD_& (0+255),b
  1706   000036  0E00               	movlw	high _lcd1
  1707   000038  6F0C               	movwf	(lcd_send_ATpos_string_data@_LCD_+1)& (0+255),b
  1708   00003A  0E01               	movlw	1
  1709   00003C  6F0D               	movwf	lcd_send_ATpos_string_data@row& (0+255),b
  1710   00003E  0E07               	movlw	7
  1711   000040  6F0E               	movwf	lcd_send_ATpos_string_data@coulmns& (0+255),b
  1712   000042  0ECC               	movlw	low STR_4
  1713   000044  6F0F               	movwf	lcd_send_ATpos_string_data@str& (0+255),b
  1714   000046  0EFF               	movlw	high STR_4
  1715   000048  6F10               	movwf	(lcd_send_ATpos_string_data@str+1)& (0+255),b
  1716   00004A  ECB8  F01C         	call	_lcd_send_ATpos_string_data	;wreg free
  1717   00004E  C10B  F0FE         	movff	?_lcd_send_ATpos_string_data,_ret
  1718   000052  C10C  F0FF         	movff	?_lcd_send_ATpos_string_data+1,_ret+1
  1719   000056                     
  1720                           ;Application.c: 17:     ret = lcd_send_ATpos_string_data(&lcd1 , 2 , 1 , "To Smart Home 
      +                          System");
  1721   000056  0E5D               	movlw	low _lcd1
  1722   000058  0101               	movlb	1	; () banked
  1723   00005A  6F0B               	movwf	lcd_send_ATpos_string_data@_LCD_& (0+255),b
  1724   00005C  0E00               	movlw	high _lcd1
  1725   00005E  6F0C               	movwf	(lcd_send_ATpos_string_data@_LCD_+1)& (0+255),b
  1726   000060  0E02               	movlw	2
  1727   000062  6F0D               	movwf	lcd_send_ATpos_string_data@row& (0+255),b
  1728   000064  0E01               	movlw	1
  1729   000066  6F0E               	movwf	lcd_send_ATpos_string_data@coulmns& (0+255),b
  1730   000068  0E25               	movlw	low STR_5
  1731   00006A  6F0F               	movwf	lcd_send_ATpos_string_data@str& (0+255),b
  1732   00006C  0EFE               	movlw	high STR_5
  1733   00006E  6F10               	movwf	(lcd_send_ATpos_string_data@str+1)& (0+255),b
  1734   000070  ECB8  F01C         	call	_lcd_send_ATpos_string_data	;wreg free
  1735   000074  C10B  F0FE         	movff	?_lcd_send_ATpos_string_data,_ret
  1736   000078  C10C  F0FF         	movff	?_lcd_send_ATpos_string_data+1,_ret+1
  1737   00007C                     
  1738                           ;Application.c: 18:     _delay((unsigned long)((1000)*(4000000UL/4000.0)));
  1739   00007C  0E06               	movlw	6
  1740   00007E  0101               	movlb	1	; () banked
  1741   000080  6F14               	movwf	(??_main+1)& (0+255),b
  1742   000082  0E13               	movlw	19
  1743   000084  6F13               	movwf	??_main& (0+255),b
  1744   000086  0EAD               	movlw	173
  1745   000088                     u9737:
  1746   000088  2EE8               	decfsz	wreg,f,c
  1747   00008A  D7FE               	bra	u9737
  1748   00008C  2F13               	decfsz	??_main& (0+255),f,b
  1749   00008E  D7FC               	bra	u9737
  1750   000090  2F14               	decfsz	(??_main+1)& (0+255),f,b
  1751   000092  D7FA               	bra	u9737
  1752   000094  D000               	nop2	
  1753   000096                     
  1754                           ;Application.c: 19:     ret = lcd_send_command(&lcd1 , 0x01);
  1755   000096  0E5D               	movlw	low _lcd1
  1756   000098  0101               	movlb	1	; () banked
  1757   00009A  6F00               	movwf	lcd_send_command@_LCD_& (0+255),b
  1758   00009C  0E00               	movlw	high _lcd1
  1759   00009E  6F01               	movwf	(lcd_send_command@_LCD_+1)& (0+255),b
  1760   0000A0  0E01               	movlw	1
  1761   0000A2  6F02               	movwf	lcd_send_command@command& (0+255),b
  1762   0000A4  EC52  F01B         	call	_lcd_send_command	;wreg free
  1763   0000A8  C100  F0FE         	movff	?_lcd_send_command,_ret
  1764   0000AC  C101  F0FF         	movff	?_lcd_send_command+1,_ret+1
  1765   0000B0                     
  1766                           ;Application.c: 21:     ret = EEPROM_Data_ReadByte(0X100 , &Admin_pass_status);
  1767   0000B0  0E01               	movlw	1
  1768   0000B2  0100               	movlb	0	; () banked
  1769   0000B4  6FEC               	movwf	(EEPROM_Data_ReadByte@bAdd+1)& (0+255),b
  1770   0000B6  0E00               	movlw	0
  1771   0000B8  6FEB               	movwf	EEPROM_Data_ReadByte@bAdd& (0+255),b
  1772   0000BA  0EB6               	movlw	low _Admin_pass_status
  1773   0000BC  6FED               	movwf	EEPROM_Data_ReadByte@bData& (0+255),b
  1774   0000BE  0E00               	movlw	high _Admin_pass_status
  1775   0000C0  6FEE               	movwf	(EEPROM_Data_ReadByte@bData+1)& (0+255),b
  1776   0000C2  EC06  F01E         	call	_EEPROM_Data_ReadByte	;wreg free
  1777   0000C6  C0EB  F0FE         	movff	?_EEPROM_Data_ReadByte,_ret
  1778   0000CA  C0EC  F0FF         	movff	?_EEPROM_Data_ReadByte+1,_ret+1
  1779   0000CE                     
  1780                           ;Application.c: 22:     ret = EEPROM_Data_ReadByte(0X101 , &Guest_pass_status);
  1781   0000CE  0E01               	movlw	1
  1782   0000D0  0100               	movlb	0	; () banked
  1783   0000D2  6FEC               	movwf	(EEPROM_Data_ReadByte@bAdd+1)& (0+255),b
  1784   0000D4  0E01               	movlw	1
  1785   0000D6  6FEB               	movwf	EEPROM_Data_ReadByte@bAdd& (0+255),b
  1786   0000D8  0EB5               	movlw	low _Guest_pass_status
  1787   0000DA  6FED               	movwf	EEPROM_Data_ReadByte@bData& (0+255),b
  1788   0000DC  0E00               	movlw	high _Guest_pass_status
  1789   0000DE  6FEE               	movwf	(EEPROM_Data_ReadByte@bData+1)& (0+255),b
  1790   0000E0  EC06  F01E         	call	_EEPROM_Data_ReadByte	;wreg free
  1791   0000E4  C0EB  F0FE         	movff	?_EEPROM_Data_ReadByte,_ret
  1792   0000E8  C0EC  F0FF         	movff	?_EEPROM_Data_ReadByte+1,_ret+1
  1793   0000EC                     
  1794                           ;Application.c: 23:     if((uint8)0xFF == Admin_pass_status || (uint8)0xFF == Guest_pass
      +                          _status)
  1795   0000EC  0100               	movlb	0	; () banked
  1796   0000EE  29B6               	incf	_Admin_pass_status& (0+255),w,b
  1797   0000F0  B4D8               	btfsc	status,2,c
  1798   0000F2  EF7D  F000         	goto	u9001
  1799   0000F6  EF7F  F000         	goto	u9000
  1800   0000FA                     u9001:
  1801   0000FA  EF87  F000         	goto	l10157
  1802   0000FE                     u9000:
  1803   0000FE                     
  1804                           ; BSR set to: 0
  1805   0000FE  29B5               	incf	_Guest_pass_status& (0+255),w,b
  1806   000100  A4D8               	btfss	status,2,c
  1807   000102  EF85  F000         	goto	u9011
  1808   000106  EF87  F000         	goto	u9010
  1809   00010A                     u9011:
  1810   00010A  EF70  F002         	goto	l10245
  1811   00010E                     u9010:
  1812   00010E                     l10157:
  1813                           
  1814                           ; BSR set to: 0
  1815                           ;Application.c: 24:     {;Application.c: 25:         ret = lcd_send_ATpos_string_data(&l
      +                          cd1 , 1 , 1 , "Set Admin Password");
  1816   00010E  0E5D               	movlw	low _lcd1
  1817   000110  0101               	movlb	1	; () banked
  1818   000112  6F0B               	movwf	lcd_send_ATpos_string_data@_LCD_& (0+255),b
  1819   000114  0E00               	movlw	high _lcd1
  1820   000116  6F0C               	movwf	(lcd_send_ATpos_string_data@_LCD_+1)& (0+255),b
  1821   000118  0E01               	movlw	1
  1822   00011A  6F0D               	movwf	lcd_send_ATpos_string_data@row& (0+255),b
  1823   00011C  0E01               	movlw	1
  1824   00011E  6F0E               	movwf	lcd_send_ATpos_string_data@coulmns& (0+255),b
  1825   000120  0E61               	movlw	low STR_6
  1826   000122  6F0F               	movwf	lcd_send_ATpos_string_data@str& (0+255),b
  1827   000124  0EFE               	movlw	high STR_6
  1828   000126  6F10               	movwf	(lcd_send_ATpos_string_data@str+1)& (0+255),b
  1829   000128  ECB8  F01C         	call	_lcd_send_ATpos_string_data	;wreg free
  1830   00012C  C10B  F0FE         	movff	?_lcd_send_ATpos_string_data,_ret
  1831   000130  C10C  F0FF         	movff	?_lcd_send_ATpos_string_data+1,_ret+1
  1832                           
  1833                           ;Application.c: 26:         ret = lcd_send_ATpos_string_data(&lcd1 , 2 , 1 , "Admin Pass
      +                          :");
  1834   000134  0E5D               	movlw	low _lcd1
  1835   000136  0101               	movlb	1	; () banked
  1836   000138  6F0B               	movwf	lcd_send_ATpos_string_data@_LCD_& (0+255),b
  1837   00013A  0E00               	movlw	high _lcd1
  1838   00013C  6F0C               	movwf	(lcd_send_ATpos_string_data@_LCD_+1)& (0+255),b
  1839   00013E  0E02               	movlw	2
  1840   000140  6F0D               	movwf	lcd_send_ATpos_string_data@row& (0+255),b
  1841   000142  0E01               	movlw	1
  1842   000144  6F0E               	movwf	lcd_send_ATpos_string_data@coulmns& (0+255),b
  1843   000146  0E17               	movlw	low STR_7
  1844   000148  6F0F               	movwf	lcd_send_ATpos_string_data@str& (0+255),b
  1845   00014A  0EFF               	movlw	high STR_7
  1846   00014C  6F10               	movwf	(lcd_send_ATpos_string_data@str+1)& (0+255),b
  1847   00014E  ECB8  F01C         	call	_lcd_send_ATpos_string_data	;wreg free
  1848   000152  C10B  F0FE         	movff	?_lcd_send_ATpos_string_data,_ret
  1849   000156  C10C  F0FF         	movff	?_lcd_send_ATpos_string_data+1,_ret+1
  1850                           
  1851                           ;Application.c: 29:         while(pass_counter <= (uint8)4)
  1852   00015A  EF20  F001         	goto	l10183
  1853   00015E                     l10159:
  1854                           
  1855                           ; BSR set to: 0
  1856                           ;Application.c: 32:                 ret = Key_Pad_Get_Value(&key_pad1 ,&key_status);
  1857   00015E  0EA4               	movlw	low _key_pad1
  1858   000160  6FF7               	movwf	Key_Pad_Get_Value@_key_pad& (0+255),b
  1859   000162  0E00               	movlw	high _key_pad1
  1860   000164  6FF8               	movwf	(Key_Pad_Get_Value@_key_pad+1)& (0+255),b
  1861   000166  0EEA               	movlw	low _key_status
  1862   000168  6FF9               	movwf	Key_Pad_Get_Value@value& (0+255),b
  1863   00016A  0E00               	movlw	high _key_status
  1864   00016C  6FFA               	movwf	(Key_Pad_Get_Value@value+1)& (0+255),b
  1865   00016E  ECEB  F016         	call	_Key_Pad_Get_Value	;wreg free
  1866   000172  C0F7  F0FE         	movff	?_Key_Pad_Get_Value,_ret
  1867   000176  C0F8  F0FF         	movff	?_Key_Pad_Get_Value+1,_ret+1
  1868   00017A                     
  1869                           ;Application.c: 33:             }while(0 == key_status);
  1870   00017A  0100               	movlb	0	; () banked
  1871   00017C  51EA               	movf	_key_status& (0+255),w,b
  1872   00017E  B4D8               	btfsc	status,2,c
  1873   000180  EFC4  F000         	goto	u9021
  1874   000184  EFC6  F000         	goto	u9020
  1875   000188                     u9021:
  1876   000188  EFAF  F000         	goto	l10159
  1877   00018C                     u9020:
  1878   00018C                     
  1879                           ; BSR set to: 0
  1880                           ;Application.c: 34:             ret = EEPROM_Data_WriteByte(Admin_Start_address ,key_sta
      +                          tus);
  1881   00018C  C0A3  F0EB         	movff	_Admin_Start_address,EEPROM_Data_WriteByte@bAdd
  1882   000190  6BEC               	clrf	(EEPROM_Data_WriteByte@bAdd+1)& (0+255),b
  1883   000192  C0EA  F0ED         	movff	_key_status,EEPROM_Data_WriteByte@bData
  1884   000196  EC0D  F01C         	call	_EEPROM_Data_WriteByte	;wreg free
  1885   00019A  C0EB  F0FE         	movff	?_EEPROM_Data_WriteByte,_ret
  1886   00019E  C0EC  F0FF         	movff	?_EEPROM_Data_WriteByte+1,_ret+1
  1887   0001A2                     
  1888                           ;Application.c: 35:             ret = lcd_send_ATpos_char_data(&lcd1 , 2 , cursor, key_s
      +                          tatus);
  1889   0001A2  0E5D               	movlw	low _lcd1
  1890   0001A4  0101               	movlb	1	; () banked
  1891   0001A6  6F0B               	movwf	lcd_send_ATpos_char_data@_LCD_& (0+255),b
  1892   0001A8  0E00               	movlw	high _lcd1
  1893   0001AA  6F0C               	movwf	(lcd_send_ATpos_char_data@_LCD_+1)& (0+255),b
  1894   0001AC  0E02               	movlw	2
  1895   0001AE  6F0D               	movwf	lcd_send_ATpos_char_data@row& (0+255),b
  1896   0001B0  C0A1  F10E         	movff	_cursor,lcd_send_ATpos_char_data@coulmns
  1897   0001B4  C0EA  F10F         	movff	_key_status,lcd_send_ATpos_char_data@data
  1898   0001B8  ECB0  F01D         	call	_lcd_send_ATpos_char_data	;wreg free
  1899   0001BC  C10B  F0FE         	movff	?_lcd_send_ATpos_char_data,_ret
  1900   0001C0  C10C  F0FF         	movff	?_lcd_send_ATpos_char_data+1,_ret+1
  1901   0001C4                     
  1902                           ;Application.c: 36:             _delay((unsigned long)((500)*(4000000UL/4000.0)));
  1903   0001C4  0E03               	movlw	3
  1904   0001C6  0101               	movlb	1	; () banked
  1905   0001C8  6F14               	movwf	(??_main+1)& (0+255),b
  1906   0001CA  0E8A               	movlw	138
  1907   0001CC  6F13               	movwf	??_main& (0+255),b
  1908   0001CE  0E55               	movlw	85
  1909   0001D0                     u9747:
  1910   0001D0  2EE8               	decfsz	wreg,f,c
  1911   0001D2  D7FE               	bra	u9747
  1912   0001D4  2F13               	decfsz	??_main& (0+255),f,b
  1913   0001D6  D7FC               	bra	u9747
  1914   0001D8  2F14               	decfsz	(??_main+1)& (0+255),f,b
  1915   0001DA  D7FA               	bra	u9747
  1916   0001DC  D000               	nop2	
  1917   0001DE                     
  1918                           ;Application.c: 37:             ret = lcd_send_command(&lcd1 , 0X10);
  1919   0001DE  0E5D               	movlw	low _lcd1
  1920   0001E0  0101               	movlb	1	; () banked
  1921   0001E2  6F00               	movwf	lcd_send_command@_LCD_& (0+255),b
  1922   0001E4  0E00               	movlw	high _lcd1
  1923   0001E6  6F01               	movwf	(lcd_send_command@_LCD_+1)& (0+255),b
  1924   0001E8  0E10               	movlw	16
  1925   0001EA  6F02               	movwf	lcd_send_command@command& (0+255),b
  1926   0001EC  EC52  F01B         	call	_lcd_send_command	;wreg free
  1927   0001F0  C100  F0FE         	movff	?_lcd_send_command,_ret
  1928   0001F4  C101  F0FF         	movff	?_lcd_send_command+1,_ret+1
  1929   0001F8                     
  1930                           ;Application.c: 38:             ret = lcd_send_ATpos_char_data(&lcd1 , 2 , cursor, '*');
  1931   0001F8  0E5D               	movlw	low _lcd1
  1932   0001FA  0101               	movlb	1	; () banked
  1933   0001FC  6F0B               	movwf	lcd_send_ATpos_char_data@_LCD_& (0+255),b
  1934   0001FE  0E00               	movlw	high _lcd1
  1935   000200  6F0C               	movwf	(lcd_send_ATpos_char_data@_LCD_+1)& (0+255),b
  1936   000202  0E02               	movlw	2
  1937   000204  6F0D               	movwf	lcd_send_ATpos_char_data@row& (0+255),b
  1938   000206  C0A1  F10E         	movff	_cursor,lcd_send_ATpos_char_data@coulmns
  1939   00020A  0E2A               	movlw	42
  1940   00020C  6F0F               	movwf	lcd_send_ATpos_char_data@data& (0+255),b
  1941   00020E  ECB0  F01D         	call	_lcd_send_ATpos_char_data	;wreg free
  1942   000212  C10B  F0FE         	movff	?_lcd_send_ATpos_char_data,_ret
  1943   000216  C10C  F0FF         	movff	?_lcd_send_ATpos_char_data+1,_ret+1
  1944   00021A                     
  1945                           ;Application.c: 39:             ret = lcd_send_command(&lcd1 , 0X0E);
  1946   00021A  0E5D               	movlw	low _lcd1
  1947   00021C  0101               	movlb	1	; () banked
  1948   00021E  6F00               	movwf	lcd_send_command@_LCD_& (0+255),b
  1949   000220  0E00               	movlw	high _lcd1
  1950   000222  6F01               	movwf	(lcd_send_command@_LCD_+1)& (0+255),b
  1951   000224  0E0E               	movlw	14
  1952   000226  6F02               	movwf	lcd_send_command@command& (0+255),b
  1953   000228  EC52  F01B         	call	_lcd_send_command	;wreg free
  1954   00022C  C100  F0FE         	movff	?_lcd_send_command,_ret
  1955   000230  C101  F0FF         	movff	?_lcd_send_command+1,_ret+1
  1956   000234                     
  1957                           ;Application.c: 40:             key_status = 0;
  1958   000234  0E00               	movlw	0
  1959   000236  0100               	movlb	0	; () banked
  1960   000238  6FEA               	movwf	_key_status& (0+255),b
  1961   00023A                     
  1962                           ; BSR set to: 0
  1963                           ;Application.c: 41:             cursor++;
  1964   00023A  2BA1               	incf	_cursor& (0+255),f,b
  1965   00023C                     
  1966                           ; BSR set to: 0
  1967                           ;Application.c: 42:             Admin_Start_address++;
  1968   00023C  2BA3               	incf	_Admin_Start_address& (0+255),f,b
  1969   00023E                     
  1970                           ; BSR set to: 0
  1971                           ;Application.c: 43:             pass_counter++;
  1972   00023E  2BA0               	incf	_pass_counter& (0+255),f,b
  1973   000240                     l10183:
  1974                           
  1975                           ;Application.c: 29:         while(pass_counter <= (uint8)4)
  1976   000240  0E04               	movlw	4
  1977   000242  0100               	movlb	0	; () banked
  1978   000244  65A0               	cpfsgt	_pass_counter& (0+255),b
  1979   000246  EF27  F001         	goto	u9031
  1980   00024A  EF29  F001         	goto	u9030
  1981   00024E                     u9031:
  1982   00024E  EFAF  F000         	goto	l10159
  1983   000252                     u9030:
  1984   000252                     
  1985                           ; BSR set to: 0
  1986                           ;Application.c: 45:         ret = lcd_send_command(&lcd1 , 0X0C);
  1987   000252  0E5D               	movlw	low _lcd1
  1988   000254  0101               	movlb	1	; () banked
  1989   000256  6F00               	movwf	lcd_send_command@_LCD_& (0+255),b
  1990   000258  0E00               	movlw	high _lcd1
  1991   00025A  6F01               	movwf	(lcd_send_command@_LCD_+1)& (0+255),b
  1992   00025C  0E0C               	movlw	12
  1993   00025E  6F02               	movwf	lcd_send_command@command& (0+255),b
  1994   000260  EC52  F01B         	call	_lcd_send_command	;wreg free
  1995   000264  C100  F0FE         	movff	?_lcd_send_command,_ret
  1996   000268  C101  F0FF         	movff	?_lcd_send_command+1,_ret+1
  1997   00026C                     
  1998                           ;Application.c: 46:         ret = lcd_send_ATpos_string_data(&lcd1 , 3 , 1 , "successful
      +                          ly added");
  1999   00026C  0E5D               	movlw	low _lcd1
  2000   00026E  0101               	movlb	1	; () banked
  2001   000270  6F0B               	movwf	lcd_send_ATpos_string_data@_LCD_& (0+255),b
  2002   000272  0E00               	movlw	high _lcd1
  2003   000274  6F0C               	movwf	(lcd_send_ATpos_string_data@_LCD_+1)& (0+255),b
  2004   000276  0E03               	movlw	3
  2005   000278  6F0D               	movwf	lcd_send_ATpos_string_data@row& (0+255),b
  2006   00027A  0E01               	movlw	1
  2007   00027C  6F0E               	movwf	lcd_send_ATpos_string_data@coulmns& (0+255),b
  2008   00027E  0E4E               	movlw	low STR_8
  2009   000280  6F0F               	movwf	lcd_send_ATpos_string_data@str& (0+255),b
  2010   000282  0EFE               	movlw	high STR_8
  2011   000284  6F10               	movwf	(lcd_send_ATpos_string_data@str+1)& (0+255),b
  2012   000286  ECB8  F01C         	call	_lcd_send_ATpos_string_data	;wreg free
  2013   00028A  C10B  F0FE         	movff	?_lcd_send_ATpos_string_data,_ret
  2014   00028E  C10C  F0FF         	movff	?_lcd_send_ATpos_string_data+1,_ret+1
  2015   000292                     
  2016                           ;Application.c: 47:         _delay((unsigned long)((500)*(4000000UL/4000.0)));
  2017   000292  0E03               	movlw	3
  2018   000294  0101               	movlb	1	; () banked
  2019   000296  6F14               	movwf	(??_main+1)& (0+255),b
  2020   000298  0E8A               	movlw	138
  2021   00029A  6F13               	movwf	??_main& (0+255),b
  2022   00029C  0E55               	movlw	85
  2023   00029E                     u9757:
  2024   00029E  2EE8               	decfsz	wreg,f,c
  2025   0002A0  D7FE               	bra	u9757
  2026   0002A2  2F13               	decfsz	??_main& (0+255),f,b
  2027   0002A4  D7FC               	bra	u9757
  2028   0002A6  2F14               	decfsz	(??_main+1)& (0+255),f,b
  2029   0002A8  D7FA               	bra	u9757
  2030   0002AA  D000               	nop2	
  2031   0002AC                     
  2032                           ;Application.c: 48:         ret = lcd_send_command(&lcd1 , 0x01);
  2033   0002AC  0E5D               	movlw	low _lcd1
  2034   0002AE  0101               	movlb	1	; () banked
  2035   0002B0  6F00               	movwf	lcd_send_command@_LCD_& (0+255),b
  2036   0002B2  0E00               	movlw	high _lcd1
  2037   0002B4  6F01               	movwf	(lcd_send_command@_LCD_+1)& (0+255),b
  2038   0002B6  0E01               	movlw	1
  2039   0002B8  6F02               	movwf	lcd_send_command@command& (0+255),b
  2040   0002BA  EC52  F01B         	call	_lcd_send_command	;wreg free
  2041   0002BE  C100  F0FE         	movff	?_lcd_send_command,_ret
  2042   0002C2  C101  F0FF         	movff	?_lcd_send_command+1,_ret+1
  2043   0002C6                     
  2044                           ;Application.c: 49:         ret = lcd_send_ATpos_string_data(&lcd1 , 1 , 1 , "Set Guest 
      +                          Password");
  2045   0002C6  0E5D               	movlw	low _lcd1
  2046   0002C8  0101               	movlb	1	; () banked
  2047   0002CA  6F0B               	movwf	lcd_send_ATpos_string_data@_LCD_& (0+255),b
  2048   0002CC  0E00               	movlw	high _lcd1
  2049   0002CE  6F0C               	movwf	(lcd_send_ATpos_string_data@_LCD_+1)& (0+255),b
  2050   0002D0  0E01               	movlw	1
  2051   0002D2  6F0D               	movwf	lcd_send_ATpos_string_data@row& (0+255),b
  2052   0002D4  0E01               	movlw	1
  2053   0002D6  6F0E               	movwf	lcd_send_ATpos_string_data@coulmns& (0+255),b
  2054   0002D8  0E74               	movlw	low STR_9
  2055   0002DA  6F0F               	movwf	lcd_send_ATpos_string_data@str& (0+255),b
  2056   0002DC  0EFE               	movlw	high STR_9
  2057   0002DE  6F10               	movwf	(lcd_send_ATpos_string_data@str+1)& (0+255),b
  2058   0002E0  ECB8  F01C         	call	_lcd_send_ATpos_string_data	;wreg free
  2059   0002E4  C10B  F0FE         	movff	?_lcd_send_ATpos_string_data,_ret
  2060   0002E8  C10C  F0FF         	movff	?_lcd_send_ATpos_string_data+1,_ret+1
  2061   0002EC                     
  2062                           ;Application.c: 50:         ret = lcd_send_ATpos_string_data(&lcd1 , 2 , 1 , "Guest Pass
      +                          :");
  2063   0002EC  0E5D               	movlw	low _lcd1
  2064   0002EE  0101               	movlb	1	; () banked
  2065   0002F0  6F0B               	movwf	lcd_send_ATpos_string_data@_LCD_& (0+255),b
  2066   0002F2  0E00               	movlw	high _lcd1
  2067   0002F4  6F0C               	movwf	(lcd_send_ATpos_string_data@_LCD_+1)& (0+255),b
  2068   0002F6  0E02               	movlw	2
  2069   0002F8  6F0D               	movwf	lcd_send_ATpos_string_data@row& (0+255),b
  2070   0002FA  0E01               	movlw	1
  2071   0002FC  6F0E               	movwf	lcd_send_ATpos_string_data@coulmns& (0+255),b
  2072   0002FE  0E23               	movlw	low STR_10
  2073   000300  6F0F               	movwf	lcd_send_ATpos_string_data@str& (0+255),b
  2074   000302  0EFF               	movlw	high STR_10
  2075   000304  6F10               	movwf	(lcd_send_ATpos_string_data@str+1)& (0+255),b
  2076   000306  ECB8  F01C         	call	_lcd_send_ATpos_string_data	;wreg free
  2077   00030A  C10B  F0FE         	movff	?_lcd_send_ATpos_string_data,_ret
  2078   00030E  C10C  F0FF         	movff	?_lcd_send_ATpos_string_data+1,_ret+1
  2079   000312                     
  2080                           ;Application.c: 54:         pass_counter = 1;
  2081   000312  0E01               	movlw	1
  2082   000314  0100               	movlb	0	; () banked
  2083   000316  6FA0               	movwf	_pass_counter& (0+255),b
  2084   000318                     
  2085                           ; BSR set to: 0
  2086                           ;Application.c: 55:         cursor =12;
  2087   000318  0E0C               	movlw	12
  2088   00031A  6FA1               	movwf	_cursor& (0+255),b
  2089                           
  2090                           ;Application.c: 56:         while(pass_counter <= (uint8)4)
  2091   00031C  EF01  F002         	goto	l10225
  2092   000320                     l10201:
  2093                           
  2094                           ; BSR set to: 0
  2095                           ;Application.c: 59:                 ret = Key_Pad_Get_Value(&key_pad1 ,&key_status);
  2096   000320  0EA4               	movlw	low _key_pad1
  2097   000322  6FF7               	movwf	Key_Pad_Get_Value@_key_pad& (0+255),b
  2098   000324  0E00               	movlw	high _key_pad1
  2099   000326  6FF8               	movwf	(Key_Pad_Get_Value@_key_pad+1)& (0+255),b
  2100   000328  0EEA               	movlw	low _key_status
  2101   00032A  6FF9               	movwf	Key_Pad_Get_Value@value& (0+255),b
  2102   00032C  0E00               	movlw	high _key_status
  2103   00032E  6FFA               	movwf	(Key_Pad_Get_Value@value+1)& (0+255),b
  2104   000330  ECEB  F016         	call	_Key_Pad_Get_Value	;wreg free
  2105   000334  C0F7  F0FE         	movff	?_Key_Pad_Get_Value,_ret
  2106   000338  C0F8  F0FF         	movff	?_Key_Pad_Get_Value+1,_ret+1
  2107   00033C                     
  2108                           ;Application.c: 60:             }while(0 == key_status);
  2109   00033C  0100               	movlb	0	; () banked
  2110   00033E  51EA               	movf	_key_status& (0+255),w,b
  2111   000340  B4D8               	btfsc	status,2,c
  2112   000342  EFA5  F001         	goto	u9041
  2113   000346  EFA7  F001         	goto	u9040
  2114   00034A                     u9041:
  2115   00034A  EF90  F001         	goto	l10201
  2116   00034E                     u9040:
  2117   00034E                     
  2118                           ; BSR set to: 0
  2119                           ;Application.c: 61:             ret = EEPROM_Data_WriteByte(Guest_Start_address ,key_sta
      +                          tus);
  2120   00034E  C0A2  F0EB         	movff	_Guest_Start_address,EEPROM_Data_WriteByte@bAdd
  2121   000352  6BEC               	clrf	(EEPROM_Data_WriteByte@bAdd+1)& (0+255),b
  2122   000354  C0EA  F0ED         	movff	_key_status,EEPROM_Data_WriteByte@bData
  2123   000358  EC0D  F01C         	call	_EEPROM_Data_WriteByte	;wreg free
  2124   00035C  C0EB  F0FE         	movff	?_EEPROM_Data_WriteByte,_ret
  2125   000360  C0EC  F0FF         	movff	?_EEPROM_Data_WriteByte+1,_ret+1
  2126   000364                     
  2127                           ;Application.c: 62:             ret = lcd_send_ATpos_char_data(&lcd1 , 2 , cursor, key_s
      +                          tatus);
  2128   000364  0E5D               	movlw	low _lcd1
  2129   000366  0101               	movlb	1	; () banked
  2130   000368  6F0B               	movwf	lcd_send_ATpos_char_data@_LCD_& (0+255),b
  2131   00036A  0E00               	movlw	high _lcd1
  2132   00036C  6F0C               	movwf	(lcd_send_ATpos_char_data@_LCD_+1)& (0+255),b
  2133   00036E  0E02               	movlw	2
  2134   000370  6F0D               	movwf	lcd_send_ATpos_char_data@row& (0+255),b
  2135   000372  C0A1  F10E         	movff	_cursor,lcd_send_ATpos_char_data@coulmns
  2136   000376  C0EA  F10F         	movff	_key_status,lcd_send_ATpos_char_data@data
  2137   00037A  ECB0  F01D         	call	_lcd_send_ATpos_char_data	;wreg free
  2138   00037E  C10B  F0FE         	movff	?_lcd_send_ATpos_char_data,_ret
  2139   000382  C10C  F0FF         	movff	?_lcd_send_ATpos_char_data+1,_ret+1
  2140   000386                     
  2141                           ;Application.c: 63:             _delay((unsigned long)((500)*(4000000UL/4000.0)));
  2142   000386  0E03               	movlw	3
  2143   000388  0101               	movlb	1	; () banked
  2144   00038A  6F14               	movwf	(??_main+1)& (0+255),b
  2145   00038C  0E8A               	movlw	138
  2146   00038E  6F13               	movwf	??_main& (0+255),b
  2147   000390  0E55               	movlw	85
  2148   000392                     u9767:
  2149   000392  2EE8               	decfsz	wreg,f,c
  2150   000394  D7FE               	bra	u9767
  2151   000396  2F13               	decfsz	??_main& (0+255),f,b
  2152   000398  D7FC               	bra	u9767
  2153   00039A  2F14               	decfsz	(??_main+1)& (0+255),f,b
  2154   00039C  D7FA               	bra	u9767
  2155   00039E  D000               	nop2	
  2156   0003A0                     
  2157                           ;Application.c: 64:             ret = lcd_send_command(&lcd1 , 0X10);
  2158   0003A0  0E5D               	movlw	low _lcd1
  2159   0003A2  0101               	movlb	1	; () banked
  2160   0003A4  6F00               	movwf	lcd_send_command@_LCD_& (0+255),b
  2161   0003A6  0E00               	movlw	high _lcd1
  2162   0003A8  6F01               	movwf	(lcd_send_command@_LCD_+1)& (0+255),b
  2163   0003AA  0E10               	movlw	16
  2164   0003AC  6F02               	movwf	lcd_send_command@command& (0+255),b
  2165   0003AE  EC52  F01B         	call	_lcd_send_command	;wreg free
  2166   0003B2  C100  F0FE         	movff	?_lcd_send_command,_ret
  2167   0003B6  C101  F0FF         	movff	?_lcd_send_command+1,_ret+1
  2168   0003BA                     
  2169                           ;Application.c: 65:             ret = lcd_send_ATpos_char_data(&lcd1 , 2 , cursor, (uint
      +                          8)'*');
  2170   0003BA  0E5D               	movlw	low _lcd1
  2171   0003BC  0101               	movlb	1	; () banked
  2172   0003BE  6F0B               	movwf	lcd_send_ATpos_char_data@_LCD_& (0+255),b
  2173   0003C0  0E00               	movlw	high _lcd1
  2174   0003C2  6F0C               	movwf	(lcd_send_ATpos_char_data@_LCD_+1)& (0+255),b
  2175   0003C4  0E02               	movlw	2
  2176   0003C6  6F0D               	movwf	lcd_send_ATpos_char_data@row& (0+255),b
  2177   0003C8  C0A1  F10E         	movff	_cursor,lcd_send_ATpos_char_data@coulmns
  2178   0003CC  0E2A               	movlw	42
  2179   0003CE  6F0F               	movwf	lcd_send_ATpos_char_data@data& (0+255),b
  2180   0003D0  ECB0  F01D         	call	_lcd_send_ATpos_char_data	;wreg free
  2181   0003D4  C10B  F0FE         	movff	?_lcd_send_ATpos_char_data,_ret
  2182   0003D8  C10C  F0FF         	movff	?_lcd_send_ATpos_char_data+1,_ret+1
  2183   0003DC                     
  2184                           ;Application.c: 66:             ret = lcd_send_command(&lcd1 , 0X0E);
  2185   0003DC  0E5D               	movlw	low _lcd1
  2186   0003DE  0101               	movlb	1	; () banked
  2187   0003E0  6F00               	movwf	lcd_send_command@_LCD_& (0+255),b
  2188   0003E2  0E00               	movlw	high _lcd1
  2189   0003E4  6F01               	movwf	(lcd_send_command@_LCD_+1)& (0+255),b
  2190   0003E6  0E0E               	movlw	14
  2191   0003E8  6F02               	movwf	lcd_send_command@command& (0+255),b
  2192   0003EA  EC52  F01B         	call	_lcd_send_command	;wreg free
  2193   0003EE  C100  F0FE         	movff	?_lcd_send_command,_ret
  2194   0003F2  C101  F0FF         	movff	?_lcd_send_command+1,_ret+1
  2195   0003F6                     
  2196                           ;Application.c: 67:             key_status = 0;
  2197   0003F6  0E00               	movlw	0
  2198   0003F8  0100               	movlb	0	; () banked
  2199   0003FA  6FEA               	movwf	_key_status& (0+255),b
  2200   0003FC                     
  2201                           ; BSR set to: 0
  2202                           ;Application.c: 68:             cursor++;
  2203   0003FC  2BA1               	incf	_cursor& (0+255),f,b
  2204   0003FE                     
  2205                           ; BSR set to: 0
  2206                           ;Application.c: 69:             Guest_Start_address++;
  2207   0003FE  2BA2               	incf	_Guest_Start_address& (0+255),f,b
  2208   000400                     
  2209                           ; BSR set to: 0
  2210                           ;Application.c: 70:             pass_counter++;
  2211   000400  2BA0               	incf	_pass_counter& (0+255),f,b
  2212   000402                     l10225:
  2213                           
  2214                           ; BSR set to: 0
  2215                           ;Application.c: 56:         while(pass_counter <= (uint8)4)
  2216   000402  0E04               	movlw	4
  2217   000404  65A0               	cpfsgt	_pass_counter& (0+255),b
  2218   000406  EF07  F002         	goto	u9051
  2219   00040A  EF09  F002         	goto	u9050
  2220   00040E                     u9051:
  2221   00040E  EF90  F001         	goto	l10201
  2222   000412                     u9050:
  2223   000412                     
  2224                           ; BSR set to: 0
  2225                           ;Application.c: 72:         _delay((unsigned long)((200)*(4000000UL/4000.0)));
  2226   000412  0E02               	movlw	2
  2227   000414  0101               	movlb	1	; () banked
  2228   000416  6F14               	movwf	(??_main+1)& (0+255),b
  2229   000418  0E04               	movlw	4
  2230   00041A  6F13               	movwf	??_main& (0+255),b
  2231   00041C  0EBA               	movlw	186
  2232   00041E                     u9777:
  2233   00041E  2EE8               	decfsz	wreg,f,c
  2234   000420  D7FE               	bra	u9777
  2235   000422  2F13               	decfsz	??_main& (0+255),f,b
  2236   000424  D7FC               	bra	u9777
  2237   000426  2F14               	decfsz	(??_main+1)& (0+255),f,b
  2238   000428  D7FA               	bra	u9777
  2239   00042A  F000               	nop	
  2240   00042C                     
  2241                           ;Application.c: 73:         ret = lcd_send_command(&lcd1 , 0X0C);
  2242   00042C  0E5D               	movlw	low _lcd1
  2243   00042E  0101               	movlb	1	; () banked
  2244   000430  6F00               	movwf	lcd_send_command@_LCD_& (0+255),b
  2245   000432  0E00               	movlw	high _lcd1
  2246   000434  6F01               	movwf	(lcd_send_command@_LCD_+1)& (0+255),b
  2247   000436  0E0C               	movlw	12
  2248   000438  6F02               	movwf	lcd_send_command@command& (0+255),b
  2249   00043A  EC52  F01B         	call	_lcd_send_command	;wreg free
  2250   00043E  C100  F0FE         	movff	?_lcd_send_command,_ret
  2251   000442  C101  F0FF         	movff	?_lcd_send_command+1,_ret+1
  2252   000446                     
  2253                           ;Application.c: 74:         ret = lcd_send_ATpos_string_data(&lcd1 , 3 , 1 , "successful
      +                          ly added");
  2254   000446  0E5D               	movlw	low _lcd1
  2255   000448  0101               	movlb	1	; () banked
  2256   00044A  6F0B               	movwf	lcd_send_ATpos_string_data@_LCD_& (0+255),b
  2257   00044C  0E00               	movlw	high _lcd1
  2258   00044E  6F0C               	movwf	(lcd_send_ATpos_string_data@_LCD_+1)& (0+255),b
  2259   000450  0E03               	movlw	3
  2260   000452  6F0D               	movwf	lcd_send_ATpos_string_data@row& (0+255),b
  2261   000454  0E01               	movlw	1
  2262   000456  6F0E               	movwf	lcd_send_ATpos_string_data@coulmns& (0+255),b
  2263   000458  0E4E               	movlw	low STR_8
  2264   00045A  6F0F               	movwf	lcd_send_ATpos_string_data@str& (0+255),b
  2265   00045C  0EFE               	movlw	high STR_8
  2266   00045E  6F10               	movwf	(lcd_send_ATpos_string_data@str+1)& (0+255),b
  2267   000460  ECB8  F01C         	call	_lcd_send_ATpos_string_data	;wreg free
  2268   000464  C10B  F0FE         	movff	?_lcd_send_ATpos_string_data,_ret
  2269   000468  C10C  F0FF         	movff	?_lcd_send_ATpos_string_data+1,_ret+1
  2270   00046C                     
  2271                           ;Application.c: 75:         _delay((unsigned long)((500)*(4000000UL/4000.0)));
  2272   00046C  0E03               	movlw	3
  2273   00046E  0101               	movlb	1	; () banked
  2274   000470  6F14               	movwf	(??_main+1)& (0+255),b
  2275   000472  0E8A               	movlw	138
  2276   000474  6F13               	movwf	??_main& (0+255),b
  2277   000476  0E55               	movlw	85
  2278   000478                     u9787:
  2279   000478  2EE8               	decfsz	wreg,f,c
  2280   00047A  D7FE               	bra	u9787
  2281   00047C  2F13               	decfsz	??_main& (0+255),f,b
  2282   00047E  D7FC               	bra	u9787
  2283   000480  2F14               	decfsz	(??_main+1)& (0+255),f,b
  2284   000482  D7FA               	bra	u9787
  2285   000484  D000               	nop2	
  2286   000486                     
  2287                           ;Application.c: 76:         ret = lcd_send_command(&lcd1 , 0x01);
  2288   000486  0E5D               	movlw	low _lcd1
  2289   000488  0101               	movlb	1	; () banked
  2290   00048A  6F00               	movwf	lcd_send_command@_LCD_& (0+255),b
  2291   00048C  0E00               	movlw	high _lcd1
  2292   00048E  6F01               	movwf	(lcd_send_command@_LCD_+1)& (0+255),b
  2293   000490  0E01               	movlw	1
  2294   000492  6F02               	movwf	lcd_send_command@command& (0+255),b
  2295   000494  EC52  F01B         	call	_lcd_send_command	;wreg free
  2296   000498  C100  F0FE         	movff	?_lcd_send_command,_ret
  2297   00049C  C101  F0FF         	movff	?_lcd_send_command+1,_ret+1
  2298   0004A0                     
  2299                           ;Application.c: 77:         Admin_pass_status = (uint8)0x01;
  2300   0004A0  0E01               	movlw	1
  2301   0004A2  0100               	movlb	0	; () banked
  2302   0004A4  6FB6               	movwf	_Admin_pass_status& (0+255),b
  2303   0004A6                     
  2304                           ; BSR set to: 0
  2305                           ;Application.c: 78:         Guest_pass_status = (uint8)0x01;
  2306   0004A6  0E01               	movlw	1
  2307   0004A8  6FB5               	movwf	_Guest_pass_status& (0+255),b
  2308   0004AA                     
  2309                           ; BSR set to: 0
  2310                           ;Application.c: 79:         ret = EEPROM_Data_WriteByte((uint16)0X100 ,Admin_pass_status
      +                          );
  2311   0004AA  0E01               	movlw	1
  2312   0004AC  6FEC               	movwf	(EEPROM_Data_WriteByte@bAdd+1)& (0+255),b
  2313   0004AE  0E00               	movlw	0
  2314   0004B0  6FEB               	movwf	EEPROM_Data_WriteByte@bAdd& (0+255),b
  2315   0004B2  C0B6  F0ED         	movff	_Admin_pass_status,EEPROM_Data_WriteByte@bData
  2316   0004B6  EC0D  F01C         	call	_EEPROM_Data_WriteByte	;wreg free
  2317   0004BA  C0EB  F0FE         	movff	?_EEPROM_Data_WriteByte,_ret
  2318   0004BE  C0EC  F0FF         	movff	?_EEPROM_Data_WriteByte+1,_ret+1
  2319   0004C2                     
  2320                           ;Application.c: 80:         ret = EEPROM_Data_WriteByte((uint16)0X101 ,Guest_pass_status
      +                          );
  2321   0004C2  0E01               	movlw	1
  2322   0004C4  0100               	movlb	0	; () banked
  2323   0004C6  6FEC               	movwf	(EEPROM_Data_WriteByte@bAdd+1)& (0+255),b
  2324   0004C8  0E01               	movlw	1
  2325   0004CA  6FEB               	movwf	EEPROM_Data_WriteByte@bAdd& (0+255),b
  2326   0004CC  C0B5  F0ED         	movff	_Guest_pass_status,EEPROM_Data_WriteByte@bData
  2327   0004D0  EC0D  F01C         	call	_EEPROM_Data_WriteByte	;wreg free
  2328   0004D4  C0EB  F0FE         	movff	?_EEPROM_Data_WriteByte,_ret
  2329   0004D8  C0EC  F0FF         	movff	?_EEPROM_Data_WriteByte+1,_ret+1
  2330                           
  2331                           ;Application.c: 81:     }
  2332   0004DC  EF5F  F011         	goto	l1939
  2333   0004E0                     l10245:
  2334                           
  2335                           ; BSR set to: 0
  2336   0004E0  05B6               	decf	_Admin_pass_status& (0+255),w,b
  2337   0004E2  B4D8               	btfsc	status,2,c
  2338   0004E4  EF76  F002         	goto	u9061
  2339   0004E8  EF78  F002         	goto	u9060
  2340   0004EC                     u9061:
  2341   0004EC  EF80  F002         	goto	l10249
  2342   0004F0                     u9060:
  2343   0004F0                     
  2344                           ; BSR set to: 0
  2345   0004F0  05B5               	decf	_Guest_pass_status& (0+255),w,b
  2346   0004F2  A4D8               	btfss	status,2,c
  2347   0004F4  EF7E  F002         	goto	u9071
  2348   0004F8  EF80  F002         	goto	u9070
  2349   0004FC                     u9071:
  2350   0004FC  EF5F  F011         	goto	l1939
  2351   000500                     u9070:
  2352   000500                     l10249:
  2353                           
  2354                           ; BSR set to: 0
  2355                           ;Application.c: 84:     {;Application.c: 85:         ret = lcd_send_ATpos_string_data(&l
      +                          cd1 , 1 , 1 , "Select Mode :");
  2356   000500  0E5D               	movlw	low _lcd1
  2357   000502  0101               	movlb	1	; () banked
  2358   000504  6F0B               	movwf	lcd_send_ATpos_string_data@_LCD_& (0+255),b
  2359   000506  0E00               	movlw	high _lcd1
  2360   000508  6F0C               	movwf	(lcd_send_ATpos_string_data@_LCD_+1)& (0+255),b
  2361   00050A  0E01               	movlw	1
  2362   00050C  6F0D               	movwf	lcd_send_ATpos_string_data@row& (0+255),b
  2363   00050E  0E01               	movlw	1
  2364   000510  6F0E               	movwf	lcd_send_ATpos_string_data@coulmns& (0+255),b
  2365   000512  0EC8               	movlw	low STR_12
  2366   000514  6F0F               	movwf	lcd_send_ATpos_string_data@str& (0+255),b
  2367   000516  0EFE               	movlw	high STR_12
  2368   000518  6F10               	movwf	(lcd_send_ATpos_string_data@str+1)& (0+255),b
  2369   00051A  ECB8  F01C         	call	_lcd_send_ATpos_string_data	;wreg free
  2370   00051E  C10B  F0FE         	movff	?_lcd_send_ATpos_string_data,_ret
  2371   000522  C10C  F0FF         	movff	?_lcd_send_ATpos_string_data+1,_ret+1
  2372                           
  2373                           ;Application.c: 86:         ret = lcd_send_ATpos_string_data(&lcd1 , 2 , 1 , "1: Admin")
      +                          ;
  2374   000526  0E5D               	movlw	low _lcd1
  2375   000528  0101               	movlb	1	; () banked
  2376   00052A  6F0B               	movwf	lcd_send_ATpos_string_data@_LCD_& (0+255),b
  2377   00052C  0E00               	movlw	high _lcd1
  2378   00052E  6F0C               	movwf	(lcd_send_ATpos_string_data@_LCD_+1)& (0+255),b
  2379   000530  0E02               	movlw	2
  2380   000532  6F0D               	movwf	lcd_send_ATpos_string_data@row& (0+255),b
  2381   000534  0E01               	movlw	1
  2382   000536  6F0E               	movwf	lcd_send_ATpos_string_data@coulmns& (0+255),b
  2383   000538  0E89               	movlw	low STR_13
  2384   00053A  6F0F               	movwf	lcd_send_ATpos_string_data@str& (0+255),b
  2385   00053C  0EFF               	movlw	high STR_13
  2386   00053E  6F10               	movwf	(lcd_send_ATpos_string_data@str+1)& (0+255),b
  2387   000540  ECB8  F01C         	call	_lcd_send_ATpos_string_data	;wreg free
  2388   000544  C10B  F0FE         	movff	?_lcd_send_ATpos_string_data,_ret
  2389   000548  C10C  F0FF         	movff	?_lcd_send_ATpos_string_data+1,_ret+1
  2390                           
  2391                           ;Application.c: 87:         ret = lcd_send_ATpos_string_data(&lcd1 , 3 , 1 , "2: Guest")
      +                          ;
  2392   00054C  0E5D               	movlw	low _lcd1
  2393   00054E  0101               	movlb	1	; () banked
  2394   000550  6F0B               	movwf	lcd_send_ATpos_string_data@_LCD_& (0+255),b
  2395   000552  0E00               	movlw	high _lcd1
  2396   000554  6F0C               	movwf	(lcd_send_ATpos_string_data@_LCD_+1)& (0+255),b
  2397   000556  0E03               	movlw	3
  2398   000558  6F0D               	movwf	lcd_send_ATpos_string_data@row& (0+255),b
  2399   00055A  0E01               	movlw	1
  2400   00055C  6F0E               	movwf	lcd_send_ATpos_string_data@coulmns& (0+255),b
  2401   00055E  0E9B               	movlw	low STR_14
  2402   000560  6F0F               	movwf	lcd_send_ATpos_string_data@str& (0+255),b
  2403   000562  0EFF               	movlw	high STR_14
  2404   000564  6F10               	movwf	(lcd_send_ATpos_string_data@str+1)& (0+255),b
  2405   000566  ECB8  F01C         	call	_lcd_send_ATpos_string_data	;wreg free
  2406   00056A  C10B  F0FE         	movff	?_lcd_send_ATpos_string_data,_ret
  2407   00056E  C10C  F0FF         	movff	?_lcd_send_ATpos_string_data+1,_ret+1
  2408   000572                     l1770:
  2409                           
  2410                           ;Application.c: 90:             ret = Key_Pad_Get_Value(&key_pad1, &key_status);
  2411   000572  0EA4               	movlw	low _key_pad1
  2412   000574  0100               	movlb	0	; () banked
  2413   000576  6FF7               	movwf	Key_Pad_Get_Value@_key_pad& (0+255),b
  2414   000578  0E00               	movlw	high _key_pad1
  2415   00057A  6FF8               	movwf	(Key_Pad_Get_Value@_key_pad+1)& (0+255),b
  2416   00057C  0EEA               	movlw	low _key_status
  2417   00057E  6FF9               	movwf	Key_Pad_Get_Value@value& (0+255),b
  2418   000580  0E00               	movlw	high _key_status
  2419   000582  6FFA               	movwf	(Key_Pad_Get_Value@value+1)& (0+255),b
  2420   000584  ECEB  F016         	call	_Key_Pad_Get_Value	;wreg free
  2421   000588  C0F7  F0FE         	movff	?_Key_Pad_Get_Value,_ret
  2422   00058C  C0F8  F0FF         	movff	?_Key_Pad_Get_Value+1,_ret+1
  2423   000590                     
  2424                           ;Application.c: 91:         } while (0 == key_status);
  2425   000590  0100               	movlb	0	; () banked
  2426   000592  51EA               	movf	_key_status& (0+255),w,b
  2427   000594  B4D8               	btfsc	status,2,c
  2428   000596  EFCF  F002         	goto	u9081
  2429   00059A  EFD1  F002         	goto	u9080
  2430   00059E                     u9081:
  2431   00059E  EFB9  F002         	goto	l1770
  2432   0005A2                     u9080:
  2433   0005A2  EF52  F004         	goto	l10327
  2434   0005A6                     l10253:
  2435                           
  2436                           ; BSR set to: 0
  2437                           ;Application.c: 94:             ret = lcd_send_command(&lcd1 , 0x01);
  2438   0005A6  0E5D               	movlw	low _lcd1
  2439   0005A8  0101               	movlb	1	; () banked
  2440   0005AA  6F00               	movwf	lcd_send_command@_LCD_& (0+255),b
  2441   0005AC  0E00               	movlw	high _lcd1
  2442   0005AE  6F01               	movwf	(lcd_send_command@_LCD_+1)& (0+255),b
  2443   0005B0  0E01               	movlw	1
  2444   0005B2  6F02               	movwf	lcd_send_command@command& (0+255),b
  2445   0005B4  EC52  F01B         	call	_lcd_send_command	;wreg free
  2446   0005B8  C100  F0FE         	movff	?_lcd_send_command,_ret
  2447   0005BC  C101  F0FF         	movff	?_lcd_send_command+1,_ret+1
  2448   0005C0                     
  2449                           ;Application.c: 95:             ret = lcd_send_ATpos_string_data(&lcd1 , 1 , 1 , "Admin 
      +                          Mode:-");
  2450   0005C0  0E5D               	movlw	low _lcd1
  2451   0005C2  0101               	movlb	1	; () banked
  2452   0005C4  6F0B               	movwf	lcd_send_ATpos_string_data@_LCD_& (0+255),b
  2453   0005C6  0E00               	movlw	high _lcd1
  2454   0005C8  6F0C               	movwf	(lcd_send_ATpos_string_data@_LCD_+1)& (0+255),b
  2455   0005CA  0E01               	movlw	1
  2456   0005CC  6F0D               	movwf	lcd_send_ATpos_string_data@row& (0+255),b
  2457   0005CE  0E01               	movlw	1
  2458   0005D0  6F0E               	movwf	lcd_send_ATpos_string_data@coulmns& (0+255),b
  2459   0005D2  0ED6               	movlw	low STR_15
  2460   0005D4  6F0F               	movwf	lcd_send_ATpos_string_data@str& (0+255),b
  2461   0005D6  0EFE               	movlw	high STR_15
  2462   0005D8  6F10               	movwf	(lcd_send_ATpos_string_data@str+1)& (0+255),b
  2463   0005DA  ECB8  F01C         	call	_lcd_send_ATpos_string_data	;wreg free
  2464   0005DE  C10B  F0FE         	movff	?_lcd_send_ATpos_string_data,_ret
  2465   0005E2  C10C  F0FF         	movff	?_lcd_send_ATpos_string_data+1,_ret+1
  2466   0005E6                     
  2467                           ;Application.c: 96:             ret = lcd_send_ATpos_string_data(&lcd1 , 2 , 1 , "Write 
      +                          pass:");
  2468   0005E6  0E5D               	movlw	low _lcd1
  2469   0005E8  0101               	movlb	1	; () banked
  2470   0005EA  6F0B               	movwf	lcd_send_ATpos_string_data@_LCD_& (0+255),b
  2471   0005EC  0E00               	movlw	high _lcd1
  2472   0005EE  6F0C               	movwf	(lcd_send_ATpos_string_data@_LCD_+1)& (0+255),b
  2473   0005F0  0E02               	movlw	2
  2474   0005F2  6F0D               	movwf	lcd_send_ATpos_string_data@row& (0+255),b
  2475   0005F4  0E01               	movlw	1
  2476   0005F6  6F0E               	movwf	lcd_send_ATpos_string_data@coulmns& (0+255),b
  2477   0005F8  0E2F               	movlw	low STR_16
  2478   0005FA  6F0F               	movwf	lcd_send_ATpos_string_data@str& (0+255),b
  2479   0005FC  0EFF               	movlw	high STR_16
  2480   0005FE  6F10               	movwf	(lcd_send_ATpos_string_data@str+1)& (0+255),b
  2481   000600  ECB8  F01C         	call	_lcd_send_ATpos_string_data	;wreg free
  2482   000604  C10B  F0FE         	movff	?_lcd_send_ATpos_string_data,_ret
  2483   000608  C10C  F0FF         	movff	?_lcd_send_ATpos_string_data+1,_ret+1
  2484   00060C                     
  2485                           ;Application.c: 97:             key_status = 0;
  2486   00060C  0E00               	movlw	0
  2487   00060E  0100               	movlb	0	; () banked
  2488   000610  6FEA               	movwf	_key_status& (0+255),b
  2489   000612                     
  2490                           ; BSR set to: 0
  2491                           ;Application.c: 98:             _delay((unsigned long)((300)*(4000000UL/4000.0)));
  2492   000612  0E02               	movlw	2
  2493   000614  0101               	movlb	1	; () banked
  2494   000616  6F14               	movwf	(??_main+1)& (0+255),b
  2495   000618  0E86               	movlw	134
  2496   00061A  6F13               	movwf	??_main& (0+255),b
  2497   00061C  0E99               	movlw	153
  2498   00061E                     u9797:
  2499   00061E  2EE8               	decfsz	wreg,f,c
  2500   000620  D7FE               	bra	u9797
  2501   000622  2F13               	decfsz	??_main& (0+255),f,b
  2502   000624  D7FC               	bra	u9797
  2503   000626  2F14               	decfsz	(??_main+1)& (0+255),f,b
  2504   000628  D7FA               	bra	u9797
  2505                           
  2506                           ;Application.c: 99:             while(pass_counter <= 4)
  2507   00062A  EF95  F003         	goto	l10291
  2508   00062E                     l10263:
  2509                           
  2510                           ; BSR set to: 0
  2511                           ;Application.c: 102:                     ret = Key_Pad_Get_Value(&key_pad1 ,&key_status)
      +                          ;
  2512   00062E  0EA4               	movlw	low _key_pad1
  2513   000630  6FF7               	movwf	Key_Pad_Get_Value@_key_pad& (0+255),b
  2514   000632  0E00               	movlw	high _key_pad1
  2515   000634  6FF8               	movwf	(Key_Pad_Get_Value@_key_pad+1)& (0+255),b
  2516   000636  0EEA               	movlw	low _key_status
  2517   000638  6FF9               	movwf	Key_Pad_Get_Value@value& (0+255),b
  2518   00063A  0E00               	movlw	high _key_status
  2519   00063C  6FFA               	movwf	(Key_Pad_Get_Value@value+1)& (0+255),b
  2520   00063E  ECEB  F016         	call	_Key_Pad_Get_Value	;wreg free
  2521   000642  C0F7  F0FE         	movff	?_Key_Pad_Get_Value,_ret
  2522   000646  C0F8  F0FF         	movff	?_Key_Pad_Get_Value+1,_ret+1
  2523   00064A                     
  2524                           ;Application.c: 103:                 }while(0 == key_status);
  2525   00064A  0100               	movlb	0	; () banked
  2526   00064C  51EA               	movf	_key_status& (0+255),w,b
  2527   00064E  B4D8               	btfsc	status,2,c
  2528   000650  EF2C  F003         	goto	u9091
  2529   000654  EF2E  F003         	goto	u9090
  2530   000658                     u9091:
  2531   000658  EF17  F003         	goto	l10263
  2532   00065C                     u9090:
  2533   00065C                     
  2534                           ; BSR set to: 0
  2535                           ;Application.c: 104:                 ret = EEPROM_Data_ReadByte(Admin_Start_address ,&ee
      +                          prom_digit_read);
  2536   00065C  C0A3  F0EB         	movff	_Admin_Start_address,EEPROM_Data_ReadByte@bAdd
  2537   000660  6BEC               	clrf	(EEPROM_Data_ReadByte@bAdd+1)& (0+255),b
  2538   000662  0EB4               	movlw	low _eeprom_digit_read
  2539   000664  6FED               	movwf	EEPROM_Data_ReadByte@bData& (0+255),b
  2540   000666  0E00               	movlw	high _eeprom_digit_read
  2541   000668  6FEE               	movwf	(EEPROM_Data_ReadByte@bData+1)& (0+255),b
  2542   00066A  EC06  F01E         	call	_EEPROM_Data_ReadByte	;wreg free
  2543   00066E  C0EB  F0FE         	movff	?_EEPROM_Data_ReadByte,_ret
  2544   000672  C0EC  F0FF         	movff	?_EEPROM_Data_ReadByte+1,_ret+1
  2545   000676                     
  2546                           ;Application.c: 105:                 if(eeprom_digit_read == key_status){
  2547   000676  0100               	movlb	0	; () banked
  2548   000678  51EA               	movf	_key_status& (0+255),w,b
  2549   00067A  19B4               	xorwf	_eeprom_digit_read& (0+255),w,b
  2550   00067C  A4D8               	btfss	status,2,c
  2551   00067E  EF43  F003         	goto	u9101
  2552   000682  EF45  F003         	goto	u9100
  2553   000686                     u9101:
  2554   000686  EF46  F003         	goto	l10273
  2555   00068A                     u9100:
  2556   00068A                     
  2557                           ; BSR set to: 0
  2558                           ;Application.c: 106:                     Admin_pass_flag++;
  2559   00068A  2BE9               	incf	_Admin_pass_flag& (0+255),f,b
  2560   00068C                     l10273:
  2561                           
  2562                           ; BSR set to: 0
  2563                           ;Application.c: 108:                 ret = lcd_send_ATpos_char_data(&lcd1 , 2 , cursor, 
      +                          key_status);
  2564   00068C  0E5D               	movlw	low _lcd1
  2565   00068E  0101               	movlb	1	; () banked
  2566   000690  6F0B               	movwf	lcd_send_ATpos_char_data@_LCD_& (0+255),b
  2567   000692  0E00               	movlw	high _lcd1
  2568   000694  6F0C               	movwf	(lcd_send_ATpos_char_data@_LCD_+1)& (0+255),b
  2569   000696  0E02               	movlw	2
  2570   000698  6F0D               	movwf	lcd_send_ATpos_char_data@row& (0+255),b
  2571   00069A  C0A1  F10E         	movff	_cursor,lcd_send_ATpos_char_data@coulmns
  2572   00069E  C0EA  F10F         	movff	_key_status,lcd_send_ATpos_char_data@data
  2573   0006A2  ECB0  F01D         	call	_lcd_send_ATpos_char_data	;wreg free
  2574   0006A6  C10B  F0FE         	movff	?_lcd_send_ATpos_char_data,_ret
  2575   0006AA  C10C  F0FF         	movff	?_lcd_send_ATpos_char_data+1,_ret+1
  2576   0006AE                     
  2577                           ;Application.c: 109:                 _delay((unsigned long)((500)*(4000000UL/4000.0)));
  2578   0006AE  0E03               	movlw	3
  2579   0006B0  0101               	movlb	1	; () banked
  2580   0006B2  6F14               	movwf	(??_main+1)& (0+255),b
  2581   0006B4  0E8A               	movlw	138
  2582   0006B6  6F13               	movwf	??_main& (0+255),b
  2583   0006B8  0E55               	movlw	85
  2584   0006BA                     u9807:
  2585   0006BA  2EE8               	decfsz	wreg,f,c
  2586   0006BC  D7FE               	bra	u9807
  2587   0006BE  2F13               	decfsz	??_main& (0+255),f,b
  2588   0006C0  D7FC               	bra	u9807
  2589   0006C2  2F14               	decfsz	(??_main+1)& (0+255),f,b
  2590   0006C4  D7FA               	bra	u9807
  2591   0006C6  D000               	nop2	
  2592   0006C8                     
  2593                           ;Application.c: 110:                 ret = lcd_send_command(&lcd1 , 0X10);
  2594   0006C8  0E5D               	movlw	low _lcd1
  2595   0006CA  0101               	movlb	1	; () banked
  2596   0006CC  6F00               	movwf	lcd_send_command@_LCD_& (0+255),b
  2597   0006CE  0E00               	movlw	high _lcd1
  2598   0006D0  6F01               	movwf	(lcd_send_command@_LCD_+1)& (0+255),b
  2599   0006D2  0E10               	movlw	16
  2600   0006D4  6F02               	movwf	lcd_send_command@command& (0+255),b
  2601   0006D6  EC52  F01B         	call	_lcd_send_command	;wreg free
  2602   0006DA  C100  F0FE         	movff	?_lcd_send_command,_ret
  2603   0006DE  C101  F0FF         	movff	?_lcd_send_command+1,_ret+1
  2604   0006E2                     
  2605                           ;Application.c: 111:                 ret = lcd_send_ATpos_char_data(&lcd1 , 2 , cursor, 
      +                          (uint8)'*');
  2606   0006E2  0E5D               	movlw	low _lcd1
  2607   0006E4  0101               	movlb	1	; () banked
  2608   0006E6  6F0B               	movwf	lcd_send_ATpos_char_data@_LCD_& (0+255),b
  2609   0006E8  0E00               	movlw	high _lcd1
  2610   0006EA  6F0C               	movwf	(lcd_send_ATpos_char_data@_LCD_+1)& (0+255),b
  2611   0006EC  0E02               	movlw	2
  2612   0006EE  6F0D               	movwf	lcd_send_ATpos_char_data@row& (0+255),b
  2613   0006F0  C0A1  F10E         	movff	_cursor,lcd_send_ATpos_char_data@coulmns
  2614   0006F4  0E2A               	movlw	42
  2615   0006F6  6F0F               	movwf	lcd_send_ATpos_char_data@data& (0+255),b
  2616   0006F8  ECB0  F01D         	call	_lcd_send_ATpos_char_data	;wreg free
  2617   0006FC  C10B  F0FE         	movff	?_lcd_send_ATpos_char_data,_ret
  2618   000700  C10C  F0FF         	movff	?_lcd_send_ATpos_char_data+1,_ret+1
  2619   000704                     
  2620                           ;Application.c: 112:                 ret = lcd_send_command(&lcd1 , 0X0E);
  2621   000704  0E5D               	movlw	low _lcd1
  2622   000706  0101               	movlb	1	; () banked
  2623   000708  6F00               	movwf	lcd_send_command@_LCD_& (0+255),b
  2624   00070A  0E00               	movlw	high _lcd1
  2625   00070C  6F01               	movwf	(lcd_send_command@_LCD_+1)& (0+255),b
  2626   00070E  0E0E               	movlw	14
  2627   000710  6F02               	movwf	lcd_send_command@command& (0+255),b
  2628   000712  EC52  F01B         	call	_lcd_send_command	;wreg free
  2629   000716  C100  F0FE         	movff	?_lcd_send_command,_ret
  2630   00071A  C101  F0FF         	movff	?_lcd_send_command+1,_ret+1
  2631   00071E                     
  2632                           ;Application.c: 113:                 key_status = 0;
  2633   00071E  0E00               	movlw	0
  2634   000720  0100               	movlb	0	; () banked
  2635   000722  6FEA               	movwf	_key_status& (0+255),b
  2636   000724                     
  2637                           ; BSR set to: 0
  2638                           ;Application.c: 114:                 cursor++;
  2639   000724  2BA1               	incf	_cursor& (0+255),f,b
  2640   000726                     
  2641                           ; BSR set to: 0
  2642                           ;Application.c: 115:                 Admin_Start_address++;
  2643   000726  2BA3               	incf	_Admin_Start_address& (0+255),f,b
  2644   000728                     
  2645                           ; BSR set to: 0
  2646                           ;Application.c: 116:                 pass_counter++;
  2647   000728  2BA0               	incf	_pass_counter& (0+255),f,b
  2648   00072A                     l10291:
  2649                           
  2650                           ;Application.c: 99:             while(pass_counter <= 4)
  2651   00072A  0E04               	movlw	4
  2652   00072C  0100               	movlb	0	; () banked
  2653   00072E  65A0               	cpfsgt	_pass_counter& (0+255),b
  2654   000730  EF9C  F003         	goto	u9111
  2655   000734  EF9E  F003         	goto	u9110
  2656   000738                     u9111:
  2657   000738  EF17  F003         	goto	l10263
  2658   00073C                     u9110:
  2659   00073C                     
  2660                           ; BSR set to: 0
  2661                           ;Application.c: 118:             if((uint8)4 == Admin_pass_flag){
  2662   00073C  0E04               	movlw	4
  2663   00073E  19E9               	xorwf	_Admin_pass_flag& (0+255),w,b
  2664   000740  A4D8               	btfss	status,2,c
  2665   000742  EFA5  F003         	goto	u9121
  2666   000746  EFA7  F003         	goto	u9120
  2667   00074A                     u9121:
  2668   00074A  EFE5  F003         	goto	l10303
  2669   00074E                     u9120:
  2670   00074E                     
  2671                           ; BSR set to: 0
  2672                           ;Application.c: 119:                 ret = lcd_send_command(&lcd1 , 0x01);
  2673   00074E  0E5D               	movlw	low _lcd1
  2674   000750  0101               	movlb	1	; () banked
  2675   000752  6F00               	movwf	lcd_send_command@_LCD_& (0+255),b
  2676   000754  0E00               	movlw	high _lcd1
  2677   000756  6F01               	movwf	(lcd_send_command@_LCD_+1)& (0+255),b
  2678   000758  0E01               	movlw	1
  2679   00075A  6F02               	movwf	lcd_send_command@command& (0+255),b
  2680   00075C  EC52  F01B         	call	_lcd_send_command	;wreg free
  2681   000760  C100  F0FE         	movff	?_lcd_send_command,_ret
  2682   000764  C101  F0FF         	movff	?_lcd_send_command+1,_ret+1
  2683                           
  2684                           ;Application.c: 120:                 ret = lcd_send_command(&lcd1 , 0X0C);
  2685   000768  0E5D               	movlw	low _lcd1
  2686   00076A  0101               	movlb	1	; () banked
  2687   00076C  6F00               	movwf	lcd_send_command@_LCD_& (0+255),b
  2688   00076E  0E00               	movlw	high _lcd1
  2689   000770  6F01               	movwf	(lcd_send_command@_LCD_+1)& (0+255),b
  2690   000772  0E0C               	movlw	12
  2691   000774  6F02               	movwf	lcd_send_command@command& (0+255),b
  2692   000776  EC52  F01B         	call	_lcd_send_command	;wreg free
  2693   00077A  C100  F0FE         	movff	?_lcd_send_command,_ret
  2694   00077E  C101  F0FF         	movff	?_lcd_send_command+1,_ret+1
  2695   000782                     
  2696                           ;Application.c: 121:                 ret = lcd_send_ATpos_string_data(&lcd1 , 2 , 1 , "S
      +                          uccess Login..");
  2697   000782  0E5D               	movlw	low _lcd1
  2698   000784  0101               	movlb	1	; () banked
  2699   000786  6F0B               	movwf	lcd_send_ATpos_string_data@_LCD_& (0+255),b
  2700   000788  0E00               	movlw	high _lcd1
  2701   00078A  6F0C               	movwf	(lcd_send_ATpos_string_data@_LCD_+1)& (0+255),b
  2702   00078C  0E02               	movlw	2
  2703   00078E  6F0D               	movwf	lcd_send_ATpos_string_data@row& (0+255),b
  2704   000790  0E01               	movlw	1
  2705   000792  6F0E               	movwf	lcd_send_ATpos_string_data@coulmns& (0+255),b
  2706   000794  0E99               	movlw	low STR_17
  2707   000796  6F0F               	movwf	lcd_send_ATpos_string_data@str& (0+255),b
  2708   000798  0EFE               	movlw	high STR_17
  2709   00079A  6F10               	movwf	(lcd_send_ATpos_string_data@str+1)& (0+255),b
  2710   00079C  ECB8  F01C         	call	_lcd_send_ATpos_string_data	;wreg free
  2711   0007A0  C10B  F0FE         	movff	?_lcd_send_ATpos_string_data,_ret
  2712   0007A4  C10C  F0FF         	movff	?_lcd_send_ATpos_string_data+1,_ret+1
  2713   0007A8                     
  2714                           ;Application.c: 122:                 key_status = 0;
  2715   0007A8  0E00               	movlw	0
  2716   0007AA  0100               	movlb	0	; () banked
  2717   0007AC  6FEA               	movwf	_key_status& (0+255),b
  2718   0007AE                     
  2719                           ; BSR set to: 0
  2720                           ;Application.c: 123:                 _delay((unsigned long)((300)*(4000000UL/4000.0)));
  2721   0007AE  0E02               	movlw	2
  2722   0007B0  0101               	movlb	1	; () banked
  2723   0007B2  6F14               	movwf	(??_main+1)& (0+255),b
  2724   0007B4  0E86               	movlw	134
  2725   0007B6  6F13               	movwf	??_main& (0+255),b
  2726   0007B8  0E99               	movlw	153
  2727   0007BA                     u9817:
  2728   0007BA  2EE8               	decfsz	wreg,f,c
  2729   0007BC  D7FE               	bra	u9817
  2730   0007BE  2F13               	decfsz	??_main& (0+255),f,b
  2731   0007C0  D7FC               	bra	u9817
  2732   0007C2  2F14               	decfsz	(??_main+1)& (0+255),f,b
  2733   0007C4  D7FA               	bra	u9817
  2734                           
  2735                           ;Application.c: 124:             }else{
  2736   0007C6  EF52  F004         	goto	l10327
  2737   0007CA                     l10303:
  2738                           
  2739                           ; BSR set to: 0
  2740                           ;Application.c: 125:                 key_status = '1';
  2741   0007CA  0E31               	movlw	49
  2742   0007CC  6FEA               	movwf	_key_status& (0+255),b
  2743   0007CE                     
  2744                           ; BSR set to: 0
  2745                           ;Application.c: 126:                 ret = lcd_send_command(&lcd1 , 0x01);
  2746   0007CE  0E5D               	movlw	low _lcd1
  2747   0007D0  0101               	movlb	1	; () banked
  2748   0007D2  6F00               	movwf	lcd_send_command@_LCD_& (0+255),b
  2749   0007D4  0E00               	movlw	high _lcd1
  2750   0007D6  6F01               	movwf	(lcd_send_command@_LCD_+1)& (0+255),b
  2751   0007D8  0E01               	movlw	1
  2752   0007DA  6F02               	movwf	lcd_send_command@command& (0+255),b
  2753   0007DC  EC52  F01B         	call	_lcd_send_command	;wreg free
  2754   0007E0  C100  F0FE         	movff	?_lcd_send_command,_ret
  2755   0007E4  C101  F0FF         	movff	?_lcd_send_command+1,_ret+1
  2756   0007E8                     
  2757                           ;Application.c: 127:                 ret = lcd_send_command(&lcd1 , 0X0C);
  2758   0007E8  0E5D               	movlw	low _lcd1
  2759   0007EA  0101               	movlb	1	; () banked
  2760   0007EC  6F00               	movwf	lcd_send_command@_LCD_& (0+255),b
  2761   0007EE  0E00               	movlw	high _lcd1
  2762   0007F0  6F01               	movwf	(lcd_send_command@_LCD_+1)& (0+255),b
  2763   0007F2  0E0C               	movlw	12
  2764   0007F4  6F02               	movwf	lcd_send_command@command& (0+255),b
  2765   0007F6  EC52  F01B         	call	_lcd_send_command	;wreg free
  2766   0007FA  C100  F0FE         	movff	?_lcd_send_command,_ret
  2767   0007FE  C101  F0FF         	movff	?_lcd_send_command+1,_ret+1
  2768   000802                     
  2769                           ;Application.c: 128:                 ret = lcd_send_ATpos_string_data(&lcd1 , 1 , 1 , "W
      +                          rong input.");
  2770   000802  0E5D               	movlw	low _lcd1
  2771   000804  0101               	movlb	1	; () banked
  2772   000806  6F0B               	movwf	lcd_send_ATpos_string_data@_LCD_& (0+255),b
  2773   000808  0E00               	movlw	high _lcd1
  2774   00080A  6F0C               	movwf	(lcd_send_ATpos_string_data@_LCD_+1)& (0+255),b
  2775   00080C  0E01               	movlw	1
  2776   00080E  6F0D               	movwf	lcd_send_ATpos_string_data@row& (0+255),b
  2777   000810  0E01               	movlw	1
  2778   000812  6F0E               	movwf	lcd_send_ATpos_string_data@coulmns& (0+255),b
  2779   000814  0EF0               	movlw	low STR_18
  2780   000816  6F0F               	movwf	lcd_send_ATpos_string_data@str& (0+255),b
  2781   000818  0EFE               	movlw	high STR_18
  2782   00081A  6F10               	movwf	(lcd_send_ATpos_string_data@str+1)& (0+255),b
  2783   00081C  ECB8  F01C         	call	_lcd_send_ATpos_string_data	;wreg free
  2784   000820  C10B  F0FE         	movff	?_lcd_send_ATpos_string_data,_ret
  2785   000824  C10C  F0FF         	movff	?_lcd_send_ATpos_string_data+1,_ret+1
  2786   000828                     
  2787                           ;Application.c: 129:                 ret = lcd_send_ATpos_string_data(&lcd1 , 2 , 1 , "T
      +                          ries left:");
  2788   000828  0E5D               	movlw	low _lcd1
  2789   00082A  0101               	movlb	1	; () banked
  2790   00082C  6F0B               	movwf	lcd_send_ATpos_string_data@_LCD_& (0+255),b
  2791   00082E  0E00               	movlw	high _lcd1
  2792   000830  6F0C               	movwf	(lcd_send_ATpos_string_data@_LCD_+1)& (0+255),b
  2793   000832  0E02               	movlw	2
  2794   000834  6F0D               	movwf	lcd_send_ATpos_string_data@row& (0+255),b
  2795   000836  0E01               	movlw	1
  2796   000838  6F0E               	movwf	lcd_send_ATpos_string_data@coulmns& (0+255),b
  2797   00083A  0E3B               	movlw	low STR_19
  2798   00083C  6F0F               	movwf	lcd_send_ATpos_string_data@str& (0+255),b
  2799   00083E  0EFF               	movlw	high STR_19
  2800   000840  6F10               	movwf	(lcd_send_ATpos_string_data@str+1)& (0+255),b
  2801   000842  ECB8  F01C         	call	_lcd_send_ATpos_string_data	;wreg free
  2802   000846  C10B  F0FE         	movff	?_lcd_send_ATpos_string_data,_ret
  2803   00084A  C10C  F0FF         	movff	?_lcd_send_ATpos_string_data+1,_ret+1
  2804   00084E                     
  2805                           ;Application.c: 130:                 ret = lcd_send_ATpos_char_data(&lcd1 , 2 , 12 , (ad
      +                          min_pass_tries -1) +(uint8)'0');
  2806   00084E  0E5D               	movlw	low _lcd1
  2807   000850  0101               	movlb	1	; () banked
  2808   000852  6F0B               	movwf	lcd_send_ATpos_char_data@_LCD_& (0+255),b
  2809   000854  0E00               	movlw	high _lcd1
  2810   000856  6F0C               	movwf	(lcd_send_ATpos_char_data@_LCD_+1)& (0+255),b
  2811   000858  0E02               	movlw	2
  2812   00085A  6F0D               	movwf	lcd_send_ATpos_char_data@row& (0+255),b
  2813   00085C  0E0C               	movlw	12
  2814   00085E  6F0E               	movwf	lcd_send_ATpos_char_data@coulmns& (0+255),b
  2815   000860  0100               	movlb	0	; () banked
  2816   000862  519F               	movf	_admin_pass_tries& (0+255),w,b
  2817   000864  0F2F               	addlw	47
  2818   000866  0101               	movlb	1	; () banked
  2819   000868  6F0F               	movwf	lcd_send_ATpos_char_data@data& (0+255),b
  2820   00086A  ECB0  F01D         	call	_lcd_send_ATpos_char_data	;wreg free
  2821   00086E  C10B  F0FE         	movff	?_lcd_send_ATpos_char_data,_ret
  2822   000872  C10C  F0FF         	movff	?_lcd_send_ATpos_char_data+1,_ret+1
  2823   000876                     
  2824                           ;Application.c: 131:                 _delay((unsigned long)((500)*(4000000UL/4000.0)));
  2825   000876  0E03               	movlw	3
  2826   000878  0101               	movlb	1	; () banked
  2827   00087A  6F14               	movwf	(??_main+1)& (0+255),b
  2828   00087C  0E8A               	movlw	138
  2829   00087E  6F13               	movwf	??_main& (0+255),b
  2830   000880  0E55               	movlw	85
  2831   000882                     u9827:
  2832   000882  2EE8               	decfsz	wreg,f,c
  2833   000884  D7FE               	bra	u9827
  2834   000886  2F13               	decfsz	??_main& (0+255),f,b
  2835   000888  D7FC               	bra	u9827
  2836   00088A  2F14               	decfsz	(??_main+1)& (0+255),f,b
  2837   00088C  D7FA               	bra	u9827
  2838   00088E  D000               	nop2	
  2839   000890                     
  2840                           ;Application.c: 133:                 Admin_pass_flag = 1;
  2841   000890  0E01               	movlw	1
  2842   000892  0100               	movlb	0	; () banked
  2843   000894  6FE9               	movwf	_Admin_pass_flag& (0+255),b
  2844   000896                     
  2845                           ; BSR set to: 0
  2846                           ;Application.c: 134:                 pass_counter = 1;
  2847   000896  0E01               	movlw	1
  2848   000898  6FA0               	movwf	_pass_counter& (0+255),b
  2849   00089A                     
  2850                           ; BSR set to: 0
  2851                           ;Application.c: 135:                 Admin_Start_address = (uint16)0X102;
  2852   00089A  0E02               	movlw	2
  2853   00089C  6FA3               	movwf	_Admin_Start_address& (0+255),b
  2854   00089E                     
  2855                           ; BSR set to: 0
  2856                           ;Application.c: 136:                 cursor =12;
  2857   00089E  0E0C               	movlw	12
  2858   0008A0  6FA1               	movwf	_cursor& (0+255),b
  2859   0008A2                     
  2860                           ; BSR set to: 0
  2861                           ;Application.c: 137:                 admin_pass_tries--;
  2862   0008A2  079F               	decf	_admin_pass_tries& (0+255),f,b
  2863   0008A4                     l10327:
  2864                           
  2865                           ;Application.c: 93:         while('1' == key_status && admin_pass_tries > 0){
  2866   0008A4  0E31               	movlw	49
  2867   0008A6  0100               	movlb	0	; () banked
  2868   0008A8  19EA               	xorwf	_key_status& (0+255),w,b
  2869   0008AA  A4D8               	btfss	status,2,c
  2870   0008AC  EF5A  F004         	goto	u9131
  2871   0008B0  EF5C  F004         	goto	u9130
  2872   0008B4                     u9131:
  2873   0008B4  EFF3  F005         	goto	l10407
  2874   0008B8                     u9130:
  2875   0008B8                     
  2876                           ; BSR set to: 0
  2877   0008B8  519F               	movf	_admin_pass_tries& (0+255),w,b
  2878   0008BA  A4D8               	btfss	status,2,c
  2879   0008BC  EF62  F004         	goto	u9141
  2880   0008C0  EF64  F004         	goto	u9140
  2881   0008C4                     u9141:
  2882   0008C4  EFD3  F002         	goto	l10253
  2883   0008C8                     u9140:
  2884   0008C8  EFF3  F005         	goto	l10407
  2885   0008CC                     l10331:
  2886                           
  2887                           ; BSR set to: 0
  2888                           ;Application.c: 142:             ret = lcd_send_command(&lcd1 , 0x01);
  2889   0008CC  0E5D               	movlw	low _lcd1
  2890   0008CE  0101               	movlb	1	; () banked
  2891   0008D0  6F00               	movwf	lcd_send_command@_LCD_& (0+255),b
  2892   0008D2  0E00               	movlw	high _lcd1
  2893   0008D4  6F01               	movwf	(lcd_send_command@_LCD_+1)& (0+255),b
  2894   0008D6  0E01               	movlw	1
  2895   0008D8  6F02               	movwf	lcd_send_command@command& (0+255),b
  2896   0008DA  EC52  F01B         	call	_lcd_send_command	;wreg free
  2897   0008DE  C100  F0FE         	movff	?_lcd_send_command,_ret
  2898   0008E2  C101  F0FF         	movff	?_lcd_send_command+1,_ret+1
  2899   0008E6                     
  2900                           ;Application.c: 143:             ret = lcd_send_ATpos_string_data(&lcd1 , 1 , 1 , "Guest
      +                           Mode:-");
  2901   0008E6  0E5D               	movlw	low _lcd1
  2902   0008E8  0101               	movlb	1	; () banked
  2903   0008EA  6F0B               	movwf	lcd_send_ATpos_string_data@_LCD_& (0+255),b
  2904   0008EC  0E00               	movlw	high _lcd1
  2905   0008EE  6F0C               	movwf	(lcd_send_ATpos_string_data@_LCD_+1)& (0+255),b
  2906   0008F0  0E01               	movlw	1
  2907   0008F2  6F0D               	movwf	lcd_send_ATpos_string_data@row& (0+255),b
  2908   0008F4  0E01               	movlw	1
  2909   0008F6  6F0E               	movwf	lcd_send_ATpos_string_data@coulmns& (0+255),b
  2910   0008F8  0EE3               	movlw	low STR_20
  2911   0008FA  6F0F               	movwf	lcd_send_ATpos_string_data@str& (0+255),b
  2912   0008FC  0EFE               	movlw	high STR_20
  2913   0008FE  6F10               	movwf	(lcd_send_ATpos_string_data@str+1)& (0+255),b
  2914   000900  ECB8  F01C         	call	_lcd_send_ATpos_string_data	;wreg free
  2915   000904  C10B  F0FE         	movff	?_lcd_send_ATpos_string_data,_ret
  2916   000908  C10C  F0FF         	movff	?_lcd_send_ATpos_string_data+1,_ret+1
  2917   00090C                     
  2918                           ;Application.c: 144:             ret = lcd_send_ATpos_string_data(&lcd1 , 2 , 1 , "Write
      +                           pass:");
  2919   00090C  0E5D               	movlw	low _lcd1
  2920   00090E  0101               	movlb	1	; () banked
  2921   000910  6F0B               	movwf	lcd_send_ATpos_string_data@_LCD_& (0+255),b
  2922   000912  0E00               	movlw	high _lcd1
  2923   000914  6F0C               	movwf	(lcd_send_ATpos_string_data@_LCD_+1)& (0+255),b
  2924   000916  0E02               	movlw	2
  2925   000918  6F0D               	movwf	lcd_send_ATpos_string_data@row& (0+255),b
  2926   00091A  0E01               	movlw	1
  2927   00091C  6F0E               	movwf	lcd_send_ATpos_string_data@coulmns& (0+255),b
  2928   00091E  0E2F               	movlw	low STR_16
  2929   000920  6F0F               	movwf	lcd_send_ATpos_string_data@str& (0+255),b
  2930   000922  0EFF               	movlw	high STR_16
  2931   000924  6F10               	movwf	(lcd_send_ATpos_string_data@str+1)& (0+255),b
  2932   000926  ECB8  F01C         	call	_lcd_send_ATpos_string_data	;wreg free
  2933   00092A  C10B  F0FE         	movff	?_lcd_send_ATpos_string_data,_ret
  2934   00092E  C10C  F0FF         	movff	?_lcd_send_ATpos_string_data+1,_ret+1
  2935   000932                     
  2936                           ;Application.c: 145:             key_status = 0;
  2937   000932  0E00               	movlw	0
  2938   000934  0100               	movlb	0	; () banked
  2939   000936  6FEA               	movwf	_key_status& (0+255),b
  2940   000938                     
  2941                           ; BSR set to: 0
  2942                           ;Application.c: 146:             _delay((unsigned long)((300)*(4000000UL/4000.0)));
  2943   000938  0E02               	movlw	2
  2944   00093A  0101               	movlb	1	; () banked
  2945   00093C  6F14               	movwf	(??_main+1)& (0+255),b
  2946   00093E  0E86               	movlw	134
  2947   000940  6F13               	movwf	??_main& (0+255),b
  2948   000942  0E99               	movlw	153
  2949   000944                     u9837:
  2950   000944  2EE8               	decfsz	wreg,f,c
  2951   000946  D7FE               	bra	u9837
  2952   000948  2F13               	decfsz	??_main& (0+255),f,b
  2953   00094A  D7FC               	bra	u9837
  2954   00094C  2F14               	decfsz	(??_main+1)& (0+255),f,b
  2955   00094E  D7FA               	bra	u9837
  2956                           
  2957                           ;Application.c: 147:             while(pass_counter <= 4)
  2958   000950  EF28  F005         	goto	l10369
  2959   000954                     l10341:
  2960                           
  2961                           ; BSR set to: 0
  2962                           ;Application.c: 150:                     ret = Key_Pad_Get_Value(&key_pad1 ,&key_status)
      +                          ;
  2963   000954  0EA4               	movlw	low _key_pad1
  2964   000956  6FF7               	movwf	Key_Pad_Get_Value@_key_pad& (0+255),b
  2965   000958  0E00               	movlw	high _key_pad1
  2966   00095A  6FF8               	movwf	(Key_Pad_Get_Value@_key_pad+1)& (0+255),b
  2967   00095C  0EEA               	movlw	low _key_status
  2968   00095E  6FF9               	movwf	Key_Pad_Get_Value@value& (0+255),b
  2969   000960  0E00               	movlw	high _key_status
  2970   000962  6FFA               	movwf	(Key_Pad_Get_Value@value+1)& (0+255),b
  2971   000964  ECEB  F016         	call	_Key_Pad_Get_Value	;wreg free
  2972   000968  C0F7  F0FE         	movff	?_Key_Pad_Get_Value,_ret
  2973   00096C  C0F8  F0FF         	movff	?_Key_Pad_Get_Value+1,_ret+1
  2974   000970                     
  2975                           ;Application.c: 151:                 }while(0 == key_status);
  2976   000970  0100               	movlb	0	; () banked
  2977   000972  51EA               	movf	_key_status& (0+255),w,b
  2978   000974  B4D8               	btfsc	status,2,c
  2979   000976  EFBF  F004         	goto	u9151
  2980   00097A  EFC1  F004         	goto	u9150
  2981   00097E                     u9151:
  2982   00097E  EFAA  F004         	goto	l10341
  2983   000982                     u9150:
  2984   000982                     
  2985                           ; BSR set to: 0
  2986                           ;Application.c: 152:                 ret = EEPROM_Data_ReadByte(Guest_Start_address ,&ee
      +                          prom_digit_read);
  2987   000982  C0A2  F0EB         	movff	_Guest_Start_address,EEPROM_Data_ReadByte@bAdd
  2988   000986  6BEC               	clrf	(EEPROM_Data_ReadByte@bAdd+1)& (0+255),b
  2989   000988  0EB4               	movlw	low _eeprom_digit_read
  2990   00098A  6FED               	movwf	EEPROM_Data_ReadByte@bData& (0+255),b
  2991   00098C  0E00               	movlw	high _eeprom_digit_read
  2992   00098E  6FEE               	movwf	(EEPROM_Data_ReadByte@bData+1)& (0+255),b
  2993   000990  EC06  F01E         	call	_EEPROM_Data_ReadByte	;wreg free
  2994   000994  C0EB  F0FE         	movff	?_EEPROM_Data_ReadByte,_ret
  2995   000998  C0EC  F0FF         	movff	?_EEPROM_Data_ReadByte+1,_ret+1
  2996   00099C                     
  2997                           ;Application.c: 153:                 if(eeprom_digit_read == key_status){
  2998   00099C  0100               	movlb	0	; () banked
  2999   00099E  51EA               	movf	_key_status& (0+255),w,b
  3000   0009A0  19B4               	xorwf	_eeprom_digit_read& (0+255),w,b
  3001   0009A2  A4D8               	btfss	status,2,c
  3002   0009A4  EFD6  F004         	goto	u9161
  3003   0009A8  EFD8  F004         	goto	u9160
  3004   0009AC                     u9161:
  3005   0009AC  EFD9  F004         	goto	l10351
  3006   0009B0                     u9160:
  3007   0009B0                     
  3008                           ; BSR set to: 0
  3009                           ;Application.c: 154:                     Guest_pass_flag++;
  3010   0009B0  2BE8               	incf	_Guest_pass_flag& (0+255),f,b
  3011   0009B2                     l10351:
  3012                           
  3013                           ; BSR set to: 0
  3014                           ;Application.c: 156:                 ret = lcd_send_ATpos_char_data(&lcd1 , 2 , cursor, 
      +                          key_status);
  3015   0009B2  0E5D               	movlw	low _lcd1
  3016   0009B4  0101               	movlb	1	; () banked
  3017   0009B6  6F0B               	movwf	lcd_send_ATpos_char_data@_LCD_& (0+255),b
  3018   0009B8  0E00               	movlw	high _lcd1
  3019   0009BA  6F0C               	movwf	(lcd_send_ATpos_char_data@_LCD_+1)& (0+255),b
  3020   0009BC  0E02               	movlw	2
  3021   0009BE  6F0D               	movwf	lcd_send_ATpos_char_data@row& (0+255),b
  3022   0009C0  C0A1  F10E         	movff	_cursor,lcd_send_ATpos_char_data@coulmns
  3023   0009C4  C0EA  F10F         	movff	_key_status,lcd_send_ATpos_char_data@data
  3024   0009C8  ECB0  F01D         	call	_lcd_send_ATpos_char_data	;wreg free
  3025   0009CC  C10B  F0FE         	movff	?_lcd_send_ATpos_char_data,_ret
  3026   0009D0  C10C  F0FF         	movff	?_lcd_send_ATpos_char_data+1,_ret+1
  3027   0009D4                     
  3028                           ;Application.c: 157:                 _delay((unsigned long)((500)*(4000000UL/4000.0)));
  3029   0009D4  0E03               	movlw	3
  3030   0009D6  0101               	movlb	1	; () banked
  3031   0009D8  6F14               	movwf	(??_main+1)& (0+255),b
  3032   0009DA  0E8A               	movlw	138
  3033   0009DC  6F13               	movwf	??_main& (0+255),b
  3034   0009DE  0E55               	movlw	85
  3035   0009E0                     u9847:
  3036   0009E0  2EE8               	decfsz	wreg,f,c
  3037   0009E2  D7FE               	bra	u9847
  3038   0009E4  2F13               	decfsz	??_main& (0+255),f,b
  3039   0009E6  D7FC               	bra	u9847
  3040   0009E8  2F14               	decfsz	(??_main+1)& (0+255),f,b
  3041   0009EA  D7FA               	bra	u9847
  3042   0009EC  D000               	nop2	
  3043   0009EE                     
  3044                           ;Application.c: 158:                 ret = lcd_send_command(&lcd1 , 0X10);
  3045   0009EE  0E5D               	movlw	low _lcd1
  3046   0009F0  0101               	movlb	1	; () banked
  3047   0009F2  6F00               	movwf	lcd_send_command@_LCD_& (0+255),b
  3048   0009F4  0E00               	movlw	high _lcd1
  3049   0009F6  6F01               	movwf	(lcd_send_command@_LCD_+1)& (0+255),b
  3050   0009F8  0E10               	movlw	16
  3051   0009FA  6F02               	movwf	lcd_send_command@command& (0+255),b
  3052   0009FC  EC52  F01B         	call	_lcd_send_command	;wreg free
  3053   000A00  C100  F0FE         	movff	?_lcd_send_command,_ret
  3054   000A04  C101  F0FF         	movff	?_lcd_send_command+1,_ret+1
  3055   000A08                     
  3056                           ;Application.c: 159:                 ret = lcd_send_ATpos_char_data(&lcd1 , 2 , cursor, 
      +                          (uint8)'*');
  3057   000A08  0E5D               	movlw	low _lcd1
  3058   000A0A  0101               	movlb	1	; () banked
  3059   000A0C  6F0B               	movwf	lcd_send_ATpos_char_data@_LCD_& (0+255),b
  3060   000A0E  0E00               	movlw	high _lcd1
  3061   000A10  6F0C               	movwf	(lcd_send_ATpos_char_data@_LCD_+1)& (0+255),b
  3062   000A12  0E02               	movlw	2
  3063   000A14  6F0D               	movwf	lcd_send_ATpos_char_data@row& (0+255),b
  3064   000A16  C0A1  F10E         	movff	_cursor,lcd_send_ATpos_char_data@coulmns
  3065   000A1A  0E2A               	movlw	42
  3066   000A1C  6F0F               	movwf	lcd_send_ATpos_char_data@data& (0+255),b
  3067   000A1E  ECB0  F01D         	call	_lcd_send_ATpos_char_data	;wreg free
  3068   000A22  C10B  F0FE         	movff	?_lcd_send_ATpos_char_data,_ret
  3069   000A26  C10C  F0FF         	movff	?_lcd_send_ATpos_char_data+1,_ret+1
  3070   000A2A                     
  3071                           ;Application.c: 160:                 ret = lcd_send_command(&lcd1 , 0X0E);
  3072   000A2A  0E5D               	movlw	low _lcd1
  3073   000A2C  0101               	movlb	1	; () banked
  3074   000A2E  6F00               	movwf	lcd_send_command@_LCD_& (0+255),b
  3075   000A30  0E00               	movlw	high _lcd1
  3076   000A32  6F01               	movwf	(lcd_send_command@_LCD_+1)& (0+255),b
  3077   000A34  0E0E               	movlw	14
  3078   000A36  6F02               	movwf	lcd_send_command@command& (0+255),b
  3079   000A38  EC52  F01B         	call	_lcd_send_command	;wreg free
  3080   000A3C  C100  F0FE         	movff	?_lcd_send_command,_ret
  3081   000A40  C101  F0FF         	movff	?_lcd_send_command+1,_ret+1
  3082   000A44                     
  3083                           ;Application.c: 161:                 key_status = 0;
  3084   000A44  0E00               	movlw	0
  3085   000A46  0100               	movlb	0	; () banked
  3086   000A48  6FEA               	movwf	_key_status& (0+255),b
  3087   000A4A                     
  3088                           ; BSR set to: 0
  3089                           ;Application.c: 162:                 cursor++;
  3090   000A4A  2BA1               	incf	_cursor& (0+255),f,b
  3091   000A4C                     
  3092                           ; BSR set to: 0
  3093                           ;Application.c: 163:                 Guest_Start_address++;
  3094   000A4C  2BA2               	incf	_Guest_Start_address& (0+255),f,b
  3095   000A4E                     
  3096                           ; BSR set to: 0
  3097                           ;Application.c: 164:                 pass_counter++;
  3098   000A4E  2BA0               	incf	_pass_counter& (0+255),f,b
  3099   000A50                     l10369:
  3100                           
  3101                           ;Application.c: 147:             while(pass_counter <= 4)
  3102   000A50  0E04               	movlw	4
  3103   000A52  0100               	movlb	0	; () banked
  3104   000A54  65A0               	cpfsgt	_pass_counter& (0+255),b
  3105   000A56  EF2F  F005         	goto	u9171
  3106   000A5A  EF31  F005         	goto	u9170
  3107   000A5E                     u9171:
  3108   000A5E  EFAA  F004         	goto	l10341
  3109   000A62                     u9170:
  3110   000A62                     
  3111                           ; BSR set to: 0
  3112                           ;Application.c: 166:             if((uint8)4 == Guest_pass_flag){
  3113   000A62  0E04               	movlw	4
  3114   000A64  19E8               	xorwf	_Guest_pass_flag& (0+255),w,b
  3115   000A66  A4D8               	btfss	status,2,c
  3116   000A68  EF38  F005         	goto	u9181
  3117   000A6C  EF3A  F005         	goto	u9180
  3118   000A70                     u9181:
  3119   000A70  EF86  F005         	goto	l10383
  3120   000A74                     u9180:
  3121   000A74                     
  3122                           ; BSR set to: 0
  3123                           ;Application.c: 167:                 ret = lcd_send_command(&lcd1 , 0x01);
  3124   000A74  0E5D               	movlw	low _lcd1
  3125   000A76  0101               	movlb	1	; () banked
  3126   000A78  6F00               	movwf	lcd_send_command@_LCD_& (0+255),b
  3127   000A7A  0E00               	movlw	high _lcd1
  3128   000A7C  6F01               	movwf	(lcd_send_command@_LCD_+1)& (0+255),b
  3129   000A7E  0E01               	movlw	1
  3130   000A80  6F02               	movwf	lcd_send_command@command& (0+255),b
  3131   000A82  EC52  F01B         	call	_lcd_send_command	;wreg free
  3132   000A86  C100  F0FE         	movff	?_lcd_send_command,_ret
  3133   000A8A  C101  F0FF         	movff	?_lcd_send_command+1,_ret+1
  3134                           
  3135                           ;Application.c: 168:                 ret = lcd_send_command(&lcd1 , 0X0C);
  3136   000A8E  0E5D               	movlw	low _lcd1
  3137   000A90  0101               	movlb	1	; () banked
  3138   000A92  6F00               	movwf	lcd_send_command@_LCD_& (0+255),b
  3139   000A94  0E00               	movlw	high _lcd1
  3140   000A96  6F01               	movwf	(lcd_send_command@_LCD_+1)& (0+255),b
  3141   000A98  0E0C               	movlw	12
  3142   000A9A  6F02               	movwf	lcd_send_command@command& (0+255),b
  3143   000A9C  EC52  F01B         	call	_lcd_send_command	;wreg free
  3144   000AA0  C100  F0FE         	movff	?_lcd_send_command,_ret
  3145   000AA4  C101  F0FF         	movff	?_lcd_send_command+1,_ret+1
  3146   000AA8                     
  3147                           ;Application.c: 169:                 ret = lcd_send_ATpos_string_data(&lcd1 , 2 , 1 , "S
      +                          uccess Login..");
  3148   000AA8  0E5D               	movlw	low _lcd1
  3149   000AAA  0101               	movlb	1	; () banked
  3150   000AAC  6F0B               	movwf	lcd_send_ATpos_string_data@_LCD_& (0+255),b
  3151   000AAE  0E00               	movlw	high _lcd1
  3152   000AB0  6F0C               	movwf	(lcd_send_ATpos_string_data@_LCD_+1)& (0+255),b
  3153   000AB2  0E02               	movlw	2
  3154   000AB4  6F0D               	movwf	lcd_send_ATpos_string_data@row& (0+255),b
  3155   000AB6  0E01               	movlw	1
  3156   000AB8  6F0E               	movwf	lcd_send_ATpos_string_data@coulmns& (0+255),b
  3157   000ABA  0E99               	movlw	low STR_17
  3158   000ABC  6F0F               	movwf	lcd_send_ATpos_string_data@str& (0+255),b
  3159   000ABE  0EFE               	movlw	high STR_17
  3160   000AC0  6F10               	movwf	(lcd_send_ATpos_string_data@str+1)& (0+255),b
  3161   000AC2  ECB8  F01C         	call	_lcd_send_ATpos_string_data	;wreg free
  3162   000AC6  C10B  F0FE         	movff	?_lcd_send_ATpos_string_data,_ret
  3163   000ACA  C10C  F0FF         	movff	?_lcd_send_ATpos_string_data+1,_ret+1
  3164   000ACE                     
  3165                           ;Application.c: 170:                 key_status = 0;
  3166   000ACE  0E00               	movlw	0
  3167   000AD0  0100               	movlb	0	; () banked
  3168   000AD2  6FEA               	movwf	_key_status& (0+255),b
  3169   000AD4                     
  3170                           ; BSR set to: 0
  3171                           ;Application.c: 171:                 _delay((unsigned long)((1000)*(4000000UL/4000.0)));
  3172   000AD4  0E06               	movlw	6
  3173   000AD6  0101               	movlb	1	; () banked
  3174   000AD8  6F14               	movwf	(??_main+1)& (0+255),b
  3175   000ADA  0E13               	movlw	19
  3176   000ADC  6F13               	movwf	??_main& (0+255),b
  3177   000ADE  0EAD               	movlw	173
  3178   000AE0                     u9857:
  3179   000AE0  2EE8               	decfsz	wreg,f,c
  3180   000AE2  D7FE               	bra	u9857
  3181   000AE4  2F13               	decfsz	??_main& (0+255),f,b
  3182   000AE6  D7FC               	bra	u9857
  3183   000AE8  2F14               	decfsz	(??_main+1)& (0+255),f,b
  3184   000AEA  D7FA               	bra	u9857
  3185   000AEC  D000               	nop2	
  3186   000AEE                     
  3187                           ;Application.c: 172:                 ret = lcd_send_command(&lcd1 , 0x01);
  3188   000AEE  0E5D               	movlw	low _lcd1
  3189   000AF0  0101               	movlb	1	; () banked
  3190   000AF2  6F00               	movwf	lcd_send_command@_LCD_& (0+255),b
  3191   000AF4  0E00               	movlw	high _lcd1
  3192   000AF6  6F01               	movwf	(lcd_send_command@_LCD_+1)& (0+255),b
  3193   000AF8  0E01               	movlw	1
  3194   000AFA  6F02               	movwf	lcd_send_command@command& (0+255),b
  3195   000AFC  EC52  F01B         	call	_lcd_send_command	;wreg free
  3196   000B00  C100  F0FE         	movff	?_lcd_send_command,_ret
  3197   000B04  C101  F0FF         	movff	?_lcd_send_command+1,_ret+1
  3198                           
  3199                           ;Application.c: 173:             }else{
  3200   000B08  EFF3  F005         	goto	l10407
  3201   000B0C                     l10383:
  3202                           
  3203                           ; BSR set to: 0
  3204                           ;Application.c: 174:                 key_status = '2';
  3205   000B0C  0E32               	movlw	50
  3206   000B0E  6FEA               	movwf	_key_status& (0+255),b
  3207   000B10                     
  3208                           ; BSR set to: 0
  3209                           ;Application.c: 175:                 ret = lcd_send_command(&lcd1 , 0x01);
  3210   000B10  0E5D               	movlw	low _lcd1
  3211   000B12  0101               	movlb	1	; () banked
  3212   000B14  6F00               	movwf	lcd_send_command@_LCD_& (0+255),b
  3213   000B16  0E00               	movlw	high _lcd1
  3214   000B18  6F01               	movwf	(lcd_send_command@_LCD_+1)& (0+255),b
  3215   000B1A  0E01               	movlw	1
  3216   000B1C  6F02               	movwf	lcd_send_command@command& (0+255),b
  3217   000B1E  EC52  F01B         	call	_lcd_send_command	;wreg free
  3218   000B22  C100  F0FE         	movff	?_lcd_send_command,_ret
  3219   000B26  C101  F0FF         	movff	?_lcd_send_command+1,_ret+1
  3220   000B2A                     
  3221                           ;Application.c: 176:                 ret = lcd_send_command(&lcd1 , 0X0C);
  3222   000B2A  0E5D               	movlw	low _lcd1
  3223   000B2C  0101               	movlb	1	; () banked
  3224   000B2E  6F00               	movwf	lcd_send_command@_LCD_& (0+255),b
  3225   000B30  0E00               	movlw	high _lcd1
  3226   000B32  6F01               	movwf	(lcd_send_command@_LCD_+1)& (0+255),b
  3227   000B34  0E0C               	movlw	12
  3228   000B36  6F02               	movwf	lcd_send_command@command& (0+255),b
  3229   000B38  EC52  F01B         	call	_lcd_send_command	;wreg free
  3230   000B3C  C100  F0FE         	movff	?_lcd_send_command,_ret
  3231   000B40  C101  F0FF         	movff	?_lcd_send_command+1,_ret+1
  3232   000B44                     
  3233                           ;Application.c: 177:                 ret = lcd_send_ATpos_string_data(&lcd1 , 1 , 1 , "W
      +                          rong input.");
  3234   000B44  0E5D               	movlw	low _lcd1
  3235   000B46  0101               	movlb	1	; () banked
  3236   000B48  6F0B               	movwf	lcd_send_ATpos_string_data@_LCD_& (0+255),b
  3237   000B4A  0E00               	movlw	high _lcd1
  3238   000B4C  6F0C               	movwf	(lcd_send_ATpos_string_data@_LCD_+1)& (0+255),b
  3239   000B4E  0E01               	movlw	1
  3240   000B50  6F0D               	movwf	lcd_send_ATpos_string_data@row& (0+255),b
  3241   000B52  0E01               	movlw	1
  3242   000B54  6F0E               	movwf	lcd_send_ATpos_string_data@coulmns& (0+255),b
  3243   000B56  0EF0               	movlw	low STR_18
  3244   000B58  6F0F               	movwf	lcd_send_ATpos_string_data@str& (0+255),b
  3245   000B5A  0EFE               	movlw	high STR_18
  3246   000B5C  6F10               	movwf	(lcd_send_ATpos_string_data@str+1)& (0+255),b
  3247   000B5E  ECB8  F01C         	call	_lcd_send_ATpos_string_data	;wreg free
  3248   000B62  C10B  F0FE         	movff	?_lcd_send_ATpos_string_data,_ret
  3249   000B66  C10C  F0FF         	movff	?_lcd_send_ATpos_string_data+1,_ret+1
  3250   000B6A                     
  3251                           ;Application.c: 178:                 ret = lcd_send_ATpos_string_data(&lcd1 , 2 , 1 , "T
      +                          ries left:");
  3252   000B6A  0E5D               	movlw	low _lcd1
  3253   000B6C  0101               	movlb	1	; () banked
  3254   000B6E  6F0B               	movwf	lcd_send_ATpos_string_data@_LCD_& (0+255),b
  3255   000B70  0E00               	movlw	high _lcd1
  3256   000B72  6F0C               	movwf	(lcd_send_ATpos_string_data@_LCD_+1)& (0+255),b
  3257   000B74  0E02               	movlw	2
  3258   000B76  6F0D               	movwf	lcd_send_ATpos_string_data@row& (0+255),b
  3259   000B78  0E01               	movlw	1
  3260   000B7A  6F0E               	movwf	lcd_send_ATpos_string_data@coulmns& (0+255),b
  3261   000B7C  0E3B               	movlw	low STR_19
  3262   000B7E  6F0F               	movwf	lcd_send_ATpos_string_data@str& (0+255),b
  3263   000B80  0EFF               	movlw	high STR_19
  3264   000B82  6F10               	movwf	(lcd_send_ATpos_string_data@str+1)& (0+255),b
  3265   000B84  ECB8  F01C         	call	_lcd_send_ATpos_string_data	;wreg free
  3266   000B88  C10B  F0FE         	movff	?_lcd_send_ATpos_string_data,_ret
  3267   000B8C  C10C  F0FF         	movff	?_lcd_send_ATpos_string_data+1,_ret+1
  3268   000B90                     
  3269                           ;Application.c: 179:                 ret = lcd_send_ATpos_char_data(&lcd1 , 2 , 12 , (Gu
      +                          est_pass_tries -1) +(uint8)'0');
  3270   000B90  0E5D               	movlw	low _lcd1
  3271   000B92  0101               	movlb	1	; () banked
  3272   000B94  6F0B               	movwf	lcd_send_ATpos_char_data@_LCD_& (0+255),b
  3273   000B96  0E00               	movlw	high _lcd1
  3274   000B98  6F0C               	movwf	(lcd_send_ATpos_char_data@_LCD_+1)& (0+255),b
  3275   000B9A  0E02               	movlw	2
  3276   000B9C  6F0D               	movwf	lcd_send_ATpos_char_data@row& (0+255),b
  3277   000B9E  0E0C               	movlw	12
  3278   000BA0  6F0E               	movwf	lcd_send_ATpos_char_data@coulmns& (0+255),b
  3279   000BA2  0100               	movlb	0	; () banked
  3280   000BA4  519E               	movf	_Guest_pass_tries& (0+255),w,b
  3281   000BA6  0F2F               	addlw	47
  3282   000BA8  0101               	movlb	1	; () banked
  3283   000BAA  6F0F               	movwf	lcd_send_ATpos_char_data@data& (0+255),b
  3284   000BAC  ECB0  F01D         	call	_lcd_send_ATpos_char_data	;wreg free
  3285   000BB0  C10B  F0FE         	movff	?_lcd_send_ATpos_char_data,_ret
  3286   000BB4  C10C  F0FF         	movff	?_lcd_send_ATpos_char_data+1,_ret+1
  3287   000BB8                     
  3288                           ;Application.c: 180:                 _delay((unsigned long)((500)*(4000000UL/4000.0)));
  3289   000BB8  0E03               	movlw	3
  3290   000BBA  0101               	movlb	1	; () banked
  3291   000BBC  6F14               	movwf	(??_main+1)& (0+255),b
  3292   000BBE  0E8A               	movlw	138
  3293   000BC0  6F13               	movwf	??_main& (0+255),b
  3294   000BC2  0E55               	movlw	85
  3295   000BC4                     u9867:
  3296   000BC4  2EE8               	decfsz	wreg,f,c
  3297   000BC6  D7FE               	bra	u9867
  3298   000BC8  2F13               	decfsz	??_main& (0+255),f,b
  3299   000BCA  D7FC               	bra	u9867
  3300   000BCC  2F14               	decfsz	(??_main+1)& (0+255),f,b
  3301   000BCE  D7FA               	bra	u9867
  3302   000BD0  D000               	nop2	
  3303   000BD2                     
  3304                           ;Application.c: 182:                 Guest_pass_flag = 0;
  3305   000BD2  0E00               	movlw	0
  3306   000BD4  0100               	movlb	0	; () banked
  3307   000BD6  6FE8               	movwf	_Guest_pass_flag& (0+255),b
  3308   000BD8                     
  3309                           ; BSR set to: 0
  3310                           ;Application.c: 183:                 Guest_Start_address = (uint16)0X106;
  3311   000BD8  0E06               	movlw	6
  3312   000BDA  6FA2               	movwf	_Guest_Start_address& (0+255),b
  3313   000BDC                     
  3314                           ; BSR set to: 0
  3315                           ;Application.c: 184:                 pass_counter = 1;
  3316   000BDC  0E01               	movlw	1
  3317   000BDE  6FA0               	movwf	_pass_counter& (0+255),b
  3318   000BE0                     
  3319                           ; BSR set to: 0
  3320                           ;Application.c: 185:                 cursor =12;
  3321   000BE0  0E0C               	movlw	12
  3322   000BE2  6FA1               	movwf	_cursor& (0+255),b
  3323   000BE4                     
  3324                           ; BSR set to: 0
  3325                           ;Application.c: 186:                 Guest_pass_tries--;
  3326   000BE4  079E               	decf	_Guest_pass_tries& (0+255),f,b
  3327   000BE6                     l10407:
  3328                           
  3329                           ;Application.c: 141:         while('2' == key_status && Guest_pass_tries > 0){
  3330   000BE6  0E32               	movlw	50
  3331   000BE8  0100               	movlb	0	; () banked
  3332   000BEA  19EA               	xorwf	_key_status& (0+255),w,b
  3333   000BEC  A4D8               	btfss	status,2,c
  3334   000BEE  EFFB  F005         	goto	u9191
  3335   000BF2  EFFD  F005         	goto	u9190
  3336   000BF6                     u9191:
  3337   000BF6  EF05  F006         	goto	l10411
  3338   000BFA                     u9190:
  3339   000BFA                     
  3340                           ; BSR set to: 0
  3341   000BFA  519E               	movf	_Guest_pass_tries& (0+255),w,b
  3342   000BFC  A4D8               	btfss	status,2,c
  3343   000BFE  EF03  F006         	goto	u9201
  3344   000C02  EF05  F006         	goto	u9200
  3345   000C06                     u9201:
  3346   000C06  EF66  F004         	goto	l10331
  3347   000C0A                     u9200:
  3348   000C0A                     l10411:
  3349                           
  3350                           ; BSR set to: 0
  3351                           ;Application.c: 192:     ret = Timer0_Intialization(&timer0);
  3352   000C0A  0EAC               	movlw	low _timer0
  3353   000C0C  6FEE               	movwf	Timer0_Intialization@timer0_& (0+255),b
  3354   000C0E  0E00               	movlw	high _timer0
  3355   000C10  6FEF               	movwf	(Timer0_Intialization@timer0_+1)& (0+255),b
  3356   000C12  ECA6  F018         	call	_Timer0_Intialization	;wreg free
  3357   000C16  C0EE  F0FE         	movff	?_Timer0_Intialization,_ret
  3358   000C1A  C0EF  F0FF         	movff	?_Timer0_Intialization+1,_ret+1
  3359   000C1E                     l10413:
  3360                           
  3361                           ;Application.c: 195:     {;Application.c: 197:         if (0 == admin_pass_tries) {
  3362   000C1E  0100               	movlb	0	; () banked
  3363   000C20  519F               	movf	_admin_pass_tries& (0+255),w,b
  3364   000C22  A4D8               	btfss	status,2,c
  3365   000C24  EF16  F006         	goto	u9211
  3366   000C28  EF18  F006         	goto	u9210
  3367   000C2C                     u9211:
  3368   000C2C  EF58  F006         	goto	l10423
  3369   000C30                     u9210:
  3370   000C30                     
  3371                           ; BSR set to: 0
  3372                           ;Application.c: 198:             ret = lcd_send_ATpos_string_data(&lcd1 , 1 , 1 , "loadi
      +                          ng blocked..");
  3373   000C30  0E5D               	movlw	low _lcd1
  3374   000C32  0101               	movlb	1	; () banked
  3375   000C34  6F0B               	movwf	lcd_send_ATpos_string_data@_LCD_& (0+255),b
  3376   000C36  0E00               	movlw	high _lcd1
  3377   000C38  6F0C               	movwf	(lcd_send_ATpos_string_data@_LCD_+1)& (0+255),b
  3378   000C3A  0E01               	movlw	1
  3379   000C3C  6F0D               	movwf	lcd_send_ATpos_string_data@row& (0+255),b
  3380   000C3E  0E01               	movlw	1
  3381   000C40  6F0E               	movwf	lcd_send_ATpos_string_data@coulmns& (0+255),b
  3382   000C42  0E87               	movlw	low STR_25
  3383   000C44  6F0F               	movwf	lcd_send_ATpos_string_data@str& (0+255),b
  3384   000C46  0EFE               	movlw	high STR_25
  3385   000C48  6F10               	movwf	(lcd_send_ATpos_string_data@str+1)& (0+255),b
  3386   000C4A  ECB8  F01C         	call	_lcd_send_ATpos_string_data	;wreg free
  3387   000C4E  C10B  F0FE         	movff	?_lcd_send_ATpos_string_data,_ret
  3388   000C52  C10C  F0FF         	movff	?_lcd_send_ATpos_string_data+1,_ret+1
  3389                           
  3390                           ;Application.c: 199:             ret = lcd_send_ATpos_string_data(&lcd1 , 2 , 1 , "wait 
      +                           10 sec");
  3391   000C56  0E5D               	movlw	low _lcd1
  3392   000C58  0101               	movlb	1	; () banked
  3393   000C5A  6F0B               	movwf	lcd_send_ATpos_string_data@_LCD_& (0+255),b
  3394   000C5C  0E00               	movlw	high _lcd1
  3395   000C5E  6F0C               	movwf	(lcd_send_ATpos_string_data@_LCD_+1)& (0+255),b
  3396   000C60  0E02               	movlw	2
  3397   000C62  6F0D               	movwf	lcd_send_ATpos_string_data@row& (0+255),b
  3398   000C64  0E01               	movlw	1
  3399   000C66  6F0E               	movwf	lcd_send_ATpos_string_data@coulmns& (0+255),b
  3400   000C68  0EFD               	movlw	low STR_26
  3401   000C6A  6F0F               	movwf	lcd_send_ATpos_string_data@str& (0+255),b
  3402   000C6C  0EFE               	movlw	high STR_26
  3403   000C6E  6F10               	movwf	(lcd_send_ATpos_string_data@str+1)& (0+255),b
  3404   000C70  ECB8  F01C         	call	_lcd_send_ATpos_string_data	;wreg free
  3405   000C74  C10B  F0FE         	movff	?_lcd_send_ATpos_string_data,_ret
  3406   000C78  C10C  F0FF         	movff	?_lcd_send_ATpos_string_data+1,_ret+1
  3407   000C7C                     l10417:
  3408                           
  3409                           ;Application.c: 200:             ret = Led_Turn_On(&led_Block);
  3410   000C7C  0E64               	movlw	low _led_Block
  3411   000C7E  0100               	movlb	0	; () banked
  3412   000C80  6FF6               	movwf	Led_Turn_On@Led& (0+255),b
  3413   000C82  0E00               	movlw	high _led_Block
  3414   000C84  6FF7               	movwf	(Led_Turn_On@Led+1)& (0+255),b
  3415   000C86  EC3C  F01A         	call	_Led_Turn_On	;wreg free
  3416   000C8A  C0F6  F0FE         	movff	?_Led_Turn_On,_ret
  3417   000C8E  C0F7  F0FF         	movff	?_Led_Turn_On+1,_ret+1
  3418   000C92                     
  3419                           ;Application.c: 201:             _delay((unsigned long)(((uint32)10000)*(4000000UL/4000.
      +                          0)));
  3420   000C92  0E33               	movlw	51
  3421   000C94  0101               	movlb	1	; () banked
  3422   000C96  6F14               	movwf	(??_main+1)& (0+255),b
  3423   000C98  0EBB               	movlw	187
  3424   000C9A  6F13               	movwf	??_main& (0+255),b
  3425   000C9C  0EDF               	movlw	223
  3426   000C9E                     u9877:
  3427   000C9E  2EE8               	decfsz	wreg,f,c
  3428   000CA0  D7FE               	bra	u9877
  3429   000CA2  2F13               	decfsz	??_main& (0+255),f,b
  3430   000CA4  D7FC               	bra	u9877
  3431   000CA6  2F14               	decfsz	(??_main+1)& (0+255),f,b
  3432   000CA8  D7FA               	bra	u9877
  3433   000CAA  D000               	nop2	
  3434                           
  3435                           ;Application.c: 202:             break;
  3436   000CAC  EF5F  F011         	goto	l1939
  3437   000CB0                     l10423:
  3438                           
  3439                           ; BSR set to: 0
  3440                           ;Application.c: 205:         if (0 == Guest_pass_tries) {
  3441   000CB0  519E               	movf	_Guest_pass_tries& (0+255),w,b
  3442   000CB2  A4D8               	btfss	status,2,c
  3443   000CB4  EF5E  F006         	goto	u9221
  3444   000CB8  EF60  F006         	goto	u9220
  3445   000CBC                     u9221:
  3446   000CBC  EF4A  F011         	goto	l10861
  3447   000CC0                     u9220:
  3448   000CC0                     
  3449                           ; BSR set to: 0
  3450                           ;Application.c: 206:             count_sec_timer_flag = 0;
  3451   000CC0  0E00               	movlw	0
  3452   000CC2  6E49               	movwf	_count_sec_timer_flag^0,c	;volatile
  3453   000CC4                     
  3454                           ; BSR set to: 0
  3455                           ;Application.c: 207:             ret = lcd_send_ATpos_string_data(&lcd1 , 1 , 1 , "loadi
      +                          ng blocked..");
  3456   000CC4  0E5D               	movlw	low _lcd1
  3457   000CC6  0101               	movlb	1	; () banked
  3458   000CC8  6F0B               	movwf	lcd_send_ATpos_string_data@_LCD_& (0+255),b
  3459   000CCA  0E00               	movlw	high _lcd1
  3460   000CCC  6F0C               	movwf	(lcd_send_ATpos_string_data@_LCD_+1)& (0+255),b
  3461   000CCE  0E01               	movlw	1
  3462   000CD0  6F0D               	movwf	lcd_send_ATpos_string_data@row& (0+255),b
  3463   000CD2  0E01               	movlw	1
  3464   000CD4  6F0E               	movwf	lcd_send_ATpos_string_data@coulmns& (0+255),b
  3465   000CD6  0E87               	movlw	low STR_25
  3466   000CD8  6F0F               	movwf	lcd_send_ATpos_string_data@str& (0+255),b
  3467   000CDA  0EFE               	movlw	high STR_25
  3468   000CDC  6F10               	movwf	(lcd_send_ATpos_string_data@str+1)& (0+255),b
  3469   000CDE  ECB8  F01C         	call	_lcd_send_ATpos_string_data	;wreg free
  3470   000CE2  C10B  F0FE         	movff	?_lcd_send_ATpos_string_data,_ret
  3471   000CE6  C10C  F0FF         	movff	?_lcd_send_ATpos_string_data+1,_ret+1
  3472   000CEA                     
  3473                           ;Application.c: 208:             ret = lcd_send_ATpos_string_data(&lcd1 , 2 , 1 , "wait 
      +                           10 sec");
  3474   000CEA  0E5D               	movlw	low _lcd1
  3475   000CEC  0101               	movlb	1	; () banked
  3476   000CEE  6F0B               	movwf	lcd_send_ATpos_string_data@_LCD_& (0+255),b
  3477   000CF0  0E00               	movlw	high _lcd1
  3478   000CF2  6F0C               	movwf	(lcd_send_ATpos_string_data@_LCD_+1)& (0+255),b
  3479   000CF4  0E02               	movlw	2
  3480   000CF6  6F0D               	movwf	lcd_send_ATpos_string_data@row& (0+255),b
  3481   000CF8  0E01               	movlw	1
  3482   000CFA  6F0E               	movwf	lcd_send_ATpos_string_data@coulmns& (0+255),b
  3483   000CFC  0EFD               	movlw	low STR_26
  3484   000CFE  6F0F               	movwf	lcd_send_ATpos_string_data@str& (0+255),b
  3485   000D00  0EFE               	movlw	high STR_26
  3486   000D02  6F10               	movwf	(lcd_send_ATpos_string_data@str+1)& (0+255),b
  3487   000D04  ECB8  F01C         	call	_lcd_send_ATpos_string_data	;wreg free
  3488   000D08  C10B  F0FE         	movff	?_lcd_send_ATpos_string_data,_ret
  3489   000D0C  C10C  F0FF         	movff	?_lcd_send_ATpos_string_data+1,_ret+1
  3490   000D10  EF3E  F006         	goto	l10417
  3491   000D14                     l10437:
  3492                           
  3493                           ; BSR set to: 0
  3494                           ;Application.c: 215:             if((uint8)4 == Guest_pass_flag){
  3495   000D14  0E04               	movlw	4
  3496   000D16  19E8               	xorwf	_Guest_pass_flag& (0+255),w,b
  3497   000D18  A4D8               	btfss	status,2,c
  3498   000D1A  EF91  F006         	goto	u9231
  3499   000D1E  EF93  F006         	goto	u9230
  3500   000D22                     u9231:
  3501   000D22  EFA8  F006         	goto	l10441
  3502   000D26                     u9230:
  3503   000D26                     
  3504                           ; BSR set to: 0
  3505                           ;Application.c: 216:                 ret = lcd_send_ATpos_string_data(&lcd1 , 1 , 1 , "G
      +                          uest Mode:-");
  3506   000D26  0E5D               	movlw	low _lcd1
  3507   000D28  0101               	movlb	1	; () banked
  3508   000D2A  6F0B               	movwf	lcd_send_ATpos_string_data@_LCD_& (0+255),b
  3509   000D2C  0E00               	movlw	high _lcd1
  3510   000D2E  6F0C               	movwf	(lcd_send_ATpos_string_data@_LCD_+1)& (0+255),b
  3511   000D30  0E01               	movlw	1
  3512   000D32  6F0D               	movwf	lcd_send_ATpos_string_data@row& (0+255),b
  3513   000D34  0E01               	movlw	1
  3514   000D36  6F0E               	movwf	lcd_send_ATpos_string_data@coulmns& (0+255),b
  3515   000D38  0EE3               	movlw	low STR_20
  3516   000D3A  6F0F               	movwf	lcd_send_ATpos_string_data@str& (0+255),b
  3517   000D3C  0EFE               	movlw	high STR_20
  3518   000D3E  6F10               	movwf	(lcd_send_ATpos_string_data@str+1)& (0+255),b
  3519   000D40  ECB8  F01C         	call	_lcd_send_ATpos_string_data	;wreg free
  3520   000D44  C10B  F0FE         	movff	?_lcd_send_ATpos_string_data,_ret
  3521   000D48  C10C  F0FF         	movff	?_lcd_send_ATpos_string_data+1,_ret+1
  3522                           
  3523                           ;Application.c: 217:             }else if((uint8)4 == Admin_pass_flag){
  3524   000D4C  EFD1  F006         	goto	l10447
  3525   000D50                     l10441:
  3526                           
  3527                           ; BSR set to: 0
  3528   000D50  0E04               	movlw	4
  3529   000D52  19E9               	xorwf	_Admin_pass_flag& (0+255),w,b
  3530   000D54  A4D8               	btfss	status,2,c
  3531   000D56  EFAF  F006         	goto	u9241
  3532   000D5A  EFB1  F006         	goto	u9240
  3533   000D5E                     u9241:
  3534   000D5E  EFD1  F006         	goto	l10447
  3535   000D62                     u9240:
  3536   000D62                     
  3537                           ; BSR set to: 0
  3538                           ;Application.c: 218:                 ret = lcd_send_command(&lcd1 , 0x01);
  3539   000D62  0E5D               	movlw	low _lcd1
  3540   000D64  0101               	movlb	1	; () banked
  3541   000D66  6F00               	movwf	lcd_send_command@_LCD_& (0+255),b
  3542   000D68  0E00               	movlw	high _lcd1
  3543   000D6A  6F01               	movwf	(lcd_send_command@_LCD_+1)& (0+255),b
  3544   000D6C  0E01               	movlw	1
  3545   000D6E  6F02               	movwf	lcd_send_command@command& (0+255),b
  3546   000D70  EC52  F01B         	call	_lcd_send_command	;wreg free
  3547   000D74  C100  F0FE         	movff	?_lcd_send_command,_ret
  3548   000D78  C101  F0FF         	movff	?_lcd_send_command+1,_ret+1
  3549   000D7C                     
  3550                           ;Application.c: 219:                 ret = lcd_send_ATpos_string_data(&lcd1 , 1 , 1 , "A
      +                          dmin Mode:-");
  3551   000D7C  0E5D               	movlw	low _lcd1
  3552   000D7E  0101               	movlb	1	; () banked
  3553   000D80  6F0B               	movwf	lcd_send_ATpos_string_data@_LCD_& (0+255),b
  3554   000D82  0E00               	movlw	high _lcd1
  3555   000D84  6F0C               	movwf	(lcd_send_ATpos_string_data@_LCD_+1)& (0+255),b
  3556   000D86  0E01               	movlw	1
  3557   000D88  6F0D               	movwf	lcd_send_ATpos_string_data@row& (0+255),b
  3558   000D8A  0E01               	movlw	1
  3559   000D8C  6F0E               	movwf	lcd_send_ATpos_string_data@coulmns& (0+255),b
  3560   000D8E  0ED6               	movlw	low STR_15
  3561   000D90  6F0F               	movwf	lcd_send_ATpos_string_data@str& (0+255),b
  3562   000D92  0EFE               	movlw	high STR_15
  3563   000D94  6F10               	movwf	(lcd_send_ATpos_string_data@str+1)& (0+255),b
  3564   000D96  ECB8  F01C         	call	_lcd_send_ATpos_string_data	;wreg free
  3565   000D9A  C10B  F0FE         	movff	?_lcd_send_ATpos_string_data,_ret
  3566   000D9E  C10C  F0FF         	movff	?_lcd_send_ATpos_string_data+1,_ret+1
  3567   000DA2                     l10447:
  3568                           
  3569                           ;Application.c: 222:             ret = lcd_send_ATpos_string_data(&lcd1 , 2 , 1 , "1:Roo
      +                          m1");
  3570   000DA2  0E5D               	movlw	low _lcd1
  3571   000DA4  0101               	movlb	1	; () banked
  3572   000DA6  6F0B               	movwf	lcd_send_ATpos_string_data@_LCD_& (0+255),b
  3573   000DA8  0E00               	movlw	high _lcd1
  3574   000DAA  6F0C               	movwf	(lcd_send_ATpos_string_data@_LCD_+1)& (0+255),b
  3575   000DAC  0E02               	movlw	2
  3576   000DAE  6F0D               	movwf	lcd_send_ATpos_string_data@row& (0+255),b
  3577   000DB0  0E01               	movlw	1
  3578   000DB2  6F0E               	movwf	lcd_send_ATpos_string_data@coulmns& (0+255),b
  3579   000DB4  0EA4               	movlw	low STR_31
  3580   000DB6  6F0F               	movwf	lcd_send_ATpos_string_data@str& (0+255),b
  3581   000DB8  0EFF               	movlw	high STR_31
  3582   000DBA  6F10               	movwf	(lcd_send_ATpos_string_data@str+1)& (0+255),b
  3583   000DBC  ECB8  F01C         	call	_lcd_send_ATpos_string_data	;wreg free
  3584   000DC0  C10B  F0FE         	movff	?_lcd_send_ATpos_string_data,_ret
  3585   000DC4  C10C  F0FF         	movff	?_lcd_send_ATpos_string_data+1,_ret+1
  3586                           
  3587                           ;Application.c: 223:             ret = lcd_send_ATpos_string_data(&lcd1 , 2 , 11 , "2:Ro
      +                          om2");
  3588   000DC8  0E5D               	movlw	low _lcd1
  3589   000DCA  0101               	movlb	1	; () banked
  3590   000DCC  6F0B               	movwf	lcd_send_ATpos_string_data@_LCD_& (0+255),b
  3591   000DCE  0E00               	movlw	high _lcd1
  3592   000DD0  6F0C               	movwf	(lcd_send_ATpos_string_data@_LCD_+1)& (0+255),b
  3593   000DD2  0E02               	movlw	2
  3594   000DD4  6F0D               	movwf	lcd_send_ATpos_string_data@row& (0+255),b
  3595   000DD6  0E0B               	movlw	11
  3596   000DD8  6F0E               	movwf	lcd_send_ATpos_string_data@coulmns& (0+255),b
  3597   000DDA  0EAC               	movlw	low STR_32
  3598   000DDC  6F0F               	movwf	lcd_send_ATpos_string_data@str& (0+255),b
  3599   000DDE  0EFF               	movlw	high STR_32
  3600   000DE0  6F10               	movwf	(lcd_send_ATpos_string_data@str+1)& (0+255),b
  3601   000DE2  ECB8  F01C         	call	_lcd_send_ATpos_string_data	;wreg free
  3602   000DE6  C10B  F0FE         	movff	?_lcd_send_ATpos_string_data,_ret
  3603   000DEA  C10C  F0FF         	movff	?_lcd_send_ATpos_string_data+1,_ret+1
  3604                           
  3605                           ;Application.c: 224:             ret = lcd_send_ATpos_string_data(&lcd1 , 3 , 1 , "3:Roo
      +                          m3");
  3606   000DEE  0E5D               	movlw	low _lcd1
  3607   000DF0  0101               	movlb	1	; () banked
  3608   000DF2  6F0B               	movwf	lcd_send_ATpos_string_data@_LCD_& (0+255),b
  3609   000DF4  0E00               	movlw	high _lcd1
  3610   000DF6  6F0C               	movwf	(lcd_send_ATpos_string_data@_LCD_+1)& (0+255),b
  3611   000DF8  0E03               	movlw	3
  3612   000DFA  6F0D               	movwf	lcd_send_ATpos_string_data@row& (0+255),b
  3613   000DFC  0E01               	movlw	1
  3614   000DFE  6F0E               	movwf	lcd_send_ATpos_string_data@coulmns& (0+255),b
  3615   000E00  0EB4               	movlw	low STR_33
  3616   000E02  6F0F               	movwf	lcd_send_ATpos_string_data@str& (0+255),b
  3617   000E04  0EFF               	movlw	high STR_33
  3618   000E06  6F10               	movwf	(lcd_send_ATpos_string_data@str+1)& (0+255),b
  3619   000E08  ECB8  F01C         	call	_lcd_send_ATpos_string_data	;wreg free
  3620   000E0C  C10B  F0FE         	movff	?_lcd_send_ATpos_string_data,_ret
  3621   000E10  C10C  F0FF         	movff	?_lcd_send_ATpos_string_data+1,_ret+1
  3622   000E14                     
  3623                           ;Application.c: 225:             if((uint8)4 == Guest_pass_flag){
  3624   000E14  0E04               	movlw	4
  3625   000E16  0100               	movlb	0	; () banked
  3626   000E18  19E8               	xorwf	_Guest_pass_flag& (0+255),w,b
  3627   000E1A  A4D8               	btfss	status,2,c
  3628   000E1C  EF12  F007         	goto	u9251
  3629   000E20  EF14  F007         	goto	u9250
  3630   000E24                     u9251:
  3631   000E24  EF34  F007         	goto	l10455
  3632   000E28                     u9250:
  3633   000E28                     
  3634                           ; BSR set to: 0
  3635                           ;Application.c: 226:                 ret = lcd_send_ATpos_string_data(&lcd1 , 3 , 11 , "
      +                          4:Room4");
  3636   000E28  0E5D               	movlw	low _lcd1
  3637   000E2A  0101               	movlb	1	; () banked
  3638   000E2C  6F0B               	movwf	lcd_send_ATpos_string_data@_LCD_& (0+255),b
  3639   000E2E  0E00               	movlw	high _lcd1
  3640   000E30  6F0C               	movwf	(lcd_send_ATpos_string_data@_LCD_+1)& (0+255),b
  3641   000E32  0E03               	movlw	3
  3642   000E34  6F0D               	movwf	lcd_send_ATpos_string_data@row& (0+255),b
  3643   000E36  0E0B               	movlw	11
  3644   000E38  6F0E               	movwf	lcd_send_ATpos_string_data@coulmns& (0+255),b
  3645   000E3A  0EC4               	movlw	low STR_34
  3646   000E3C  6F0F               	movwf	lcd_send_ATpos_string_data@str& (0+255),b
  3647   000E3E  0EFF               	movlw	high STR_34
  3648   000E40  6F10               	movwf	(lcd_send_ATpos_string_data@str+1)& (0+255),b
  3649   000E42  ECB8  F01C         	call	_lcd_send_ATpos_string_data	;wreg free
  3650   000E46  C10B  F0FE         	movff	?_lcd_send_ATpos_string_data,_ret
  3651   000E4A  C10C  F0FF         	movff	?_lcd_send_ATpos_string_data+1,_ret+1
  3652   000E4E                     
  3653                           ;Application.c: 227:                 ret = Led_Turn_On(&led_Guest);
  3654   000E4E  0E63               	movlw	low _led_Guest
  3655   000E50  0100               	movlb	0	; () banked
  3656   000E52  6FF6               	movwf	Led_Turn_On@Led& (0+255),b
  3657   000E54  0E00               	movlw	high _led_Guest
  3658   000E56  6FF7               	movwf	(Led_Turn_On@Led+1)& (0+255),b
  3659   000E58  EC3C  F01A         	call	_Led_Turn_On	;wreg free
  3660   000E5C  C0F6  F0FE         	movff	?_Led_Turn_On,_ret
  3661   000E60  C0F7  F0FF         	movff	?_Led_Turn_On+1,_ret+1
  3662                           
  3663                           ;Application.c: 228:             }else if((uint8)4 == Admin_pass_flag){
  3664   000E64  EF5B  F007         	goto	l10461
  3665   000E68                     l10455:
  3666                           
  3667                           ; BSR set to: 0
  3668   000E68  0E04               	movlw	4
  3669   000E6A  19E9               	xorwf	_Admin_pass_flag& (0+255),w,b
  3670   000E6C  A4D8               	btfss	status,2,c
  3671   000E6E  EF3B  F007         	goto	u9261
  3672   000E72  EF3D  F007         	goto	u9260
  3673   000E76                     u9261:
  3674   000E76  EF5B  F007         	goto	l10461
  3675   000E7A                     u9260:
  3676   000E7A                     
  3677                           ; BSR set to: 0
  3678                           ;Application.c: 229:                 ret = lcd_send_ATpos_string_data(&lcd1 , 3 , 11 , "
      +                          4:More");
  3679   000E7A  0E5D               	movlw	low _lcd1
  3680   000E7C  0101               	movlb	1	; () banked
  3681   000E7E  6F0B               	movwf	lcd_send_ATpos_string_data@_LCD_& (0+255),b
  3682   000E80  0E00               	movlw	high _lcd1
  3683   000E82  6F0C               	movwf	(lcd_send_ATpos_string_data@_LCD_+1)& (0+255),b
  3684   000E84  0E03               	movlw	3
  3685   000E86  6F0D               	movwf	lcd_send_ATpos_string_data@row& (0+255),b
  3686   000E88  0E0B               	movlw	11
  3687   000E8A  6F0E               	movwf	lcd_send_ATpos_string_data@coulmns& (0+255),b
  3688   000E8C  0EDC               	movlw	low STR_35
  3689   000E8E  6F0F               	movwf	lcd_send_ATpos_string_data@str& (0+255),b
  3690   000E90  0EFF               	movlw	high STR_35
  3691   000E92  6F10               	movwf	(lcd_send_ATpos_string_data@str+1)& (0+255),b
  3692   000E94  ECB8  F01C         	call	_lcd_send_ATpos_string_data	;wreg free
  3693   000E98  C10B  F0FE         	movff	?_lcd_send_ATpos_string_data,_ret
  3694   000E9C  C10C  F0FF         	movff	?_lcd_send_ATpos_string_data+1,_ret+1
  3695   000EA0                     
  3696                           ;Application.c: 230:                 ret = Led_Turn_On(&led_Admin);
  3697   000EA0  0E51               	movlw	low _led_Admin
  3698   000EA2  0100               	movlb	0	; () banked
  3699   000EA4  6FF6               	movwf	Led_Turn_On@Led& (0+255),b
  3700   000EA6  0E00               	movlw	high _led_Admin
  3701   000EA8  6FF7               	movwf	(Led_Turn_On@Led+1)& (0+255),b
  3702   000EAA  EC3C  F01A         	call	_Led_Turn_On	;wreg free
  3703   000EAE  C0F6  F0FE         	movff	?_Led_Turn_On,_ret
  3704   000EB2  C0F7  F0FF         	movff	?_Led_Turn_On+1,_ret+1
  3705   000EB6                     l10461:
  3706                           
  3707                           ;Application.c: 235:             key_status = 0;
  3708   000EB6  0E00               	movlw	0
  3709   000EB8  0100               	movlb	0	; () banked
  3710   000EBA  6FEA               	movwf	_key_status& (0+255),b
  3711   000EBC                     l10463:
  3712                           
  3713                           ; BSR set to: 0
  3714                           ;Application.c: 237:                 ret = Key_Pad_Get_Value(&key_pad1, &key_status);
  3715   000EBC  0EA4               	movlw	low _key_pad1
  3716   000EBE  6FF7               	movwf	Key_Pad_Get_Value@_key_pad& (0+255),b
  3717   000EC0  0E00               	movlw	high _key_pad1
  3718   000EC2  6FF8               	movwf	(Key_Pad_Get_Value@_key_pad+1)& (0+255),b
  3719   000EC4  0EEA               	movlw	low _key_status
  3720   000EC6  6FF9               	movwf	Key_Pad_Get_Value@value& (0+255),b
  3721   000EC8  0E00               	movlw	high _key_status
  3722   000ECA  6FFA               	movwf	(Key_Pad_Get_Value@value+1)& (0+255),b
  3723   000ECC  ECEB  F016         	call	_Key_Pad_Get_Value	;wreg free
  3724   000ED0  C0F7  F0FE         	movff	?_Key_Pad_Get_Value,_ret
  3725   000ED4  C0F8  F0FF         	movff	?_Key_Pad_Get_Value+1,_ret+1
  3726   000ED8                     
  3727                           ;Application.c: 238:             } while (0 == key_status);
  3728   000ED8  0100               	movlb	0	; () banked
  3729   000EDA  51EA               	movf	_key_status& (0+255),w,b
  3730   000EDC  B4D8               	btfsc	status,2,c
  3731   000EDE  EF73  F007         	goto	u9271
  3732   000EE2  EF75  F007         	goto	u9270
  3733   000EE6                     u9271:
  3734   000EE6  EF5E  F007         	goto	l10463
  3735   000EEA                     u9270:
  3736   000EEA                     
  3737                           ; BSR set to: 0
  3738                           ;Application.c: 239:             _delay((unsigned long)((300)*(4000000UL/4000.0)));
  3739   000EEA  0E02               	movlw	2
  3740   000EEC  0101               	movlb	1	; () banked
  3741   000EEE  6F14               	movwf	(??_main+1)& (0+255),b
  3742   000EF0  0E86               	movlw	134
  3743   000EF2  6F13               	movwf	??_main& (0+255),b
  3744   000EF4  0E99               	movlw	153
  3745   000EF6                     u9887:
  3746   000EF6  2EE8               	decfsz	wreg,f,c
  3747   000EF8  D7FE               	bra	u9887
  3748   000EFA  2F13               	decfsz	??_main& (0+255),f,b
  3749   000EFC  D7FC               	bra	u9887
  3750   000EFE  2F14               	decfsz	(??_main+1)& (0+255),f,b
  3751   000F00  D7FA               	bra	u9887
  3752                           
  3753                           ;Application.c: 241:             while('1' != key_status &&'2' != key_status &&'3' != ke
      +                          y_status &&'4' != key_status ){
  3754   000F02  EFB2  F007         	goto	l10475
  3755   000F06                     l10469:
  3756                           
  3757                           ; BSR set to: 0
  3758                           ;Application.c: 242:                 ret = lcd_send_command(&lcd1 , 0x01);
  3759   000F06  0E5D               	movlw	low _lcd1
  3760   000F08  0101               	movlb	1	; () banked
  3761   000F0A  6F00               	movwf	lcd_send_command@_LCD_& (0+255),b
  3762   000F0C  0E00               	movlw	high _lcd1
  3763   000F0E  6F01               	movwf	(lcd_send_command@_LCD_+1)& (0+255),b
  3764   000F10  0E01               	movlw	1
  3765   000F12  6F02               	movwf	lcd_send_command@command& (0+255),b
  3766   000F14  EC52  F01B         	call	_lcd_send_command	;wreg free
  3767   000F18  C100  F0FE         	movff	?_lcd_send_command,_ret
  3768   000F1C  C101  F0FF         	movff	?_lcd_send_command+1,_ret+1
  3769   000F20                     
  3770                           ;Application.c: 243:                     ret = lcd_send_ATpos_string_data(&lcd1 , 1 , 1 
      +                          , "Wrong choice");
  3771   000F20  0E5D               	movlw	low _lcd1
  3772   000F22  0101               	movlb	1	; () banked
  3773   000F24  6F0B               	movwf	lcd_send_ATpos_string_data@_LCD_& (0+255),b
  3774   000F26  0E00               	movlw	high _lcd1
  3775   000F28  6F0C               	movwf	(lcd_send_ATpos_string_data@_LCD_+1)& (0+255),b
  3776   000F2A  0E01               	movlw	1
  3777   000F2C  6F0D               	movwf	lcd_send_ATpos_string_data@row& (0+255),b
  3778   000F2E  0E01               	movlw	1
  3779   000F30  6F0E               	movwf	lcd_send_ATpos_string_data@coulmns& (0+255),b
  3780   000F32  0E0A               	movlw	low STR_36
  3781   000F34  6F0F               	movwf	lcd_send_ATpos_string_data@str& (0+255),b
  3782   000F36  0EFF               	movlw	high STR_36
  3783   000F38  6F10               	movwf	(lcd_send_ATpos_string_data@str+1)& (0+255),b
  3784   000F3A  ECB8  F01C         	call	_lcd_send_ATpos_string_data	;wreg free
  3785   000F3E  C10B  F0FE         	movff	?_lcd_send_ATpos_string_data,_ret
  3786   000F42  C10C  F0FF         	movff	?_lcd_send_ATpos_string_data+1,_ret+1
  3787   000F46                     l10473:
  3788                           
  3789                           ;Application.c: 244:                     _delay((unsigned long)((500)*(4000000UL/4000.0)
      +                          ));
  3790   000F46  0E03               	movlw	3
  3791   000F48  0101               	movlb	1	; () banked
  3792   000F4A  6F14               	movwf	(??_main+1)& (0+255),b
  3793   000F4C  0E8A               	movlw	138
  3794   000F4E  6F13               	movwf	??_main& (0+255),b
  3795   000F50  0E55               	movlw	85
  3796   000F52                     u9897:
  3797   000F52  2EE8               	decfsz	wreg,f,c
  3798   000F54  D7FE               	bra	u9897
  3799   000F56  2F13               	decfsz	??_main& (0+255),f,b
  3800   000F58  D7FC               	bra	u9897
  3801   000F5A  2F14               	decfsz	(??_main+1)& (0+255),f,b
  3802   000F5C  D7FA               	bra	u9897
  3803   000F5E  D000               	nop2	
  3804                           
  3805                           ;Application.c: 245:                     break;
  3806   000F60  EF27  F009         	goto	l10535
  3807   000F64                     l10475:
  3808                           
  3809                           ;Application.c: 241:             while('1' != key_status &&'2' != key_status &&'3' != ke
      +                          y_status &&'4' != key_status ){
  3810   000F64  0E31               	movlw	49
  3811   000F66  0100               	movlb	0	; () banked
  3812   000F68  19EA               	xorwf	_key_status& (0+255),w,b
  3813   000F6A  B4D8               	btfsc	status,2,c
  3814   000F6C  EFBA  F007         	goto	u9281
  3815   000F70  EFBC  F007         	goto	u9280
  3816   000F74                     u9281:
  3817   000F74  EF27  F009         	goto	l10535
  3818   000F78                     u9280:
  3819   000F78                     
  3820                           ; BSR set to: 0
  3821   000F78  0E32               	movlw	50
  3822   000F7A  19EA               	xorwf	_key_status& (0+255),w,b
  3823   000F7C  B4D8               	btfsc	status,2,c
  3824   000F7E  EFC3  F007         	goto	u9291
  3825   000F82  EFC5  F007         	goto	u9290
  3826   000F86                     u9291:
  3827   000F86  EF27  F009         	goto	l10535
  3828   000F8A                     u9290:
  3829   000F8A                     
  3830                           ; BSR set to: 0
  3831   000F8A  0E33               	movlw	51
  3832   000F8C  19EA               	xorwf	_key_status& (0+255),w,b
  3833   000F8E  B4D8               	btfsc	status,2,c
  3834   000F90  EFCC  F007         	goto	u9301
  3835   000F94  EFCE  F007         	goto	u9300
  3836   000F98                     u9301:
  3837   000F98  EF27  F009         	goto	l10535
  3838   000F9C                     u9300:
  3839   000F9C                     
  3840                           ; BSR set to: 0
  3841   000F9C  0E34               	movlw	52
  3842   000F9E  19EA               	xorwf	_key_status& (0+255),w,b
  3843   000FA0  A4D8               	btfss	status,2,c
  3844   000FA2  EFD5  F007         	goto	u9311
  3845   000FA6  EFD7  F007         	goto	u9310
  3846   000FAA                     u9311:
  3847   000FAA  EF83  F007         	goto	l10469
  3848   000FAE                     u9310:
  3849   000FAE  EF27  F009         	goto	l10535
  3850   000FB2                     l10483:
  3851                           
  3852                           ; BSR set to: 0
  3853                           ;Application.c: 249:                 ret = lcd_send_command(&lcd1 , 0x01);
  3854   000FB2  0E5D               	movlw	low _lcd1
  3855   000FB4  0101               	movlb	1	; () banked
  3856   000FB6  6F00               	movwf	lcd_send_command@_LCD_& (0+255),b
  3857   000FB8  0E00               	movlw	high _lcd1
  3858   000FBA  6F01               	movwf	(lcd_send_command@_LCD_+1)& (0+255),b
  3859   000FBC  0E01               	movlw	1
  3860   000FBE  6F02               	movwf	lcd_send_command@command& (0+255),b
  3861   000FC0  EC52  F01B         	call	_lcd_send_command	;wreg free
  3862   000FC4  C100  F0FE         	movff	?_lcd_send_command,_ret
  3863   000FC8  C101  F0FF         	movff	?_lcd_send_command+1,_ret+1
  3864   000FCC                     
  3865                           ;Application.c: 252:                 ret = lcd_send_ATpos_string_data(&lcd1 , 1 , 1 , "R
      +                          oom1 S:");
  3866   000FCC  0E5D               	movlw	low _lcd1
  3867   000FCE  0101               	movlb	1	; () banked
  3868   000FD0  6F0B               	movwf	lcd_send_ATpos_string_data@_LCD_& (0+255),b
  3869   000FD2  0E00               	movlw	high _lcd1
  3870   000FD4  6F0C               	movwf	(lcd_send_ATpos_string_data@_LCD_+1)& (0+255),b
  3871   000FD6  0E01               	movlw	1
  3872   000FD8  6F0D               	movwf	lcd_send_ATpos_string_data@row& (0+255),b
  3873   000FDA  0E01               	movlw	1
  3874   000FDC  6F0E               	movwf	lcd_send_ATpos_string_data@coulmns& (0+255),b
  3875   000FDE  0E5C               	movlw	low STR_37
  3876   000FE0  6F0F               	movwf	lcd_send_ATpos_string_data@str& (0+255),b
  3877   000FE2  0EFF               	movlw	high STR_37
  3878   000FE4  6F10               	movwf	(lcd_send_ATpos_string_data@str+1)& (0+255),b
  3879   000FE6  ECB8  F01C         	call	_lcd_send_ATpos_string_data	;wreg free
  3880   000FEA  C10B  F0FE         	movff	?_lcd_send_ATpos_string_data,_ret
  3881   000FEE  C10C  F0FF         	movff	?_lcd_send_ATpos_string_data+1,_ret+1
  3882                           
  3883                           ;Application.c: 254:                 switch(spi_slave_reader)
  3884   000FF2  EF23  F008         	goto	l10493
  3885   000FF6                     l10487:
  3886                           
  3887                           ; BSR set to: 1
  3888   000FF6  0E5D               	movlw	low _lcd1
  3889   000FF8  6F0B               	movwf	lcd_send_ATpos_string_data@_LCD_& (0+255),b
  3890   000FFA  0E00               	movlw	high _lcd1
  3891   000FFC  6F0C               	movwf	(lcd_send_ATpos_string_data@_LCD_+1)& (0+255),b
  3892   000FFE  0E01               	movlw	1
  3893   001000  6F0D               	movwf	lcd_send_ATpos_string_data@row& (0+255),b
  3894   001002  0E09               	movlw	9
  3895   001004  6F0E               	movwf	lcd_send_ATpos_string_data@coulmns& (0+255),b
  3896   001006  0EF4               	movlw	low STR_38
  3897   001008  6F0F               	movwf	lcd_send_ATpos_string_data@str& (0+255),b
  3898   00100A  0EFF               	movlw	high STR_38
  3899   00100C  6F10               	movwf	(lcd_send_ATpos_string_data@str+1)& (0+255),b
  3900   00100E  ECB8  F01C         	call	_lcd_send_ATpos_string_data	;wreg free
  3901   001012  C10B  F0FE         	movff	?_lcd_send_ATpos_string_data,_ret
  3902   001016  C10C  F0FF         	movff	?_lcd_send_ATpos_string_data+1,_ret+1
  3903   00101A  EF3A  F008         	goto	l10495
  3904   00101E                     l10489:
  3905                           
  3906                           ; BSR set to: 1
  3907   00101E  0E5D               	movlw	low _lcd1
  3908   001020  6F0B               	movwf	lcd_send_ATpos_string_data@_LCD_& (0+255),b
  3909   001022  0E00               	movlw	high _lcd1
  3910   001024  6F0C               	movwf	(lcd_send_ATpos_string_data@_LCD_+1)& (0+255),b
  3911   001026  0E01               	movlw	1
  3912   001028  6F0D               	movwf	lcd_send_ATpos_string_data@row& (0+255),b
  3913   00102A  0E09               	movlw	9
  3914   00102C  6F0E               	movwf	lcd_send_ATpos_string_data@coulmns& (0+255),b
  3915   00102E  0EF8               	movlw	low STR_39
  3916   001030  6F0F               	movwf	lcd_send_ATpos_string_data@str& (0+255),b
  3917   001032  0EFF               	movlw	high STR_39
  3918   001034  6F10               	movwf	(lcd_send_ATpos_string_data@str+1)& (0+255),b
  3919   001036  ECB8  F01C         	call	_lcd_send_ATpos_string_data	;wreg free
  3920   00103A  C10B  F0FE         	movff	?_lcd_send_ATpos_string_data,_ret
  3921   00103E  C10C  F0FF         	movff	?_lcd_send_ATpos_string_data+1,_ret+1
  3922   001042  EF3A  F008         	goto	l10495
  3923   001046                     l10493:
  3924   001046  0100               	movlb	0	; () banked
  3925   001048  51E7               	movf	_spi_slave_reader& (0+255),w,b	;volatile
  3926   00104A  0101               	movlb	1	; () banked
  3927   00104C  6F13               	movwf	??_main& (0+255),b
  3928   00104E  6B14               	clrf	(??_main+1)& (0+255),b
  3929                           
  3930                           ; Switch on 2 bytes has been partitioned into a top level switch of size 1, and 1 sub-sw
      +                          itches
  3931                           ; Switch size 1, requested type "simple"
  3932                           ; Number of cases is 1, Range of values is 0 to 0
  3933                           ; switch strategies available:
  3934                           ; Name         Instructions Cycles
  3935                           ; simple_byte            4     3 (average)
  3936                           ;	Chosen strategy is simple_byte
  3937   001050  5114               	movf	(??_main+1)& (0+255),w,b
  3938   001052  0A00               	xorlw	0	; case 0
  3939   001054  B4D8               	btfsc	status,2,c
  3940   001056  EF2F  F008         	goto	l11407
  3941   00105A  EF3A  F008         	goto	l10495
  3942   00105E                     l11407:
  3943                           
  3944                           ; BSR set to: 1
  3945                           ; Switch size 1, requested type "simple"
  3946                           ; Number of cases is 2, Range of values is 0 to 1
  3947                           ; switch strategies available:
  3948                           ; Name         Instructions Cycles
  3949                           ; simple_byte            7     4 (average)
  3950                           ;	Chosen strategy is simple_byte
  3951   00105E  5113               	movf	??_main& (0+255),w,b
  3952   001060  0A00               	xorlw	0	; case 0
  3953   001062  B4D8               	btfsc	status,2,c
  3954   001064  EF0F  F008         	goto	l10489
  3955   001068  0A01               	xorlw	1	; case 1
  3956   00106A  B4D8               	btfsc	status,2,c
  3957   00106C  EFFB  F007         	goto	l10487
  3958   001070  EF3A  F008         	goto	l10495
  3959   001074                     l10495:
  3960                           
  3961                           ;Application.c: 259:                 ret = lcd_send_ATpos_string_data(&lcd1 , 2 , 1 , "1
      +                          :led on");
  3962   001074  0E5D               	movlw	low _lcd1
  3963   001076  0101               	movlb	1	; () banked
  3964   001078  6F0B               	movwf	lcd_send_ATpos_string_data@_LCD_& (0+255),b
  3965   00107A  0E00               	movlw	high _lcd1
  3966   00107C  6F0C               	movwf	(lcd_send_ATpos_string_data@_LCD_+1)& (0+255),b
  3967   00107E  0E02               	movlw	2
  3968   001080  6F0D               	movwf	lcd_send_ATpos_string_data@row& (0+255),b
  3969   001082  0E01               	movlw	1
  3970   001084  6F0E               	movwf	lcd_send_ATpos_string_data@coulmns& (0+255),b
  3971   001086  0E92               	movlw	low STR_40
  3972   001088  6F0F               	movwf	lcd_send_ATpos_string_data@str& (0+255),b
  3973   00108A  0EFF               	movlw	high STR_40
  3974   00108C  6F10               	movwf	(lcd_send_ATpos_string_data@str+1)& (0+255),b
  3975   00108E  ECB8  F01C         	call	_lcd_send_ATpos_string_data	;wreg free
  3976   001092  C10B  F0FE         	movff	?_lcd_send_ATpos_string_data,_ret
  3977   001096  C10C  F0FF         	movff	?_lcd_send_ATpos_string_data+1,_ret+1
  3978                           
  3979                           ;Application.c: 260:                 ret = lcd_send_ATpos_string_data(&lcd1 , 3 , 1 , "2
      +                          :led off");
  3980   00109A  0E5D               	movlw	low _lcd1
  3981   00109C  0101               	movlb	1	; () banked
  3982   00109E  6F0B               	movwf	lcd_send_ATpos_string_data@_LCD_& (0+255),b
  3983   0010A0  0E00               	movlw	high _lcd1
  3984   0010A2  6F0C               	movwf	(lcd_send_ATpos_string_data@_LCD_+1)& (0+255),b
  3985   0010A4  0E03               	movlw	3
  3986   0010A6  6F0D               	movwf	lcd_send_ATpos_string_data@row& (0+255),b
  3987   0010A8  0E01               	movlw	1
  3988   0010AA  6F0E               	movwf	lcd_send_ATpos_string_data@coulmns& (0+255),b
  3989   0010AC  0E52               	movlw	low STR_41
  3990   0010AE  6F0F               	movwf	lcd_send_ATpos_string_data@str& (0+255),b
  3991   0010B0  0EFF               	movlw	high STR_41
  3992   0010B2  6F10               	movwf	(lcd_send_ATpos_string_data@str+1)& (0+255),b
  3993   0010B4  ECB8  F01C         	call	_lcd_send_ATpos_string_data	;wreg free
  3994   0010B8  C10B  F0FE         	movff	?_lcd_send_ATpos_string_data,_ret
  3995   0010BC  C10C  F0FF         	movff	?_lcd_send_ATpos_string_data+1,_ret+1
  3996                           
  3997                           ;Application.c: 261:                 ret = lcd_send_ATpos_string_data(&lcd1 , 4 , 1 , "0
      +                          :Ret");
  3998   0010C0  0E5D               	movlw	low _lcd1
  3999   0010C2  0101               	movlb	1	; () banked
  4000   0010C4  6F0B               	movwf	lcd_send_ATpos_string_data@_LCD_& (0+255),b
  4001   0010C6  0E00               	movlw	high _lcd1
  4002   0010C8  6F0C               	movwf	(lcd_send_ATpos_string_data@_LCD_+1)& (0+255),b
  4003   0010CA  0E04               	movlw	4
  4004   0010CC  6F0D               	movwf	lcd_send_ATpos_string_data@row& (0+255),b
  4005   0010CE  0E01               	movlw	1
  4006   0010D0  6F0E               	movwf	lcd_send_ATpos_string_data@coulmns& (0+255),b
  4007   0010D2  0EE9               	movlw	low STR_42
  4008   0010D4  6F0F               	movwf	lcd_send_ATpos_string_data@str& (0+255),b
  4009   0010D6  0EFF               	movlw	high STR_42
  4010   0010D8  6F10               	movwf	(lcd_send_ATpos_string_data@str+1)& (0+255),b
  4011   0010DA  ECB8  F01C         	call	_lcd_send_ATpos_string_data	;wreg free
  4012   0010DE  C10B  F0FE         	movff	?_lcd_send_ATpos_string_data,_ret
  4013   0010E2  C10C  F0FF         	movff	?_lcd_send_ATpos_string_data+1,_ret+1
  4014   0010E6                     
  4015                           ;Application.c: 262:                 key_status = 0;
  4016   0010E6  0E00               	movlw	0
  4017   0010E8  0100               	movlb	0	; () banked
  4018   0010EA  6FEA               	movwf	_key_status& (0+255),b
  4019   0010EC                     l10499:
  4020                           
  4021                           ; BSR set to: 0
  4022                           ;Application.c: 264:                     ret = Key_Pad_Get_Value(&key_pad1, &key_status)
      +                          ;
  4023   0010EC  0EA4               	movlw	low _key_pad1
  4024   0010EE  6FF7               	movwf	Key_Pad_Get_Value@_key_pad& (0+255),b
  4025   0010F0  0E00               	movlw	high _key_pad1
  4026   0010F2  6FF8               	movwf	(Key_Pad_Get_Value@_key_pad+1)& (0+255),b
  4027   0010F4  0EEA               	movlw	low _key_status
  4028   0010F6  6FF9               	movwf	Key_Pad_Get_Value@value& (0+255),b
  4029   0010F8  0E00               	movlw	high _key_status
  4030   0010FA  6FFA               	movwf	(Key_Pad_Get_Value@value+1)& (0+255),b
  4031   0010FC  ECEB  F016         	call	_Key_Pad_Get_Value	;wreg free
  4032   001100  C0F7  F0FE         	movff	?_Key_Pad_Get_Value,_ret
  4033   001104  C0F8  F0FF         	movff	?_Key_Pad_Get_Value+1,_ret+1
  4034                           
  4035                           ;Application.c: 265:                 } while (0 == key_status);
  4036   001108  0100               	movlb	0	; () banked
  4037   00110A  51EA               	movf	_key_status& (0+255),w,b
  4038   00110C  B4D8               	btfsc	status,2,c
  4039   00110E  EF8B  F008         	goto	u9321
  4040   001112  EF8D  F008         	goto	u9320
  4041   001116                     u9321:
  4042   001116  EF76  F008         	goto	l10499
  4043   00111A                     u9320:
  4044   00111A                     
  4045                           ; BSR set to: 0
  4046                           ;Application.c: 266:                 _delay((unsigned long)((300)*(4000000UL/4000.0)));
  4047   00111A  0E02               	movlw	2
  4048   00111C  0101               	movlb	1	; () banked
  4049   00111E  6F14               	movwf	(??_main+1)& (0+255),b
  4050   001120  0E86               	movlw	134
  4051   001122  6F13               	movwf	??_main& (0+255),b
  4052   001124  0E99               	movlw	153
  4053   001126                     u9907:
  4054   001126  2EE8               	decfsz	wreg,f,c
  4055   001128  D7FE               	bra	u9907
  4056   00112A  2F13               	decfsz	??_main& (0+255),f,b
  4057   00112C  D7FC               	bra	u9907
  4058   00112E  2F14               	decfsz	(??_main+1)& (0+255),f,b
  4059   001130  D7FA               	bra	u9907
  4060                           
  4061                           ;Application.c: 267:                 switch(key_status)
  4062   001132  EFB3  F008         	goto	l10513
  4063   001136                     l10503:
  4064                           
  4065                           ; BSR set to: 1
  4066                           ;Application.c: 270:                         ret = SPI_Send_Byte((uint8)1);
  4067   001136  0E01               	movlw	1
  4068   001138  EC08  F01F         	call	_SPI_Send_Byte
  4069   00113C  C0EB  F0FE         	movff	?_SPI_Send_Byte,_ret
  4070   001140  C0EC  F0FF         	movff	?_SPI_Send_Byte+1,_ret+1
  4071   001144                     
  4072                           ;Application.c: 271:                         spi_slave_reader = 1;
  4073   001144  0E01               	movlw	1
  4074   001146  0100               	movlb	0	; () banked
  4075   001148  6FE7               	movwf	_spi_slave_reader& (0+255),b	;volatile
  4076                           
  4077                           ;Application.c: 272:                         break;
  4078   00114A  EFCA  F008         	goto	l10515
  4079   00114E                     l10507:
  4080                           
  4081                           ; BSR set to: 1
  4082                           ;Application.c: 274:                         ret = SPI_Send_Byte((uint8)5);
  4083   00114E  0E05               	movlw	5
  4084   001150  EC08  F01F         	call	_SPI_Send_Byte
  4085   001154  C0EB  F0FE         	movff	?_SPI_Send_Byte,_ret
  4086   001158  C0EC  F0FF         	movff	?_SPI_Send_Byte+1,_ret+1
  4087   00115C                     
  4088                           ;Application.c: 275:                         spi_slave_reader = 0;
  4089   00115C  0E00               	movlw	0
  4090   00115E  0100               	movlb	0	; () banked
  4091   001160  6FE7               	movwf	_spi_slave_reader& (0+255),b	;volatile
  4092                           
  4093                           ;Application.c: 276:                         break;
  4094   001162  EFCA  F008         	goto	l10515
  4095   001166                     l10513:
  4096   001166  0100               	movlb	0	; () banked
  4097   001168  51EA               	movf	_key_status& (0+255),w,b
  4098   00116A  0101               	movlb	1	; () banked
  4099   00116C  6F13               	movwf	??_main& (0+255),b
  4100   00116E  6B14               	clrf	(??_main+1)& (0+255),b
  4101                           
  4102                           ; Switch on 2 bytes has been partitioned into a top level switch of size 1, and 1 sub-sw
      +                          itches
  4103                           ; Switch size 1, requested type "simple"
  4104                           ; Number of cases is 1, Range of values is 0 to 0
  4105                           ; switch strategies available:
  4106                           ; Name         Instructions Cycles
  4107                           ; simple_byte            4     3 (average)
  4108                           ;	Chosen strategy is simple_byte
  4109   001170  5114               	movf	(??_main+1)& (0+255),w,b
  4110   001172  0A00               	xorlw	0	; case 0
  4111   001174  B4D8               	btfsc	status,2,c
  4112   001176  EFBF  F008         	goto	l11409
  4113   00117A  EFCA  F008         	goto	l10515
  4114   00117E                     l11409:
  4115                           
  4116                           ; BSR set to: 1
  4117                           ; Switch size 1, requested type "simple"
  4118                           ; Number of cases is 2, Range of values is 49 to 50
  4119                           ; switch strategies available:
  4120                           ; Name         Instructions Cycles
  4121                           ; simple_byte            7     4 (average)
  4122                           ;	Chosen strategy is simple_byte
  4123   00117E  5113               	movf	??_main& (0+255),w,b
  4124   001180  0A31               	xorlw	49	; case 49
  4125   001182  B4D8               	btfsc	status,2,c
  4126   001184  EF9B  F008         	goto	l10503
  4127   001188  0A03               	xorlw	3	; case 50
  4128   00118A  B4D8               	btfsc	status,2,c
  4129   00118C  EFA7  F008         	goto	l10507
  4130   001190  EFCA  F008         	goto	l10515
  4131   001194                     l10515:
  4132                           
  4133                           ;Application.c: 278:                 if('0' == key_status){
  4134   001194  0E30               	movlw	48
  4135   001196  0100               	movlb	0	; () banked
  4136   001198  19EA               	xorwf	_key_status& (0+255),w,b
  4137   00119A  A4D8               	btfss	status,2,c
  4138   00119C  EFD2  F008         	goto	u9331
  4139   0011A0  EFD4  F008         	goto	u9330
  4140   0011A4                     u9331:
  4141   0011A4  EFE3  F008         	goto	l10521
  4142   0011A8                     u9330:
  4143   0011A8                     
  4144                           ; BSR set to: 0
  4145                           ;Application.c: 279:                     ret = lcd_send_command(&lcd1 , 0x01);
  4146   0011A8  0E5D               	movlw	low _lcd1
  4147   0011AA  0101               	movlb	1	; () banked
  4148   0011AC  6F00               	movwf	lcd_send_command@_LCD_& (0+255),b
  4149   0011AE  0E00               	movlw	high _lcd1
  4150   0011B0  6F01               	movwf	(lcd_send_command@_LCD_+1)& (0+255),b
  4151   0011B2  0E01               	movlw	1
  4152   0011B4  6F02               	movwf	lcd_send_command@command& (0+255),b
  4153   0011B6  EC52  F01B         	call	_lcd_send_command	;wreg free
  4154   0011BA  C100  F0FE         	movff	?_lcd_send_command,_ret
  4155   0011BE  C101  F0FF         	movff	?_lcd_send_command+1,_ret+1
  4156                           
  4157                           ;Application.c: 280:                     break;
  4158   0011C2  EF8C  F00A         	goto	l10589
  4159   0011C6                     l10521:
  4160                           
  4161                           ; BSR set to: 0
  4162   0011C6  0E31               	movlw	49
  4163   0011C8  19EA               	xorwf	_key_status& (0+255),w,b
  4164   0011CA  B4D8               	btfsc	status,2,c
  4165   0011CC  EFEA  F008         	goto	u9341
  4166   0011D0  EFEC  F008         	goto	u9340
  4167   0011D4                     u9341:
  4168   0011D4  EF22  F009         	goto	l10531
  4169   0011D8                     u9340:
  4170   0011D8                     
  4171                           ; BSR set to: 0
  4172   0011D8  0E32               	movlw	50
  4173   0011DA  19EA               	xorwf	_key_status& (0+255),w,b
  4174   0011DC  B4D8               	btfsc	status,2,c
  4175   0011DE  EFF3  F008         	goto	u9351
  4176   0011E2  EFF5  F008         	goto	u9350
  4177   0011E6                     u9351:
  4178   0011E6  EF22  F009         	goto	l10531
  4179   0011EA                     u9350:
  4180   0011EA                     
  4181                           ; BSR set to: 0
  4182                           ;Application.c: 282:                     ret = lcd_send_command(&lcd1 , 0x01);
  4183   0011EA  0E5D               	movlw	low _lcd1
  4184   0011EC  0101               	movlb	1	; () banked
  4185   0011EE  6F00               	movwf	lcd_send_command@_LCD_& (0+255),b
  4186   0011F0  0E00               	movlw	high _lcd1
  4187   0011F2  6F01               	movwf	(lcd_send_command@_LCD_+1)& (0+255),b
  4188   0011F4  0E01               	movlw	1
  4189   0011F6  6F02               	movwf	lcd_send_command@command& (0+255),b
  4190   0011F8  EC52  F01B         	call	_lcd_send_command	;wreg free
  4191   0011FC  C100  F0FE         	movff	?_lcd_send_command,_ret
  4192   001200  C101  F0FF         	movff	?_lcd_send_command+1,_ret+1
  4193   001204                     
  4194                           ;Application.c: 283:                     ret = lcd_send_ATpos_string_data(&lcd1 , 1 , 1 
      +                          , "Wrong choice");
  4195   001204  0E5D               	movlw	low _lcd1
  4196   001206  0101               	movlb	1	; () banked
  4197   001208  6F0B               	movwf	lcd_send_ATpos_string_data@_LCD_& (0+255),b
  4198   00120A  0E00               	movlw	high _lcd1
  4199   00120C  6F0C               	movwf	(lcd_send_ATpos_string_data@_LCD_+1)& (0+255),b
  4200   00120E  0E01               	movlw	1
  4201   001210  6F0D               	movwf	lcd_send_ATpos_string_data@row& (0+255),b
  4202   001212  0E01               	movlw	1
  4203   001214  6F0E               	movwf	lcd_send_ATpos_string_data@coulmns& (0+255),b
  4204   001216  0E0A               	movlw	low STR_36
  4205   001218  6F0F               	movwf	lcd_send_ATpos_string_data@str& (0+255),b
  4206   00121A  0EFF               	movlw	high STR_36
  4207   00121C  6F10               	movwf	(lcd_send_ATpos_string_data@str+1)& (0+255),b
  4208   00121E  ECB8  F01C         	call	_lcd_send_ATpos_string_data	;wreg free
  4209   001222  C10B  F0FE         	movff	?_lcd_send_ATpos_string_data,_ret
  4210   001226  C10C  F0FF         	movff	?_lcd_send_ATpos_string_data+1,_ret+1
  4211   00122A                     
  4212                           ;Application.c: 284:                     _delay((unsigned long)((500)*(4000000UL/4000.0)
      +                          ));
  4213   00122A  0E03               	movlw	3
  4214   00122C  0101               	movlb	1	; () banked
  4215   00122E  6F14               	movwf	(??_main+1)& (0+255),b
  4216   001230  0E8A               	movlw	138
  4217   001232  6F13               	movwf	??_main& (0+255),b
  4218   001234  0E55               	movlw	85
  4219   001236                     u9917:
  4220   001236  2EE8               	decfsz	wreg,f,c
  4221   001238  D7FE               	bra	u9917
  4222   00123A  2F13               	decfsz	??_main& (0+255),f,b
  4223   00123C  D7FC               	bra	u9917
  4224   00123E  2F14               	decfsz	(??_main+1)& (0+255),f,b
  4225   001240  D7FA               	bra	u9917
  4226   001242  D000               	nop2	
  4227   001244                     l10531:
  4228                           
  4229                           ;Application.c: 286:                 key_status = '1';
  4230   001244  0E31               	movlw	49
  4231   001246  0100               	movlb	0	; () banked
  4232   001248  6FEA               	movwf	_key_status& (0+255),b
  4233   00124A  EFA3  F007         	goto	l10473
  4234   00124E                     l10535:
  4235                           
  4236                           ;Application.c: 248:             while('1' == key_status){
  4237   00124E  0E31               	movlw	49
  4238   001250  0100               	movlb	0	; () banked
  4239   001252  19EA               	xorwf	_key_status& (0+255),w,b
  4240   001254  B4D8               	btfsc	status,2,c
  4241   001256  EF2F  F009         	goto	u9361
  4242   00125A  EF31  F009         	goto	u9360
  4243   00125E                     u9361:
  4244   00125E  EFD9  F007         	goto	l10483
  4245   001262                     u9360:
  4246   001262  EF8C  F00A         	goto	l10589
  4247   001266                     l10537:
  4248                           
  4249                           ; BSR set to: 0
  4250                           ;Application.c: 290:                 ret = lcd_send_command(&lcd1 , 0x01);
  4251   001266  0E5D               	movlw	low _lcd1
  4252   001268  0101               	movlb	1	; () banked
  4253   00126A  6F00               	movwf	lcd_send_command@_LCD_& (0+255),b
  4254   00126C  0E00               	movlw	high _lcd1
  4255   00126E  6F01               	movwf	(lcd_send_command@_LCD_+1)& (0+255),b
  4256   001270  0E01               	movlw	1
  4257   001272  6F02               	movwf	lcd_send_command@command& (0+255),b
  4258   001274  EC52  F01B         	call	_lcd_send_command	;wreg free
  4259   001278  C100  F0FE         	movff	?_lcd_send_command,_ret
  4260   00127C  C101  F0FF         	movff	?_lcd_send_command+1,_ret+1
  4261   001280                     
  4262                           ;Application.c: 291:                 ret = lcd_send_ATpos_string_data(&lcd1 , 1 , 1 , "R
      +                          oom2 S:");
  4263   001280  0E5D               	movlw	low _lcd1
  4264   001282  0101               	movlb	1	; () banked
  4265   001284  6F0B               	movwf	lcd_send_ATpos_string_data@_LCD_& (0+255),b
  4266   001286  0E00               	movlw	high _lcd1
  4267   001288  6F0C               	movwf	(lcd_send_ATpos_string_data@_LCD_+1)& (0+255),b
  4268   00128A  0E01               	movlw	1
  4269   00128C  6F0D               	movwf	lcd_send_ATpos_string_data@row& (0+255),b
  4270   00128E  0E01               	movlw	1
  4271   001290  6F0E               	movwf	lcd_send_ATpos_string_data@coulmns& (0+255),b
  4272   001292  0E65               	movlw	low STR_44
  4273   001294  6F0F               	movwf	lcd_send_ATpos_string_data@str& (0+255),b
  4274   001296  0EFF               	movlw	high STR_44
  4275   001298  6F10               	movwf	(lcd_send_ATpos_string_data@str+1)& (0+255),b
  4276   00129A  ECB8  F01C         	call	_lcd_send_ATpos_string_data	;wreg free
  4277   00129E  C10B  F0FE         	movff	?_lcd_send_ATpos_string_data,_ret
  4278   0012A2  C10C  F0FF         	movff	?_lcd_send_ATpos_string_data+1,_ret+1
  4279                           
  4280                           ;Application.c: 292:                 switch(spi_slave_reader)
  4281   0012A6  EF7D  F009         	goto	l10547
  4282   0012AA                     l10541:
  4283                           
  4284                           ; BSR set to: 1
  4285   0012AA  0E5D               	movlw	low _lcd1
  4286   0012AC  6F0B               	movwf	lcd_send_ATpos_string_data@_LCD_& (0+255),b
  4287   0012AE  0E00               	movlw	high _lcd1
  4288   0012B0  6F0C               	movwf	(lcd_send_ATpos_string_data@_LCD_+1)& (0+255),b
  4289   0012B2  0E01               	movlw	1
  4290   0012B4  6F0D               	movwf	lcd_send_ATpos_string_data@row& (0+255),b
  4291   0012B6  0E09               	movlw	9
  4292   0012B8  6F0E               	movwf	lcd_send_ATpos_string_data@coulmns& (0+255),b
  4293   0012BA  0EF4               	movlw	low STR_38
  4294   0012BC  6F0F               	movwf	lcd_send_ATpos_string_data@str& (0+255),b
  4295   0012BE  0EFF               	movlw	high STR_38
  4296   0012C0  6F10               	movwf	(lcd_send_ATpos_string_data@str+1)& (0+255),b
  4297   0012C2  ECB8  F01C         	call	_lcd_send_ATpos_string_data	;wreg free
  4298   0012C6  C10B  F0FE         	movff	?_lcd_send_ATpos_string_data,_ret
  4299   0012CA  C10C  F0FF         	movff	?_lcd_send_ATpos_string_data+1,_ret+1
  4300   0012CE  EF94  F009         	goto	l10549
  4301   0012D2                     l10543:
  4302                           
  4303                           ; BSR set to: 1
  4304   0012D2  0E5D               	movlw	low _lcd1
  4305   0012D4  6F0B               	movwf	lcd_send_ATpos_string_data@_LCD_& (0+255),b
  4306   0012D6  0E00               	movlw	high _lcd1
  4307   0012D8  6F0C               	movwf	(lcd_send_ATpos_string_data@_LCD_+1)& (0+255),b
  4308   0012DA  0E01               	movlw	1
  4309   0012DC  6F0D               	movwf	lcd_send_ATpos_string_data@row& (0+255),b
  4310   0012DE  0E09               	movlw	9
  4311   0012E0  6F0E               	movwf	lcd_send_ATpos_string_data@coulmns& (0+255),b
  4312   0012E2  0EF8               	movlw	low STR_39
  4313   0012E4  6F0F               	movwf	lcd_send_ATpos_string_data@str& (0+255),b
  4314   0012E6  0EFF               	movlw	high STR_39
  4315   0012E8  6F10               	movwf	(lcd_send_ATpos_string_data@str+1)& (0+255),b
  4316   0012EA  ECB8  F01C         	call	_lcd_send_ATpos_string_data	;wreg free
  4317   0012EE  C10B  F0FE         	movff	?_lcd_send_ATpos_string_data,_ret
  4318   0012F2  C10C  F0FF         	movff	?_lcd_send_ATpos_string_data+1,_ret+1
  4319   0012F6  EF94  F009         	goto	l10549
  4320   0012FA                     l10547:
  4321   0012FA  0100               	movlb	0	; () banked
  4322   0012FC  51E7               	movf	_spi_slave_reader& (0+255),w,b	;volatile
  4323   0012FE  0101               	movlb	1	; () banked
  4324   001300  6F13               	movwf	??_main& (0+255),b
  4325   001302  6B14               	clrf	(??_main+1)& (0+255),b
  4326                           
  4327                           ; Switch on 2 bytes has been partitioned into a top level switch of size 1, and 1 sub-sw
      +                          itches
  4328                           ; Switch size 1, requested type "simple"
  4329                           ; Number of cases is 1, Range of values is 0 to 0
  4330                           ; switch strategies available:
  4331                           ; Name         Instructions Cycles
  4332                           ; simple_byte            4     3 (average)
  4333                           ;	Chosen strategy is simple_byte
  4334   001304  5114               	movf	(??_main+1)& (0+255),w,b
  4335   001306  0A00               	xorlw	0	; case 0
  4336   001308  B4D8               	btfsc	status,2,c
  4337   00130A  EF89  F009         	goto	l11411
  4338   00130E  EF94  F009         	goto	l10549
  4339   001312                     l11411:
  4340                           
  4341                           ; BSR set to: 1
  4342                           ; Switch size 1, requested type "simple"
  4343                           ; Number of cases is 2, Range of values is 0 to 1
  4344                           ; switch strategies available:
  4345                           ; Name         Instructions Cycles
  4346                           ; simple_byte            7     4 (average)
  4347                           ;	Chosen strategy is simple_byte
  4348   001312  5113               	movf	??_main& (0+255),w,b
  4349   001314  0A00               	xorlw	0	; case 0
  4350   001316  B4D8               	btfsc	status,2,c
  4351   001318  EF69  F009         	goto	l10543
  4352   00131C  0A01               	xorlw	1	; case 1
  4353   00131E  B4D8               	btfsc	status,2,c
  4354   001320  EF55  F009         	goto	l10541
  4355   001324  EF94  F009         	goto	l10549
  4356   001328                     l10549:
  4357                           
  4358                           ;Application.c: 297:                 ret = lcd_send_ATpos_string_data(&lcd1 , 2 , 1 , "1
      +                          :led on");
  4359   001328  0E5D               	movlw	low _lcd1
  4360   00132A  0101               	movlb	1	; () banked
  4361   00132C  6F0B               	movwf	lcd_send_ATpos_string_data@_LCD_& (0+255),b
  4362   00132E  0E00               	movlw	high _lcd1
  4363   001330  6F0C               	movwf	(lcd_send_ATpos_string_data@_LCD_+1)& (0+255),b
  4364   001332  0E02               	movlw	2
  4365   001334  6F0D               	movwf	lcd_send_ATpos_string_data@row& (0+255),b
  4366   001336  0E01               	movlw	1
  4367   001338  6F0E               	movwf	lcd_send_ATpos_string_data@coulmns& (0+255),b
  4368   00133A  0E92               	movlw	low STR_40
  4369   00133C  6F0F               	movwf	lcd_send_ATpos_string_data@str& (0+255),b
  4370   00133E  0EFF               	movlw	high STR_40
  4371   001340  6F10               	movwf	(lcd_send_ATpos_string_data@str+1)& (0+255),b
  4372   001342  ECB8  F01C         	call	_lcd_send_ATpos_string_data	;wreg free
  4373   001346  C10B  F0FE         	movff	?_lcd_send_ATpos_string_data,_ret
  4374   00134A  C10C  F0FF         	movff	?_lcd_send_ATpos_string_data+1,_ret+1
  4375                           
  4376                           ;Application.c: 298:                 ret = lcd_send_ATpos_string_data(&lcd1 , 3 , 1 , "2
      +                          :led off");
  4377   00134E  0E5D               	movlw	low _lcd1
  4378   001350  0101               	movlb	1	; () banked
  4379   001352  6F0B               	movwf	lcd_send_ATpos_string_data@_LCD_& (0+255),b
  4380   001354  0E00               	movlw	high _lcd1
  4381   001356  6F0C               	movwf	(lcd_send_ATpos_string_data@_LCD_+1)& (0+255),b
  4382   001358  0E03               	movlw	3
  4383   00135A  6F0D               	movwf	lcd_send_ATpos_string_data@row& (0+255),b
  4384   00135C  0E01               	movlw	1
  4385   00135E  6F0E               	movwf	lcd_send_ATpos_string_data@coulmns& (0+255),b
  4386   001360  0E52               	movlw	low STR_41
  4387   001362  6F0F               	movwf	lcd_send_ATpos_string_data@str& (0+255),b
  4388   001364  0EFF               	movlw	high STR_41
  4389   001366  6F10               	movwf	(lcd_send_ATpos_string_data@str+1)& (0+255),b
  4390   001368  ECB8  F01C         	call	_lcd_send_ATpos_string_data	;wreg free
  4391   00136C  C10B  F0FE         	movff	?_lcd_send_ATpos_string_data,_ret
  4392   001370  C10C  F0FF         	movff	?_lcd_send_ATpos_string_data+1,_ret+1
  4393                           
  4394                           ;Application.c: 299:                 ret = lcd_send_ATpos_string_data(&lcd1 , 4 , 1 , "0
      +                          :Ret");
  4395   001374  0E5D               	movlw	low _lcd1
  4396   001376  0101               	movlb	1	; () banked
  4397   001378  6F0B               	movwf	lcd_send_ATpos_string_data@_LCD_& (0+255),b
  4398   00137A  0E00               	movlw	high _lcd1
  4399   00137C  6F0C               	movwf	(lcd_send_ATpos_string_data@_LCD_+1)& (0+255),b
  4400   00137E  0E04               	movlw	4
  4401   001380  6F0D               	movwf	lcd_send_ATpos_string_data@row& (0+255),b
  4402   001382  0E01               	movlw	1
  4403   001384  6F0E               	movwf	lcd_send_ATpos_string_data@coulmns& (0+255),b
  4404   001386  0EE9               	movlw	low STR_42
  4405   001388  6F0F               	movwf	lcd_send_ATpos_string_data@str& (0+255),b
  4406   00138A  0EFF               	movlw	high STR_42
  4407   00138C  6F10               	movwf	(lcd_send_ATpos_string_data@str+1)& (0+255),b
  4408   00138E  ECB8  F01C         	call	_lcd_send_ATpos_string_data	;wreg free
  4409   001392  C10B  F0FE         	movff	?_lcd_send_ATpos_string_data,_ret
  4410   001396  C10C  F0FF         	movff	?_lcd_send_ATpos_string_data+1,_ret+1
  4411   00139A                     
  4412                           ;Application.c: 300:                 key_status = 0;
  4413   00139A  0E00               	movlw	0
  4414   00139C  0100               	movlb	0	; () banked
  4415   00139E  6FEA               	movwf	_key_status& (0+255),b
  4416   0013A0                     l10553:
  4417                           
  4418                           ; BSR set to: 0
  4419                           ;Application.c: 302:                     ret = Key_Pad_Get_Value(&key_pad1, &key_status)
      +                          ;
  4420   0013A0  0EA4               	movlw	low _key_pad1
  4421   0013A2  6FF7               	movwf	Key_Pad_Get_Value@_key_pad& (0+255),b
  4422   0013A4  0E00               	movlw	high _key_pad1
  4423   0013A6  6FF8               	movwf	(Key_Pad_Get_Value@_key_pad+1)& (0+255),b
  4424   0013A8  0EEA               	movlw	low _key_status
  4425   0013AA  6FF9               	movwf	Key_Pad_Get_Value@value& (0+255),b
  4426   0013AC  0E00               	movlw	high _key_status
  4427   0013AE  6FFA               	movwf	(Key_Pad_Get_Value@value+1)& (0+255),b
  4428   0013B0  ECEB  F016         	call	_Key_Pad_Get_Value	;wreg free
  4429   0013B4  C0F7  F0FE         	movff	?_Key_Pad_Get_Value,_ret
  4430   0013B8  C0F8  F0FF         	movff	?_Key_Pad_Get_Value+1,_ret+1
  4431                           
  4432                           ;Application.c: 303:                 } while (0 == key_status);
  4433   0013BC  0100               	movlb	0	; () banked
  4434   0013BE  51EA               	movf	_key_status& (0+255),w,b
  4435   0013C0  B4D8               	btfsc	status,2,c
  4436   0013C2  EFE5  F009         	goto	u9371
  4437   0013C6  EFE7  F009         	goto	u9370
  4438   0013CA                     u9371:
  4439   0013CA  EFD0  F009         	goto	l10553
  4440   0013CE                     u9370:
  4441   0013CE                     
  4442                           ; BSR set to: 0
  4443                           ;Application.c: 304:                 _delay((unsigned long)((300)*(4000000UL/4000.0)));
  4444   0013CE  0E02               	movlw	2
  4445   0013D0  0101               	movlb	1	; () banked
  4446   0013D2  6F14               	movwf	(??_main+1)& (0+255),b
  4447   0013D4  0E86               	movlw	134
  4448   0013D6  6F13               	movwf	??_main& (0+255),b
  4449   0013D8  0E99               	movlw	153
  4450   0013DA                     u9927:
  4451   0013DA  2EE8               	decfsz	wreg,f,c
  4452   0013DC  D7FE               	bra	u9927
  4453   0013DE  2F13               	decfsz	??_main& (0+255),f,b
  4454   0013E0  D7FC               	bra	u9927
  4455   0013E2  2F14               	decfsz	(??_main+1)& (0+255),f,b
  4456   0013E4  D7FA               	bra	u9927
  4457                           
  4458                           ;Application.c: 305:                 switch(key_status)
  4459   0013E6  EF0D  F00A         	goto	l10567
  4460   0013EA                     l10557:
  4461                           
  4462                           ; BSR set to: 1
  4463   0013EA  0E02               	movlw	2
  4464   0013EC  EC08  F01F         	call	_SPI_Send_Byte
  4465   0013F0  C0EB  F0FE         	movff	?_SPI_Send_Byte,_ret
  4466   0013F4  C0EC  F0FF         	movff	?_SPI_Send_Byte+1,_ret+1
  4467   0013F8  0E01               	movlw	1
  4468   0013FA  0100               	movlb	0	; () banked
  4469   0013FC  6FE7               	movwf	_spi_slave_reader& (0+255),b	;volatile
  4470   0013FE  EF24  F00A         	goto	l10569
  4471   001402                     l10561:
  4472                           
  4473                           ; BSR set to: 1
  4474   001402  0E06               	movlw	6
  4475   001404  EC08  F01F         	call	_SPI_Send_Byte
  4476   001408  C0EB  F0FE         	movff	?_SPI_Send_Byte,_ret
  4477   00140C  C0EC  F0FF         	movff	?_SPI_Send_Byte+1,_ret+1
  4478   001410  0E00               	movlw	0
  4479   001412  0100               	movlb	0	; () banked
  4480   001414  6FE7               	movwf	_spi_slave_reader& (0+255),b	;volatile
  4481   001416  EF24  F00A         	goto	l10569
  4482   00141A                     l10567:
  4483   00141A  0100               	movlb	0	; () banked
  4484   00141C  51EA               	movf	_key_status& (0+255),w,b
  4485   00141E  0101               	movlb	1	; () banked
  4486   001420  6F13               	movwf	??_main& (0+255),b
  4487   001422  6B14               	clrf	(??_main+1)& (0+255),b
  4488                           
  4489                           ; Switch on 2 bytes has been partitioned into a top level switch of size 1, and 1 sub-sw
      +                          itches
  4490                           ; Switch size 1, requested type "simple"
  4491                           ; Number of cases is 1, Range of values is 0 to 0
  4492                           ; switch strategies available:
  4493                           ; Name         Instructions Cycles
  4494                           ; simple_byte            4     3 (average)
  4495                           ;	Chosen strategy is simple_byte
  4496   001424  5114               	movf	(??_main+1)& (0+255),w,b
  4497   001426  0A00               	xorlw	0	; case 0
  4498   001428  B4D8               	btfsc	status,2,c
  4499   00142A  EF19  F00A         	goto	l11413
  4500   00142E  EF24  F00A         	goto	l10569
  4501   001432                     l11413:
  4502                           
  4503                           ; BSR set to: 1
  4504                           ; Switch size 1, requested type "simple"
  4505                           ; Number of cases is 2, Range of values is 49 to 50
  4506                           ; switch strategies available:
  4507                           ; Name         Instructions Cycles
  4508                           ; simple_byte            7     4 (average)
  4509                           ;	Chosen strategy is simple_byte
  4510   001432  5113               	movf	??_main& (0+255),w,b
  4511   001434  0A31               	xorlw	49	; case 49
  4512   001436  B4D8               	btfsc	status,2,c
  4513   001438  EFF5  F009         	goto	l10557
  4514   00143C  0A03               	xorlw	3	; case 50
  4515   00143E  B4D8               	btfsc	status,2,c
  4516   001440  EF01  F00A         	goto	l10561
  4517   001444  EF24  F00A         	goto	l10569
  4518   001448                     l10569:
  4519                           
  4520                           ;Application.c: 310:                 if('0' == key_status){
  4521   001448  0E30               	movlw	48
  4522   00144A  0100               	movlb	0	; () banked
  4523   00144C  19EA               	xorwf	_key_status& (0+255),w,b
  4524   00144E  A4D8               	btfss	status,2,c
  4525   001450  EF2C  F00A         	goto	u9381
  4526   001454  EF2E  F00A         	goto	u9380
  4527   001458                     u9381:
  4528   001458  EF3D  F00A         	goto	l10575
  4529   00145C                     u9380:
  4530   00145C                     
  4531                           ; BSR set to: 0
  4532                           ;Application.c: 311:                     ret = lcd_send_command(&lcd1 , 0x01);
  4533   00145C  0E5D               	movlw	low _lcd1
  4534   00145E  0101               	movlb	1	; () banked
  4535   001460  6F00               	movwf	lcd_send_command@_LCD_& (0+255),b
  4536   001462  0E00               	movlw	high _lcd1
  4537   001464  6F01               	movwf	(lcd_send_command@_LCD_+1)& (0+255),b
  4538   001466  0E01               	movlw	1
  4539   001468  6F02               	movwf	lcd_send_command@command& (0+255),b
  4540   00146A  EC52  F01B         	call	_lcd_send_command	;wreg free
  4541   00146E  C100  F0FE         	movff	?_lcd_send_command,_ret
  4542   001472  C101  F0FF         	movff	?_lcd_send_command+1,_ret+1
  4543                           
  4544                           ;Application.c: 312:                     break;
  4545   001476  EFF1  F00B         	goto	l10643
  4546   00147A                     l10575:
  4547                           
  4548                           ; BSR set to: 0
  4549   00147A  0E31               	movlw	49
  4550   00147C  19EA               	xorwf	_key_status& (0+255),w,b
  4551   00147E  B4D8               	btfsc	status,2,c
  4552   001480  EF44  F00A         	goto	u9391
  4553   001484  EF46  F00A         	goto	u9390
  4554   001488                     u9391:
  4555   001488  EF7C  F00A         	goto	l10585
  4556   00148C                     u9390:
  4557   00148C                     
  4558                           ; BSR set to: 0
  4559   00148C  0E32               	movlw	50
  4560   00148E  19EA               	xorwf	_key_status& (0+255),w,b
  4561   001490  B4D8               	btfsc	status,2,c
  4562   001492  EF4D  F00A         	goto	u9401
  4563   001496  EF4F  F00A         	goto	u9400
  4564   00149A                     u9401:
  4565   00149A  EF7C  F00A         	goto	l10585
  4566   00149E                     u9400:
  4567   00149E                     
  4568                           ; BSR set to: 0
  4569                           ;Application.c: 314:                     ret = lcd_send_command(&lcd1 , 0x01);
  4570   00149E  0E5D               	movlw	low _lcd1
  4571   0014A0  0101               	movlb	1	; () banked
  4572   0014A2  6F00               	movwf	lcd_send_command@_LCD_& (0+255),b
  4573   0014A4  0E00               	movlw	high _lcd1
  4574   0014A6  6F01               	movwf	(lcd_send_command@_LCD_+1)& (0+255),b
  4575   0014A8  0E01               	movlw	1
  4576   0014AA  6F02               	movwf	lcd_send_command@command& (0+255),b
  4577   0014AC  EC52  F01B         	call	_lcd_send_command	;wreg free
  4578   0014B0  C100  F0FE         	movff	?_lcd_send_command,_ret
  4579   0014B4  C101  F0FF         	movff	?_lcd_send_command+1,_ret+1
  4580   0014B8                     
  4581                           ;Application.c: 315:                     ret = lcd_send_ATpos_string_data(&lcd1 , 1 , 1 
      +                          , "Wrong choice");
  4582   0014B8  0E5D               	movlw	low _lcd1
  4583   0014BA  0101               	movlb	1	; () banked
  4584   0014BC  6F0B               	movwf	lcd_send_ATpos_string_data@_LCD_& (0+255),b
  4585   0014BE  0E00               	movlw	high _lcd1
  4586   0014C0  6F0C               	movwf	(lcd_send_ATpos_string_data@_LCD_+1)& (0+255),b
  4587   0014C2  0E01               	movlw	1
  4588   0014C4  6F0D               	movwf	lcd_send_ATpos_string_data@row& (0+255),b
  4589   0014C6  0E01               	movlw	1
  4590   0014C8  6F0E               	movwf	lcd_send_ATpos_string_data@coulmns& (0+255),b
  4591   0014CA  0E0A               	movlw	low STR_36
  4592   0014CC  6F0F               	movwf	lcd_send_ATpos_string_data@str& (0+255),b
  4593   0014CE  0EFF               	movlw	high STR_36
  4594   0014D0  6F10               	movwf	(lcd_send_ATpos_string_data@str+1)& (0+255),b
  4595   0014D2  ECB8  F01C         	call	_lcd_send_ATpos_string_data	;wreg free
  4596   0014D6  C10B  F0FE         	movff	?_lcd_send_ATpos_string_data,_ret
  4597   0014DA  C10C  F0FF         	movff	?_lcd_send_ATpos_string_data+1,_ret+1
  4598   0014DE                     
  4599                           ;Application.c: 316:                     _delay((unsigned long)((1000)*(4000000UL/4000.0
      +                          )));
  4600   0014DE  0E06               	movlw	6
  4601   0014E0  0101               	movlb	1	; () banked
  4602   0014E2  6F14               	movwf	(??_main+1)& (0+255),b
  4603   0014E4  0E13               	movlw	19
  4604   0014E6  6F13               	movwf	??_main& (0+255),b
  4605   0014E8  0EAD               	movlw	173
  4606   0014EA                     u9937:
  4607   0014EA  2EE8               	decfsz	wreg,f,c
  4608   0014EC  D7FE               	bra	u9937
  4609   0014EE  2F13               	decfsz	??_main& (0+255),f,b
  4610   0014F0  D7FC               	bra	u9937
  4611   0014F2  2F14               	decfsz	(??_main+1)& (0+255),f,b
  4612   0014F4  D7FA               	bra	u9937
  4613   0014F6  D000               	nop2	
  4614   0014F8                     l10585:
  4615                           
  4616                           ;Application.c: 318:                 key_status = '2';
  4617   0014F8  0E32               	movlw	50
  4618   0014FA  0100               	movlb	0	; () banked
  4619   0014FC  6FEA               	movwf	_key_status& (0+255),b
  4620   0014FE                     
  4621                           ; BSR set to: 0
  4622                           ;Application.c: 319:                 _delay((unsigned long)((500)*(4000000UL/4000.0)));
  4623   0014FE  0E03               	movlw	3
  4624   001500  0101               	movlb	1	; () banked
  4625   001502  6F14               	movwf	(??_main+1)& (0+255),b
  4626   001504  0E8A               	movlw	138
  4627   001506  6F13               	movwf	??_main& (0+255),b
  4628   001508  0E55               	movlw	85
  4629   00150A                     u9947:
  4630   00150A  2EE8               	decfsz	wreg,f,c
  4631   00150C  D7FE               	bra	u9947
  4632   00150E  2F13               	decfsz	??_main& (0+255),f,b
  4633   001510  D7FC               	bra	u9947
  4634   001512  2F14               	decfsz	(??_main+1)& (0+255),f,b
  4635   001514  D7FA               	bra	u9947
  4636   001516  D000               	nop2	
  4637   001518                     l10589:
  4638                           
  4639                           ;Application.c: 289:             while('2' == key_status){
  4640   001518  0E32               	movlw	50
  4641   00151A  0100               	movlb	0	; () banked
  4642   00151C  19EA               	xorwf	_key_status& (0+255),w,b
  4643   00151E  B4D8               	btfsc	status,2,c
  4644   001520  EF94  F00A         	goto	u9411
  4645   001524  EF96  F00A         	goto	u9410
  4646   001528                     u9411:
  4647   001528  EF33  F009         	goto	l10537
  4648   00152C                     u9410:
  4649   00152C  EFF1  F00B         	goto	l10643
  4650   001530                     l10591:
  4651                           
  4652                           ; BSR set to: 0
  4653                           ;Application.c: 321:                 ret = lcd_send_command(&lcd1 , 0x01);
  4654   001530  0E5D               	movlw	low _lcd1
  4655   001532  0101               	movlb	1	; () banked
  4656   001534  6F00               	movwf	lcd_send_command@_LCD_& (0+255),b
  4657   001536  0E00               	movlw	high _lcd1
  4658   001538  6F01               	movwf	(lcd_send_command@_LCD_+1)& (0+255),b
  4659   00153A  0E01               	movlw	1
  4660   00153C  6F02               	movwf	lcd_send_command@command& (0+255),b
  4661   00153E  EC52  F01B         	call	_lcd_send_command	;wreg free
  4662   001542  C100  F0FE         	movff	?_lcd_send_command,_ret
  4663   001546  C101  F0FF         	movff	?_lcd_send_command+1,_ret+1
  4664   00154A                     
  4665                           ;Application.c: 322:                 ret = lcd_send_ATpos_string_data(&lcd1 , 1 , 1 , "R
      +                          oom3 S:");
  4666   00154A  0E5D               	movlw	low _lcd1
  4667   00154C  0101               	movlb	1	; () banked
  4668   00154E  6F0B               	movwf	lcd_send_ATpos_string_data@_LCD_& (0+255),b
  4669   001550  0E00               	movlw	high _lcd1
  4670   001552  6F0C               	movwf	(lcd_send_ATpos_string_data@_LCD_+1)& (0+255),b
  4671   001554  0E01               	movlw	1
  4672   001556  6F0D               	movwf	lcd_send_ATpos_string_data@row& (0+255),b
  4673   001558  0E01               	movlw	1
  4674   00155A  6F0E               	movwf	lcd_send_ATpos_string_data@coulmns& (0+255),b
  4675   00155C  0E6E               	movlw	low STR_51
  4676   00155E  6F0F               	movwf	lcd_send_ATpos_string_data@str& (0+255),b
  4677   001560  0EFF               	movlw	high STR_51
  4678   001562  6F10               	movwf	(lcd_send_ATpos_string_data@str+1)& (0+255),b
  4679   001564  ECB8  F01C         	call	_lcd_send_ATpos_string_data	;wreg free
  4680   001568  C10B  F0FE         	movff	?_lcd_send_ATpos_string_data,_ret
  4681   00156C  C10C  F0FF         	movff	?_lcd_send_ATpos_string_data+1,_ret+1
  4682                           
  4683                           ;Application.c: 323:                 switch(spi_slave_reader)
  4684   001570  EFE2  F00A         	goto	l10601
  4685   001574                     l10595:
  4686                           
  4687                           ; BSR set to: 1
  4688   001574  0E5D               	movlw	low _lcd1
  4689   001576  6F0B               	movwf	lcd_send_ATpos_string_data@_LCD_& (0+255),b
  4690   001578  0E00               	movlw	high _lcd1
  4691   00157A  6F0C               	movwf	(lcd_send_ATpos_string_data@_LCD_+1)& (0+255),b
  4692   00157C  0E01               	movlw	1
  4693   00157E  6F0D               	movwf	lcd_send_ATpos_string_data@row& (0+255),b
  4694   001580  0E09               	movlw	9
  4695   001582  6F0E               	movwf	lcd_send_ATpos_string_data@coulmns& (0+255),b
  4696   001584  0EF4               	movlw	low STR_38
  4697   001586  6F0F               	movwf	lcd_send_ATpos_string_data@str& (0+255),b
  4698   001588  0EFF               	movlw	high STR_38
  4699   00158A  6F10               	movwf	(lcd_send_ATpos_string_data@str+1)& (0+255),b
  4700   00158C  ECB8  F01C         	call	_lcd_send_ATpos_string_data	;wreg free
  4701   001590  C10B  F0FE         	movff	?_lcd_send_ATpos_string_data,_ret
  4702   001594  C10C  F0FF         	movff	?_lcd_send_ATpos_string_data+1,_ret+1
  4703   001598  EFF9  F00A         	goto	l10603
  4704   00159C                     l10597:
  4705                           
  4706                           ; BSR set to: 1
  4707   00159C  0E5D               	movlw	low _lcd1
  4708   00159E  6F0B               	movwf	lcd_send_ATpos_string_data@_LCD_& (0+255),b
  4709   0015A0  0E00               	movlw	high _lcd1
  4710   0015A2  6F0C               	movwf	(lcd_send_ATpos_string_data@_LCD_+1)& (0+255),b
  4711   0015A4  0E01               	movlw	1
  4712   0015A6  6F0D               	movwf	lcd_send_ATpos_string_data@row& (0+255),b
  4713   0015A8  0E09               	movlw	9
  4714   0015AA  6F0E               	movwf	lcd_send_ATpos_string_data@coulmns& (0+255),b
  4715   0015AC  0EF8               	movlw	low STR_39
  4716   0015AE  6F0F               	movwf	lcd_send_ATpos_string_data@str& (0+255),b
  4717   0015B0  0EFF               	movlw	high STR_39
  4718   0015B2  6F10               	movwf	(lcd_send_ATpos_string_data@str+1)& (0+255),b
  4719   0015B4  ECB8  F01C         	call	_lcd_send_ATpos_string_data	;wreg free
  4720   0015B8  C10B  F0FE         	movff	?_lcd_send_ATpos_string_data,_ret
  4721   0015BC  C10C  F0FF         	movff	?_lcd_send_ATpos_string_data+1,_ret+1
  4722   0015C0  EFF9  F00A         	goto	l10603
  4723   0015C4                     l10601:
  4724   0015C4  0100               	movlb	0	; () banked
  4725   0015C6  51E7               	movf	_spi_slave_reader& (0+255),w,b	;volatile
  4726   0015C8  0101               	movlb	1	; () banked
  4727   0015CA  6F13               	movwf	??_main& (0+255),b
  4728   0015CC  6B14               	clrf	(??_main+1)& (0+255),b
  4729                           
  4730                           ; Switch on 2 bytes has been partitioned into a top level switch of size 1, and 1 sub-sw
      +                          itches
  4731                           ; Switch size 1, requested type "simple"
  4732                           ; Number of cases is 1, Range of values is 0 to 0
  4733                           ; switch strategies available:
  4734                           ; Name         Instructions Cycles
  4735                           ; simple_byte            4     3 (average)
  4736                           ;	Chosen strategy is simple_byte
  4737   0015CE  5114               	movf	(??_main+1)& (0+255),w,b
  4738   0015D0  0A00               	xorlw	0	; case 0
  4739   0015D2  B4D8               	btfsc	status,2,c
  4740   0015D4  EFEE  F00A         	goto	l11415
  4741   0015D8  EFF9  F00A         	goto	l10603
  4742   0015DC                     l11415:
  4743                           
  4744                           ; BSR set to: 1
  4745                           ; Switch size 1, requested type "simple"
  4746                           ; Number of cases is 2, Range of values is 0 to 1
  4747                           ; switch strategies available:
  4748                           ; Name         Instructions Cycles
  4749                           ; simple_byte            7     4 (average)
  4750                           ;	Chosen strategy is simple_byte
  4751   0015DC  5113               	movf	??_main& (0+255),w,b
  4752   0015DE  0A00               	xorlw	0	; case 0
  4753   0015E0  B4D8               	btfsc	status,2,c
  4754   0015E2  EFCE  F00A         	goto	l10597
  4755   0015E6  0A01               	xorlw	1	; case 1
  4756   0015E8  B4D8               	btfsc	status,2,c
  4757   0015EA  EFBA  F00A         	goto	l10595
  4758   0015EE  EFF9  F00A         	goto	l10603
  4759   0015F2                     l10603:
  4760                           
  4761                           ;Application.c: 328:                 ret = lcd_send_ATpos_string_data(&lcd1 , 2 , 1 , "1
      +                          :led on");
  4762   0015F2  0E5D               	movlw	low _lcd1
  4763   0015F4  0101               	movlb	1	; () banked
  4764   0015F6  6F0B               	movwf	lcd_send_ATpos_string_data@_LCD_& (0+255),b
  4765   0015F8  0E00               	movlw	high _lcd1
  4766   0015FA  6F0C               	movwf	(lcd_send_ATpos_string_data@_LCD_+1)& (0+255),b
  4767   0015FC  0E02               	movlw	2
  4768   0015FE  6F0D               	movwf	lcd_send_ATpos_string_data@row& (0+255),b
  4769   001600  0E01               	movlw	1
  4770   001602  6F0E               	movwf	lcd_send_ATpos_string_data@coulmns& (0+255),b
  4771   001604  0E92               	movlw	low STR_40
  4772   001606  6F0F               	movwf	lcd_send_ATpos_string_data@str& (0+255),b
  4773   001608  0EFF               	movlw	high STR_40
  4774   00160A  6F10               	movwf	(lcd_send_ATpos_string_data@str+1)& (0+255),b
  4775   00160C  ECB8  F01C         	call	_lcd_send_ATpos_string_data	;wreg free
  4776   001610  C10B  F0FE         	movff	?_lcd_send_ATpos_string_data,_ret
  4777   001614  C10C  F0FF         	movff	?_lcd_send_ATpos_string_data+1,_ret+1
  4778                           
  4779                           ;Application.c: 329:                 ret = lcd_send_ATpos_string_data(&lcd1 , 3 , 1 , "2
      +                          :led off");
  4780   001618  0E5D               	movlw	low _lcd1
  4781   00161A  0101               	movlb	1	; () banked
  4782   00161C  6F0B               	movwf	lcd_send_ATpos_string_data@_LCD_& (0+255),b
  4783   00161E  0E00               	movlw	high _lcd1
  4784   001620  6F0C               	movwf	(lcd_send_ATpos_string_data@_LCD_+1)& (0+255),b
  4785   001622  0E03               	movlw	3
  4786   001624  6F0D               	movwf	lcd_send_ATpos_string_data@row& (0+255),b
  4787   001626  0E01               	movlw	1
  4788   001628  6F0E               	movwf	lcd_send_ATpos_string_data@coulmns& (0+255),b
  4789   00162A  0E52               	movlw	low STR_41
  4790   00162C  6F0F               	movwf	lcd_send_ATpos_string_data@str& (0+255),b
  4791   00162E  0EFF               	movlw	high STR_41
  4792   001630  6F10               	movwf	(lcd_send_ATpos_string_data@str+1)& (0+255),b
  4793   001632  ECB8  F01C         	call	_lcd_send_ATpos_string_data	;wreg free
  4794   001636  C10B  F0FE         	movff	?_lcd_send_ATpos_string_data,_ret
  4795   00163A  C10C  F0FF         	movff	?_lcd_send_ATpos_string_data+1,_ret+1
  4796                           
  4797                           ;Application.c: 330:                 ret = lcd_send_ATpos_string_data(&lcd1 , 4 , 1 , "0
      +                          :Ret");
  4798   00163E  0E5D               	movlw	low _lcd1
  4799   001640  0101               	movlb	1	; () banked
  4800   001642  6F0B               	movwf	lcd_send_ATpos_string_data@_LCD_& (0+255),b
  4801   001644  0E00               	movlw	high _lcd1
  4802   001646  6F0C               	movwf	(lcd_send_ATpos_string_data@_LCD_+1)& (0+255),b
  4803   001648  0E04               	movlw	4
  4804   00164A  6F0D               	movwf	lcd_send_ATpos_string_data@row& (0+255),b
  4805   00164C  0E01               	movlw	1
  4806   00164E  6F0E               	movwf	lcd_send_ATpos_string_data@coulmns& (0+255),b
  4807   001650  0EE9               	movlw	low STR_42
  4808   001652  6F0F               	movwf	lcd_send_ATpos_string_data@str& (0+255),b
  4809   001654  0EFF               	movlw	high STR_42
  4810   001656  6F10               	movwf	(lcd_send_ATpos_string_data@str+1)& (0+255),b
  4811   001658  ECB8  F01C         	call	_lcd_send_ATpos_string_data	;wreg free
  4812   00165C  C10B  F0FE         	movff	?_lcd_send_ATpos_string_data,_ret
  4813   001660  C10C  F0FF         	movff	?_lcd_send_ATpos_string_data+1,_ret+1
  4814   001664                     
  4815                           ;Application.c: 331:                 key_status = 0;
  4816   001664  0E00               	movlw	0
  4817   001666  0100               	movlb	0	; () banked
  4818   001668  6FEA               	movwf	_key_status& (0+255),b
  4819   00166A                     l10607:
  4820                           
  4821                           ; BSR set to: 0
  4822                           ;Application.c: 333:                     ret = Key_Pad_Get_Value(&key_pad1, &key_status)
      +                          ;
  4823   00166A  0EA4               	movlw	low _key_pad1
  4824   00166C  6FF7               	movwf	Key_Pad_Get_Value@_key_pad& (0+255),b
  4825   00166E  0E00               	movlw	high _key_pad1
  4826   001670  6FF8               	movwf	(Key_Pad_Get_Value@_key_pad+1)& (0+255),b
  4827   001672  0EEA               	movlw	low _key_status
  4828   001674  6FF9               	movwf	Key_Pad_Get_Value@value& (0+255),b
  4829   001676  0E00               	movlw	high _key_status
  4830   001678  6FFA               	movwf	(Key_Pad_Get_Value@value+1)& (0+255),b
  4831   00167A  ECEB  F016         	call	_Key_Pad_Get_Value	;wreg free
  4832   00167E  C0F7  F0FE         	movff	?_Key_Pad_Get_Value,_ret
  4833   001682  C0F8  F0FF         	movff	?_Key_Pad_Get_Value+1,_ret+1
  4834                           
  4835                           ;Application.c: 334:                 } while (0 == key_status);
  4836   001686  0100               	movlb	0	; () banked
  4837   001688  51EA               	movf	_key_status& (0+255),w,b
  4838   00168A  B4D8               	btfsc	status,2,c
  4839   00168C  EF4A  F00B         	goto	u9421
  4840   001690  EF4C  F00B         	goto	u9420
  4841   001694                     u9421:
  4842   001694  EF35  F00B         	goto	l10607
  4843   001698                     u9420:
  4844   001698                     
  4845                           ; BSR set to: 0
  4846                           ;Application.c: 335:                 _delay((unsigned long)((300)*(4000000UL/4000.0)));
  4847   001698  0E02               	movlw	2
  4848   00169A  0101               	movlb	1	; () banked
  4849   00169C  6F14               	movwf	(??_main+1)& (0+255),b
  4850   00169E  0E86               	movlw	134
  4851   0016A0  6F13               	movwf	??_main& (0+255),b
  4852   0016A2  0E99               	movlw	153
  4853   0016A4                     u9957:
  4854   0016A4  2EE8               	decfsz	wreg,f,c
  4855   0016A6  D7FE               	bra	u9957
  4856   0016A8  2F13               	decfsz	??_main& (0+255),f,b
  4857   0016AA  D7FC               	bra	u9957
  4858   0016AC  2F14               	decfsz	(??_main+1)& (0+255),f,b
  4859   0016AE  D7FA               	bra	u9957
  4860                           
  4861                           ;Application.c: 336:                 switch(key_status)
  4862   0016B0  EF72  F00B         	goto	l10621
  4863   0016B4                     l10611:
  4864                           
  4865                           ; BSR set to: 1
  4866   0016B4  0E03               	movlw	3
  4867   0016B6  EC08  F01F         	call	_SPI_Send_Byte
  4868   0016BA  C0EB  F0FE         	movff	?_SPI_Send_Byte,_ret
  4869   0016BE  C0EC  F0FF         	movff	?_SPI_Send_Byte+1,_ret+1
  4870   0016C2  0E01               	movlw	1
  4871   0016C4  0100               	movlb	0	; () banked
  4872   0016C6  6FE7               	movwf	_spi_slave_reader& (0+255),b	;volatile
  4873   0016C8  EF89  F00B         	goto	l10623
  4874   0016CC                     l10615:
  4875                           
  4876                           ; BSR set to: 1
  4877   0016CC  0E07               	movlw	7
  4878   0016CE  EC08  F01F         	call	_SPI_Send_Byte
  4879   0016D2  C0EB  F0FE         	movff	?_SPI_Send_Byte,_ret
  4880   0016D6  C0EC  F0FF         	movff	?_SPI_Send_Byte+1,_ret+1
  4881   0016DA  0E00               	movlw	0
  4882   0016DC  0100               	movlb	0	; () banked
  4883   0016DE  6FE7               	movwf	_spi_slave_reader& (0+255),b	;volatile
  4884   0016E0  EF89  F00B         	goto	l10623
  4885   0016E4                     l10621:
  4886   0016E4  0100               	movlb	0	; () banked
  4887   0016E6  51EA               	movf	_key_status& (0+255),w,b
  4888   0016E8  0101               	movlb	1	; () banked
  4889   0016EA  6F13               	movwf	??_main& (0+255),b
  4890   0016EC  6B14               	clrf	(??_main+1)& (0+255),b
  4891                           
  4892                           ; Switch on 2 bytes has been partitioned into a top level switch of size 1, and 1 sub-sw
      +                          itches
  4893                           ; Switch size 1, requested type "simple"
  4894                           ; Number of cases is 1, Range of values is 0 to 0
  4895                           ; switch strategies available:
  4896                           ; Name         Instructions Cycles
  4897                           ; simple_byte            4     3 (average)
  4898                           ;	Chosen strategy is simple_byte
  4899   0016EE  5114               	movf	(??_main+1)& (0+255),w,b
  4900   0016F0  0A00               	xorlw	0	; case 0
  4901   0016F2  B4D8               	btfsc	status,2,c
  4902   0016F4  EF7E  F00B         	goto	l11417
  4903   0016F8  EF89  F00B         	goto	l10623
  4904   0016FC                     l11417:
  4905                           
  4906                           ; BSR set to: 1
  4907                           ; Switch size 1, requested type "simple"
  4908                           ; Number of cases is 2, Range of values is 49 to 50
  4909                           ; switch strategies available:
  4910                           ; Name         Instructions Cycles
  4911                           ; simple_byte            7     4 (average)
  4912                           ;	Chosen strategy is simple_byte
  4913   0016FC  5113               	movf	??_main& (0+255),w,b
  4914   0016FE  0A31               	xorlw	49	; case 49
  4915   001700  B4D8               	btfsc	status,2,c
  4916   001702  EF5A  F00B         	goto	l10611
  4917   001706  0A03               	xorlw	3	; case 50
  4918   001708  B4D8               	btfsc	status,2,c
  4919   00170A  EF66  F00B         	goto	l10615
  4920   00170E  EF89  F00B         	goto	l10623
  4921   001712                     l10623:
  4922                           
  4923                           ;Application.c: 341:                 if('0' == key_status){
  4924   001712  0E30               	movlw	48
  4925   001714  0100               	movlb	0	; () banked
  4926   001716  19EA               	xorwf	_key_status& (0+255),w,b
  4927   001718  A4D8               	btfss	status,2,c
  4928   00171A  EF91  F00B         	goto	u9431
  4929   00171E  EF93  F00B         	goto	u9430
  4930   001722                     u9431:
  4931   001722  EFA2  F00B         	goto	l10629
  4932   001726                     u9430:
  4933   001726                     
  4934                           ; BSR set to: 0
  4935                           ;Application.c: 342:                     ret = lcd_send_command(&lcd1 , 0x01);
  4936   001726  0E5D               	movlw	low _lcd1
  4937   001728  0101               	movlb	1	; () banked
  4938   00172A  6F00               	movwf	lcd_send_command@_LCD_& (0+255),b
  4939   00172C  0E00               	movlw	high _lcd1
  4940   00172E  6F01               	movwf	(lcd_send_command@_LCD_+1)& (0+255),b
  4941   001730  0E01               	movlw	1
  4942   001732  6F02               	movwf	lcd_send_command@command& (0+255),b
  4943   001734  EC52  F01B         	call	_lcd_send_command	;wreg free
  4944   001738  C100  F0FE         	movff	?_lcd_send_command,_ret
  4945   00173C  C101  F0FF         	movff	?_lcd_send_command+1,_ret+1
  4946                           
  4947                           ;Application.c: 343:                     break;
  4948   001740  EFFB  F00B         	goto	l10645
  4949   001744                     l10629:
  4950                           
  4951                           ; BSR set to: 0
  4952   001744  0E31               	movlw	49
  4953   001746  19EA               	xorwf	_key_status& (0+255),w,b
  4954   001748  B4D8               	btfsc	status,2,c
  4955   00174A  EFA9  F00B         	goto	u9441
  4956   00174E  EFAB  F00B         	goto	u9440
  4957   001752                     u9441:
  4958   001752  EFE1  F00B         	goto	l10639
  4959   001756                     u9440:
  4960   001756                     
  4961                           ; BSR set to: 0
  4962   001756  0E32               	movlw	50
  4963   001758  19EA               	xorwf	_key_status& (0+255),w,b
  4964   00175A  B4D8               	btfsc	status,2,c
  4965   00175C  EFB2  F00B         	goto	u9451
  4966   001760  EFB4  F00B         	goto	u9450
  4967   001764                     u9451:
  4968   001764  EFE1  F00B         	goto	l10639
  4969   001768                     u9450:
  4970   001768                     
  4971                           ; BSR set to: 0
  4972                           ;Application.c: 345:                     ret = lcd_send_command(&lcd1 , 0x01);
  4973   001768  0E5D               	movlw	low _lcd1
  4974   00176A  0101               	movlb	1	; () banked
  4975   00176C  6F00               	movwf	lcd_send_command@_LCD_& (0+255),b
  4976   00176E  0E00               	movlw	high _lcd1
  4977   001770  6F01               	movwf	(lcd_send_command@_LCD_+1)& (0+255),b
  4978   001772  0E01               	movlw	1
  4979   001774  6F02               	movwf	lcd_send_command@command& (0+255),b
  4980   001776  EC52  F01B         	call	_lcd_send_command	;wreg free
  4981   00177A  C100  F0FE         	movff	?_lcd_send_command,_ret
  4982   00177E  C101  F0FF         	movff	?_lcd_send_command+1,_ret+1
  4983   001782                     
  4984                           ;Application.c: 346:                     ret = lcd_send_ATpos_string_data(&lcd1 , 1 , 1 
      +                          , "Wrong choice");
  4985   001782  0E5D               	movlw	low _lcd1
  4986   001784  0101               	movlb	1	; () banked
  4987   001786  6F0B               	movwf	lcd_send_ATpos_string_data@_LCD_& (0+255),b
  4988   001788  0E00               	movlw	high _lcd1
  4989   00178A  6F0C               	movwf	(lcd_send_ATpos_string_data@_LCD_+1)& (0+255),b
  4990   00178C  0E01               	movlw	1
  4991   00178E  6F0D               	movwf	lcd_send_ATpos_string_data@row& (0+255),b
  4992   001790  0E01               	movlw	1
  4993   001792  6F0E               	movwf	lcd_send_ATpos_string_data@coulmns& (0+255),b
  4994   001794  0E0A               	movlw	low STR_36
  4995   001796  6F0F               	movwf	lcd_send_ATpos_string_data@str& (0+255),b
  4996   001798  0EFF               	movlw	high STR_36
  4997   00179A  6F10               	movwf	(lcd_send_ATpos_string_data@str+1)& (0+255),b
  4998   00179C  ECB8  F01C         	call	_lcd_send_ATpos_string_data	;wreg free
  4999   0017A0  C10B  F0FE         	movff	?_lcd_send_ATpos_string_data,_ret
  5000   0017A4  C10C  F0FF         	movff	?_lcd_send_ATpos_string_data+1,_ret+1
  5001   0017A8                     
  5002                           ;Application.c: 347:                     _delay((unsigned long)((500)*(4000000UL/4000.0)
      +                          ));
  5003   0017A8  0E03               	movlw	3
  5004   0017AA  0101               	movlb	1	; () banked
  5005   0017AC  6F14               	movwf	(??_main+1)& (0+255),b
  5006   0017AE  0E8A               	movlw	138
  5007   0017B0  6F13               	movwf	??_main& (0+255),b
  5008   0017B2  0E55               	movlw	85
  5009   0017B4                     u9967:
  5010   0017B4  2EE8               	decfsz	wreg,f,c
  5011   0017B6  D7FE               	bra	u9967
  5012   0017B8  2F13               	decfsz	??_main& (0+255),f,b
  5013   0017BA  D7FC               	bra	u9967
  5014   0017BC  2F14               	decfsz	(??_main+1)& (0+255),f,b
  5015   0017BE  D7FA               	bra	u9967
  5016   0017C0  D000               	nop2	
  5017   0017C2                     l10639:
  5018                           
  5019                           ;Application.c: 351:                 key_status = '3';
  5020   0017C2  0E33               	movlw	51
  5021   0017C4  0100               	movlb	0	; () banked
  5022   0017C6  6FEA               	movwf	_key_status& (0+255),b
  5023   0017C8                     
  5024                           ; BSR set to: 0
  5025                           ;Application.c: 352:                 _delay((unsigned long)((500)*(4000000UL/4000.0)));
  5026   0017C8  0E03               	movlw	3
  5027   0017CA  0101               	movlb	1	; () banked
  5028   0017CC  6F14               	movwf	(??_main+1)& (0+255),b
  5029   0017CE  0E8A               	movlw	138
  5030   0017D0  6F13               	movwf	??_main& (0+255),b
  5031   0017D2  0E55               	movlw	85
  5032   0017D4                     u9977:
  5033   0017D4  2EE8               	decfsz	wreg,f,c
  5034   0017D6  D7FE               	bra	u9977
  5035   0017D8  2F13               	decfsz	??_main& (0+255),f,b
  5036   0017DA  D7FC               	bra	u9977
  5037   0017DC  2F14               	decfsz	(??_main+1)& (0+255),f,b
  5038   0017DE  D7FA               	bra	u9977
  5039   0017E0  D000               	nop2	
  5040   0017E2                     l10643:
  5041                           
  5042                           ;Application.c: 320:             }while('3' == key_status){
  5043   0017E2  0E33               	movlw	51
  5044   0017E4  0100               	movlb	0	; () banked
  5045   0017E6  19EA               	xorwf	_key_status& (0+255),w,b
  5046   0017E8  B4D8               	btfsc	status,2,c
  5047   0017EA  EFF9  F00B         	goto	u9461
  5048   0017EE  EFFB  F00B         	goto	u9460
  5049   0017F2                     u9461:
  5050   0017F2  EF98  F00A         	goto	l10591
  5051   0017F6                     u9460:
  5052   0017F6                     l10645:
  5053                           
  5054                           ;Application.c: 354:             if((uint8)4 == Guest_pass_flag){
  5055   0017F6  0E04               	movlw	4
  5056   0017F8  0100               	movlb	0	; () banked
  5057   0017FA  19E8               	xorwf	_Guest_pass_flag& (0+255),w,b
  5058   0017FC  A4D8               	btfss	status,2,c
  5059   0017FE  EF03  F00C         	goto	u9471
  5060   001802  EF05  F00C         	goto	u9470
  5061   001806                     u9471:
  5062   001806  EF6C  F00D         	goto	l10703
  5063   00180A                     u9470:
  5064   00180A  EF60  F00D         	goto	l10701
  5065   00180E                     l10649:
  5066                           
  5067                           ; BSR set to: 0
  5068                           ;Application.c: 356:                     ret = lcd_send_command(&lcd1 , 0x01);
  5069   00180E  0E5D               	movlw	low _lcd1
  5070   001810  0101               	movlb	1	; () banked
  5071   001812  6F00               	movwf	lcd_send_command@_LCD_& (0+255),b
  5072   001814  0E00               	movlw	high _lcd1
  5073   001816  6F01               	movwf	(lcd_send_command@_LCD_+1)& (0+255),b
  5074   001818  0E01               	movlw	1
  5075   00181A  6F02               	movwf	lcd_send_command@command& (0+255),b
  5076   00181C  EC52  F01B         	call	_lcd_send_command	;wreg free
  5077   001820  C100  F0FE         	movff	?_lcd_send_command,_ret
  5078   001824  C101  F0FF         	movff	?_lcd_send_command+1,_ret+1
  5079   001828                     
  5080                           ;Application.c: 357:                     ret = lcd_send_ATpos_string_data(&lcd1 , 1 , 1 
      +                          , "Room4 S:");
  5081   001828  0E5D               	movlw	low _lcd1
  5082   00182A  0101               	movlb	1	; () banked
  5083   00182C  6F0B               	movwf	lcd_send_ATpos_string_data@_LCD_& (0+255),b
  5084   00182E  0E00               	movlw	high _lcd1
  5085   001830  6F0C               	movwf	(lcd_send_ATpos_string_data@_LCD_+1)& (0+255),b
  5086   001832  0E01               	movlw	1
  5087   001834  6F0D               	movwf	lcd_send_ATpos_string_data@row& (0+255),b
  5088   001836  0E01               	movlw	1
  5089   001838  6F0E               	movwf	lcd_send_ATpos_string_data@coulmns& (0+255),b
  5090   00183A  0E77               	movlw	low STR_58
  5091   00183C  6F0F               	movwf	lcd_send_ATpos_string_data@str& (0+255),b
  5092   00183E  0EFF               	movlw	high STR_58
  5093   001840  6F10               	movwf	(lcd_send_ATpos_string_data@str+1)& (0+255),b
  5094   001842  ECB8  F01C         	call	_lcd_send_ATpos_string_data	;wreg free
  5095   001846  C10B  F0FE         	movff	?_lcd_send_ATpos_string_data,_ret
  5096   00184A  C10C  F0FF         	movff	?_lcd_send_ATpos_string_data+1,_ret+1
  5097                           
  5098                           ;Application.c: 358:                     switch(spi_slave_reader)
  5099   00184E  EF51  F00C         	goto	l10659
  5100   001852                     l10653:
  5101                           
  5102                           ; BSR set to: 1
  5103   001852  0E5D               	movlw	low _lcd1
  5104   001854  6F0B               	movwf	lcd_send_ATpos_string_data@_LCD_& (0+255),b
  5105   001856  0E00               	movlw	high _lcd1
  5106   001858  6F0C               	movwf	(lcd_send_ATpos_string_data@_LCD_+1)& (0+255),b
  5107   00185A  0E01               	movlw	1
  5108   00185C  6F0D               	movwf	lcd_send_ATpos_string_data@row& (0+255),b
  5109   00185E  0E09               	movlw	9
  5110   001860  6F0E               	movwf	lcd_send_ATpos_string_data@coulmns& (0+255),b
  5111   001862  0EF4               	movlw	low STR_38
  5112   001864  6F0F               	movwf	lcd_send_ATpos_string_data@str& (0+255),b
  5113   001866  0EFF               	movlw	high STR_38
  5114   001868  6F10               	movwf	(lcd_send_ATpos_string_data@str+1)& (0+255),b
  5115   00186A  ECB8  F01C         	call	_lcd_send_ATpos_string_data	;wreg free
  5116   00186E  C10B  F0FE         	movff	?_lcd_send_ATpos_string_data,_ret
  5117   001872  C10C  F0FF         	movff	?_lcd_send_ATpos_string_data+1,_ret+1
  5118   001876  EF68  F00C         	goto	l10661
  5119   00187A                     l10655:
  5120                           
  5121                           ; BSR set to: 1
  5122   00187A  0E5D               	movlw	low _lcd1
  5123   00187C  6F0B               	movwf	lcd_send_ATpos_string_data@_LCD_& (0+255),b
  5124   00187E  0E00               	movlw	high _lcd1
  5125   001880  6F0C               	movwf	(lcd_send_ATpos_string_data@_LCD_+1)& (0+255),b
  5126   001882  0E01               	movlw	1
  5127   001884  6F0D               	movwf	lcd_send_ATpos_string_data@row& (0+255),b
  5128   001886  0E09               	movlw	9
  5129   001888  6F0E               	movwf	lcd_send_ATpos_string_data@coulmns& (0+255),b
  5130   00188A  0EF8               	movlw	low STR_39
  5131   00188C  6F0F               	movwf	lcd_send_ATpos_string_data@str& (0+255),b
  5132   00188E  0EFF               	movlw	high STR_39
  5133   001890  6F10               	movwf	(lcd_send_ATpos_string_data@str+1)& (0+255),b
  5134   001892  ECB8  F01C         	call	_lcd_send_ATpos_string_data	;wreg free
  5135   001896  C10B  F0FE         	movff	?_lcd_send_ATpos_string_data,_ret
  5136   00189A  C10C  F0FF         	movff	?_lcd_send_ATpos_string_data+1,_ret+1
  5137   00189E  EF68  F00C         	goto	l10661
  5138   0018A2                     l10659:
  5139   0018A2  0100               	movlb	0	; () banked
  5140   0018A4  51E7               	movf	_spi_slave_reader& (0+255),w,b	;volatile
  5141   0018A6  0101               	movlb	1	; () banked
  5142   0018A8  6F13               	movwf	??_main& (0+255),b
  5143   0018AA  6B14               	clrf	(??_main+1)& (0+255),b
  5144                           
  5145                           ; Switch on 2 bytes has been partitioned into a top level switch of size 1, and 1 sub-sw
      +                          itches
  5146                           ; Switch size 1, requested type "simple"
  5147                           ; Number of cases is 1, Range of values is 0 to 0
  5148                           ; switch strategies available:
  5149                           ; Name         Instructions Cycles
  5150                           ; simple_byte            4     3 (average)
  5151                           ;	Chosen strategy is simple_byte
  5152   0018AC  5114               	movf	(??_main+1)& (0+255),w,b
  5153   0018AE  0A00               	xorlw	0	; case 0
  5154   0018B0  B4D8               	btfsc	status,2,c
  5155   0018B2  EF5D  F00C         	goto	l11419
  5156   0018B6  EF68  F00C         	goto	l10661
  5157   0018BA                     l11419:
  5158                           
  5159                           ; BSR set to: 1
  5160                           ; Switch size 1, requested type "simple"
  5161                           ; Number of cases is 2, Range of values is 0 to 1
  5162                           ; switch strategies available:
  5163                           ; Name         Instructions Cycles
  5164                           ; simple_byte            7     4 (average)
  5165                           ;	Chosen strategy is simple_byte
  5166   0018BA  5113               	movf	??_main& (0+255),w,b
  5167   0018BC  0A00               	xorlw	0	; case 0
  5168   0018BE  B4D8               	btfsc	status,2,c
  5169   0018C0  EF3D  F00C         	goto	l10655
  5170   0018C4  0A01               	xorlw	1	; case 1
  5171   0018C6  B4D8               	btfsc	status,2,c
  5172   0018C8  EF29  F00C         	goto	l10653
  5173   0018CC  EF68  F00C         	goto	l10661
  5174   0018D0                     l10661:
  5175                           
  5176                           ;Application.c: 363:                     ret = lcd_send_ATpos_string_data(&lcd1 , 2 , 1 
      +                          , "1:led on");
  5177   0018D0  0E5D               	movlw	low _lcd1
  5178   0018D2  0101               	movlb	1	; () banked
  5179   0018D4  6F0B               	movwf	lcd_send_ATpos_string_data@_LCD_& (0+255),b
  5180   0018D6  0E00               	movlw	high _lcd1
  5181   0018D8  6F0C               	movwf	(lcd_send_ATpos_string_data@_LCD_+1)& (0+255),b
  5182   0018DA  0E02               	movlw	2
  5183   0018DC  6F0D               	movwf	lcd_send_ATpos_string_data@row& (0+255),b
  5184   0018DE  0E01               	movlw	1
  5185   0018E0  6F0E               	movwf	lcd_send_ATpos_string_data@coulmns& (0+255),b
  5186   0018E2  0E92               	movlw	low STR_40
  5187   0018E4  6F0F               	movwf	lcd_send_ATpos_string_data@str& (0+255),b
  5188   0018E6  0EFF               	movlw	high STR_40
  5189   0018E8  6F10               	movwf	(lcd_send_ATpos_string_data@str+1)& (0+255),b
  5190   0018EA  ECB8  F01C         	call	_lcd_send_ATpos_string_data	;wreg free
  5191   0018EE  C10B  F0FE         	movff	?_lcd_send_ATpos_string_data,_ret
  5192   0018F2  C10C  F0FF         	movff	?_lcd_send_ATpos_string_data+1,_ret+1
  5193                           
  5194                           ;Application.c: 364:                     ret = lcd_send_ATpos_string_data(&lcd1 , 3 , 1 
      +                          , "2:led off");
  5195   0018F6  0E5D               	movlw	low _lcd1
  5196   0018F8  0101               	movlb	1	; () banked
  5197   0018FA  6F0B               	movwf	lcd_send_ATpos_string_data@_LCD_& (0+255),b
  5198   0018FC  0E00               	movlw	high _lcd1
  5199   0018FE  6F0C               	movwf	(lcd_send_ATpos_string_data@_LCD_+1)& (0+255),b
  5200   001900  0E03               	movlw	3
  5201   001902  6F0D               	movwf	lcd_send_ATpos_string_data@row& (0+255),b
  5202   001904  0E01               	movlw	1
  5203   001906  6F0E               	movwf	lcd_send_ATpos_string_data@coulmns& (0+255),b
  5204   001908  0E52               	movlw	low STR_41
  5205   00190A  6F0F               	movwf	lcd_send_ATpos_string_data@str& (0+255),b
  5206   00190C  0EFF               	movlw	high STR_41
  5207   00190E  6F10               	movwf	(lcd_send_ATpos_string_data@str+1)& (0+255),b
  5208   001910  ECB8  F01C         	call	_lcd_send_ATpos_string_data	;wreg free
  5209   001914  C10B  F0FE         	movff	?_lcd_send_ATpos_string_data,_ret
  5210   001918  C10C  F0FF         	movff	?_lcd_send_ATpos_string_data+1,_ret+1
  5211                           
  5212                           ;Application.c: 365:                     ret = lcd_send_ATpos_string_data(&lcd1 , 4 , 1 
      +                          , "0:Ret");
  5213   00191C  0E5D               	movlw	low _lcd1
  5214   00191E  0101               	movlb	1	; () banked
  5215   001920  6F0B               	movwf	lcd_send_ATpos_string_data@_LCD_& (0+255),b
  5216   001922  0E00               	movlw	high _lcd1
  5217   001924  6F0C               	movwf	(lcd_send_ATpos_string_data@_LCD_+1)& (0+255),b
  5218   001926  0E04               	movlw	4
  5219   001928  6F0D               	movwf	lcd_send_ATpos_string_data@row& (0+255),b
  5220   00192A  0E01               	movlw	1
  5221   00192C  6F0E               	movwf	lcd_send_ATpos_string_data@coulmns& (0+255),b
  5222   00192E  0EE9               	movlw	low STR_42
  5223   001930  6F0F               	movwf	lcd_send_ATpos_string_data@str& (0+255),b
  5224   001932  0EFF               	movlw	high STR_42
  5225   001934  6F10               	movwf	(lcd_send_ATpos_string_data@str+1)& (0+255),b
  5226   001936  ECB8  F01C         	call	_lcd_send_ATpos_string_data	;wreg free
  5227   00193A  C10B  F0FE         	movff	?_lcd_send_ATpos_string_data,_ret
  5228   00193E  C10C  F0FF         	movff	?_lcd_send_ATpos_string_data+1,_ret+1
  5229   001942                     
  5230                           ;Application.c: 366:                     key_status = 0;
  5231   001942  0E00               	movlw	0
  5232   001944  0100               	movlb	0	; () banked
  5233   001946  6FEA               	movwf	_key_status& (0+255),b
  5234   001948                     l10665:
  5235                           
  5236                           ; BSR set to: 0
  5237                           ;Application.c: 368:                         ret = Key_Pad_Get_Value(&key_pad1, &key_sta
      +                          tus);
  5238   001948  0EA4               	movlw	low _key_pad1
  5239   00194A  6FF7               	movwf	Key_Pad_Get_Value@_key_pad& (0+255),b
  5240   00194C  0E00               	movlw	high _key_pad1
  5241   00194E  6FF8               	movwf	(Key_Pad_Get_Value@_key_pad+1)& (0+255),b
  5242   001950  0EEA               	movlw	low _key_status
  5243   001952  6FF9               	movwf	Key_Pad_Get_Value@value& (0+255),b
  5244   001954  0E00               	movlw	high _key_status
  5245   001956  6FFA               	movwf	(Key_Pad_Get_Value@value+1)& (0+255),b
  5246   001958  ECEB  F016         	call	_Key_Pad_Get_Value	;wreg free
  5247   00195C  C0F7  F0FE         	movff	?_Key_Pad_Get_Value,_ret
  5248   001960  C0F8  F0FF         	movff	?_Key_Pad_Get_Value+1,_ret+1
  5249                           
  5250                           ;Application.c: 369:                     } while (0 == key_status);
  5251   001964  0100               	movlb	0	; () banked
  5252   001966  51EA               	movf	_key_status& (0+255),w,b
  5253   001968  B4D8               	btfsc	status,2,c
  5254   00196A  EFB9  F00C         	goto	u9481
  5255   00196E  EFBB  F00C         	goto	u9480
  5256   001972                     u9481:
  5257   001972  EFA4  F00C         	goto	l10665
  5258   001976                     u9480:
  5259   001976                     
  5260                           ; BSR set to: 0
  5261                           ;Application.c: 370:                     _delay((unsigned long)((300)*(4000000UL/4000.0)
      +                          ));
  5262   001976  0E02               	movlw	2
  5263   001978  0101               	movlb	1	; () banked
  5264   00197A  6F14               	movwf	(??_main+1)& (0+255),b
  5265   00197C  0E86               	movlw	134
  5266   00197E  6F13               	movwf	??_main& (0+255),b
  5267   001980  0E99               	movlw	153
  5268   001982                     u9987:
  5269   001982  2EE8               	decfsz	wreg,f,c
  5270   001984  D7FE               	bra	u9987
  5271   001986  2F13               	decfsz	??_main& (0+255),f,b
  5272   001988  D7FC               	bra	u9987
  5273   00198A  2F14               	decfsz	(??_main+1)& (0+255),f,b
  5274   00198C  D7FA               	bra	u9987
  5275                           
  5276                           ;Application.c: 371:                     switch (key_status) {
  5277   00198E  EFE1  F00C         	goto	l10679
  5278   001992                     l10669:
  5279                           
  5280                           ; BSR set to: 1
  5281   001992  0E04               	movlw	4
  5282   001994  EC08  F01F         	call	_SPI_Send_Byte
  5283   001998  C0EB  F0FE         	movff	?_SPI_Send_Byte,_ret
  5284   00199C  C0EC  F0FF         	movff	?_SPI_Send_Byte+1,_ret+1
  5285   0019A0                     
  5286                           ;Application.c: 373:                             spi_slave_reader = 1;
  5287   0019A0  0E01               	movlw	1
  5288   0019A2  0100               	movlb	0	; () banked
  5289   0019A4  6FE7               	movwf	_spi_slave_reader& (0+255),b	;volatile
  5290                           
  5291                           ;Application.c: 374:                                 break;
  5292   0019A6  EFF8  F00C         	goto	l10681
  5293   0019AA                     l10673:
  5294                           
  5295                           ; BSR set to: 1
  5296   0019AA  0E08               	movlw	8
  5297   0019AC  EC08  F01F         	call	_SPI_Send_Byte
  5298   0019B0  C0EB  F0FE         	movff	?_SPI_Send_Byte,_ret
  5299   0019B4  C0EC  F0FF         	movff	?_SPI_Send_Byte+1,_ret+1
  5300   0019B8                     
  5301                           ;Application.c: 376:                             spi_slave_reader = 0;
  5302   0019B8  0E00               	movlw	0
  5303   0019BA  0100               	movlb	0	; () banked
  5304   0019BC  6FE7               	movwf	_spi_slave_reader& (0+255),b	;volatile
  5305                           
  5306                           ;Application.c: 377:                                 break;
  5307   0019BE  EFF8  F00C         	goto	l10681
  5308   0019C2                     l10679:
  5309   0019C2  0100               	movlb	0	; () banked
  5310   0019C4  51EA               	movf	_key_status& (0+255),w,b
  5311   0019C6  0101               	movlb	1	; () banked
  5312   0019C8  6F13               	movwf	??_main& (0+255),b
  5313   0019CA  6B14               	clrf	(??_main+1)& (0+255),b
  5314                           
  5315                           ; Switch on 2 bytes has been partitioned into a top level switch of size 1, and 1 sub-sw
      +                          itches
  5316                           ; Switch size 1, requested type "simple"
  5317                           ; Number of cases is 1, Range of values is 0 to 0
  5318                           ; switch strategies available:
  5319                           ; Name         Instructions Cycles
  5320                           ; simple_byte            4     3 (average)
  5321                           ;	Chosen strategy is simple_byte
  5322   0019CC  5114               	movf	(??_main+1)& (0+255),w,b
  5323   0019CE  0A00               	xorlw	0	; case 0
  5324   0019D0  B4D8               	btfsc	status,2,c
  5325   0019D2  EFED  F00C         	goto	l11421
  5326   0019D6  EFF8  F00C         	goto	l10681
  5327   0019DA                     l11421:
  5328                           
  5329                           ; BSR set to: 1
  5330                           ; Switch size 1, requested type "simple"
  5331                           ; Number of cases is 2, Range of values is 49 to 50
  5332                           ; switch strategies available:
  5333                           ; Name         Instructions Cycles
  5334                           ; simple_byte            7     4 (average)
  5335                           ;	Chosen strategy is simple_byte
  5336   0019DA  5113               	movf	??_main& (0+255),w,b
  5337   0019DC  0A31               	xorlw	49	; case 49
  5338   0019DE  B4D8               	btfsc	status,2,c
  5339   0019E0  EFC9  F00C         	goto	l10669
  5340   0019E4  0A03               	xorlw	3	; case 50
  5341   0019E6  B4D8               	btfsc	status,2,c
  5342   0019E8  EFD5  F00C         	goto	l10673
  5343   0019EC  EFF8  F00C         	goto	l10681
  5344   0019F0                     l10681:
  5345                           
  5346                           ;Application.c: 379:                     if('0' == key_status){
  5347   0019F0  0E30               	movlw	48
  5348   0019F2  0100               	movlb	0	; () banked
  5349   0019F4  19EA               	xorwf	_key_status& (0+255),w,b
  5350   0019F6  A4D8               	btfss	status,2,c
  5351   0019F8  EF00  F00D         	goto	u9491
  5352   0019FC  EF02  F00D         	goto	u9490
  5353   001A00                     u9491:
  5354   001A00  EF11  F00D         	goto	l10687
  5355   001A04                     u9490:
  5356   001A04                     l10683:
  5357                           
  5358                           ; BSR set to: 0
  5359                           ;Application.c: 380:                         ret = lcd_send_command(&lcd1 , 0x01);
  5360   001A04  0E5D               	movlw	low _lcd1
  5361   001A06  0101               	movlb	1	; () banked
  5362   001A08  6F00               	movwf	lcd_send_command@_LCD_& (0+255),b
  5363   001A0A  0E00               	movlw	high _lcd1
  5364   001A0C  6F01               	movwf	(lcd_send_command@_LCD_+1)& (0+255),b
  5365   001A0E  0E01               	movlw	1
  5366   001A10  6F02               	movwf	lcd_send_command@command& (0+255),b
  5367   001A12  EC52  F01B         	call	_lcd_send_command	;wreg free
  5368   001A16  C100  F0FE         	movff	?_lcd_send_command,_ret
  5369   001A1A  C101  F0FF         	movff	?_lcd_send_command+1,_ret+1
  5370                           
  5371                           ;Application.c: 381:                         break;
  5372   001A1E  EF4A  F011         	goto	l10861
  5373   001A22                     l10687:
  5374                           
  5375                           ; BSR set to: 0
  5376   001A22  0E31               	movlw	49
  5377   001A24  19EA               	xorwf	_key_status& (0+255),w,b
  5378   001A26  B4D8               	btfsc	status,2,c
  5379   001A28  EF18  F00D         	goto	u9501
  5380   001A2C  EF1A  F00D         	goto	u9500
  5381   001A30                     u9501:
  5382   001A30  EF50  F00D         	goto	l10697
  5383   001A34                     u9500:
  5384   001A34                     
  5385                           ; BSR set to: 0
  5386   001A34  0E32               	movlw	50
  5387   001A36  19EA               	xorwf	_key_status& (0+255),w,b
  5388   001A38  B4D8               	btfsc	status,2,c
  5389   001A3A  EF21  F00D         	goto	u9511
  5390   001A3E  EF23  F00D         	goto	u9510
  5391   001A42                     u9511:
  5392   001A42  EF50  F00D         	goto	l10697
  5393   001A46                     u9510:
  5394   001A46                     
  5395                           ; BSR set to: 0
  5396                           ;Application.c: 383:                         ret = lcd_send_command(&lcd1 , 0x01);
  5397   001A46  0E5D               	movlw	low _lcd1
  5398   001A48  0101               	movlb	1	; () banked
  5399   001A4A  6F00               	movwf	lcd_send_command@_LCD_& (0+255),b
  5400   001A4C  0E00               	movlw	high _lcd1
  5401   001A4E  6F01               	movwf	(lcd_send_command@_LCD_+1)& (0+255),b
  5402   001A50  0E01               	movlw	1
  5403   001A52  6F02               	movwf	lcd_send_command@command& (0+255),b
  5404   001A54  EC52  F01B         	call	_lcd_send_command	;wreg free
  5405   001A58  C100  F0FE         	movff	?_lcd_send_command,_ret
  5406   001A5C  C101  F0FF         	movff	?_lcd_send_command+1,_ret+1
  5407   001A60                     
  5408                           ;Application.c: 384:                         ret = lcd_send_ATpos_string_data(&lcd1 , 1 
      +                          , 1 , "Wrong choice");
  5409   001A60  0E5D               	movlw	low _lcd1
  5410   001A62  0101               	movlb	1	; () banked
  5411   001A64  6F0B               	movwf	lcd_send_ATpos_string_data@_LCD_& (0+255),b
  5412   001A66  0E00               	movlw	high _lcd1
  5413   001A68  6F0C               	movwf	(lcd_send_ATpos_string_data@_LCD_+1)& (0+255),b
  5414   001A6A  0E01               	movlw	1
  5415   001A6C  6F0D               	movwf	lcd_send_ATpos_string_data@row& (0+255),b
  5416   001A6E  0E01               	movlw	1
  5417   001A70  6F0E               	movwf	lcd_send_ATpos_string_data@coulmns& (0+255),b
  5418   001A72  0E0A               	movlw	low STR_36
  5419   001A74  6F0F               	movwf	lcd_send_ATpos_string_data@str& (0+255),b
  5420   001A76  0EFF               	movlw	high STR_36
  5421   001A78  6F10               	movwf	(lcd_send_ATpos_string_data@str+1)& (0+255),b
  5422   001A7A  ECB8  F01C         	call	_lcd_send_ATpos_string_data	;wreg free
  5423   001A7E  C10B  F0FE         	movff	?_lcd_send_ATpos_string_data,_ret
  5424   001A82  C10C  F0FF         	movff	?_lcd_send_ATpos_string_data+1,_ret+1
  5425   001A86                     
  5426                           ;Application.c: 385:                         _delay((unsigned long)((500)*(4000000UL/400
      +                          0.0)));
  5427   001A86  0E03               	movlw	3
  5428   001A88  0101               	movlb	1	; () banked
  5429   001A8A  6F14               	movwf	(??_main+1)& (0+255),b
  5430   001A8C  0E8A               	movlw	138
  5431   001A8E  6F13               	movwf	??_main& (0+255),b
  5432   001A90  0E55               	movlw	85
  5433   001A92                     u9997:
  5434   001A92  2EE8               	decfsz	wreg,f,c
  5435   001A94  D7FE               	bra	u9997
  5436   001A96  2F13               	decfsz	??_main& (0+255),f,b
  5437   001A98  D7FC               	bra	u9997
  5438   001A9A  2F14               	decfsz	(??_main+1)& (0+255),f,b
  5439   001A9C  D7FA               	bra	u9997
  5440   001A9E  D000               	nop2	
  5441   001AA0                     l10697:
  5442                           
  5443                           ;Application.c: 387:                     key_status = '4';
  5444   001AA0  0E34               	movlw	52
  5445   001AA2  0100               	movlb	0	; () banked
  5446   001AA4  6FEA               	movwf	_key_status& (0+255),b
  5447   001AA6                     
  5448                           ; BSR set to: 0
  5449                           ;Application.c: 388:                     _delay((unsigned long)((500)*(4000000UL/4000.0)
      +                          ));
  5450   001AA6  0E03               	movlw	3
  5451   001AA8  0101               	movlb	1	; () banked
  5452   001AAA  6F14               	movwf	(??_main+1)& (0+255),b
  5453   001AAC  0E8A               	movlw	138
  5454   001AAE  6F13               	movwf	??_main& (0+255),b
  5455   001AB0  0E55               	movlw	85
  5456   001AB2                     u10007:
  5457   001AB2  2EE8               	decfsz	wreg,f,c
  5458   001AB4  D7FE               	bra	u10007
  5459   001AB6  2F13               	decfsz	??_main& (0+255),f,b
  5460   001AB8  D7FC               	bra	u10007
  5461   001ABA  2F14               	decfsz	(??_main+1)& (0+255),f,b
  5462   001ABC  D7FA               	bra	u10007
  5463   001ABE  D000               	nop2	
  5464   001AC0                     l10701:
  5465                           
  5466                           ;Application.c: 355:                     while('4' == key_status){
  5467   001AC0  0E34               	movlw	52
  5468   001AC2  0100               	movlb	0	; () banked
  5469   001AC4  19EA               	xorwf	_key_status& (0+255),w,b
  5470   001AC6  B4D8               	btfsc	status,2,c
  5471   001AC8  EF68  F00D         	goto	u9521
  5472   001ACC  EF6A  F00D         	goto	u9520
  5473   001AD0                     u9521:
  5474   001AD0  EF07  F00C         	goto	l10649
  5475   001AD4                     u9520:
  5476   001AD4  EF4A  F011         	goto	l10861
  5477   001AD8                     l10703:
  5478                           
  5479                           ; BSR set to: 0
  5480   001AD8  0E04               	movlw	4
  5481   001ADA  19E9               	xorwf	_Admin_pass_flag& (0+255),w,b
  5482   001ADC  A4D8               	btfss	status,2,c
  5483   001ADE  EF73  F00D         	goto	u9531
  5484   001AE2  EF75  F00D         	goto	u9530
  5485   001AE6                     u9531:
  5486   001AE6  EF4A  F011         	goto	l10861
  5487   001AEA                     u9530:
  5488   001AEA  EF40  F011         	goto	l10859
  5489   001AEE                     l10707:
  5490                           
  5491                           ; BSR set to: 0
  5492                           ;Application.c: 392:                     ret = lcd_send_command(&lcd1 , 0x01);
  5493   001AEE  0E5D               	movlw	low _lcd1
  5494   001AF0  0101               	movlb	1	; () banked
  5495   001AF2  6F00               	movwf	lcd_send_command@_LCD_& (0+255),b
  5496   001AF4  0E00               	movlw	high _lcd1
  5497   001AF6  6F01               	movwf	(lcd_send_command@_LCD_+1)& (0+255),b
  5498   001AF8  0E01               	movlw	1
  5499   001AFA  6F02               	movwf	lcd_send_command@command& (0+255),b
  5500   001AFC  EC52  F01B         	call	_lcd_send_command	;wreg free
  5501   001B00  C100  F0FE         	movff	?_lcd_send_command,_ret
  5502   001B04  C101  F0FF         	movff	?_lcd_send_command+1,_ret+1
  5503   001B08                     
  5504                           ;Application.c: 393:                     ret = lcd_send_ATpos_string_data(&lcd1 , 1 , 1 
      +                          , "Admin Mode:-");
  5505   001B08  0E5D               	movlw	low _lcd1
  5506   001B0A  0101               	movlb	1	; () banked
  5507   001B0C  6F0B               	movwf	lcd_send_ATpos_string_data@_LCD_& (0+255),b
  5508   001B0E  0E00               	movlw	high _lcd1
  5509   001B10  6F0C               	movwf	(lcd_send_ATpos_string_data@_LCD_+1)& (0+255),b
  5510   001B12  0E01               	movlw	1
  5511   001B14  6F0D               	movwf	lcd_send_ATpos_string_data@row& (0+255),b
  5512   001B16  0E01               	movlw	1
  5513   001B18  6F0E               	movwf	lcd_send_ATpos_string_data@coulmns& (0+255),b
  5514   001B1A  0ED6               	movlw	low STR_15
  5515   001B1C  6F0F               	movwf	lcd_send_ATpos_string_data@str& (0+255),b
  5516   001B1E  0EFE               	movlw	high STR_15
  5517   001B20  6F10               	movwf	(lcd_send_ATpos_string_data@str+1)& (0+255),b
  5518   001B22  ECB8  F01C         	call	_lcd_send_ATpos_string_data	;wreg free
  5519   001B26  C10B  F0FE         	movff	?_lcd_send_ATpos_string_data,_ret
  5520   001B2A  C10C  F0FF         	movff	?_lcd_send_ATpos_string_data+1,_ret+1
  5521   001B2E                     
  5522                           ;Application.c: 394:                     ret = lcd_send_ATpos_string_data(&lcd1 , 2 , 1 
      +                          , "1:Room4");
  5523   001B2E  0E5D               	movlw	low _lcd1
  5524   001B30  0101               	movlb	1	; () banked
  5525   001B32  6F0B               	movwf	lcd_send_ATpos_string_data@_LCD_& (0+255),b
  5526   001B34  0E00               	movlw	high _lcd1
  5527   001B36  6F0C               	movwf	(lcd_send_ATpos_string_data@_LCD_+1)& (0+255),b
  5528   001B38  0E02               	movlw	2
  5529   001B3A  6F0D               	movwf	lcd_send_ATpos_string_data@row& (0+255),b
  5530   001B3C  0E01               	movlw	1
  5531   001B3E  6F0E               	movwf	lcd_send_ATpos_string_data@coulmns& (0+255),b
  5532   001B40  0EBC               	movlw	low STR_66
  5533   001B42  6F0F               	movwf	lcd_send_ATpos_string_data@str& (0+255),b
  5534   001B44  0EFF               	movlw	high STR_66
  5535   001B46  6F10               	movwf	(lcd_send_ATpos_string_data@str+1)& (0+255),b
  5536   001B48  ECB8  F01C         	call	_lcd_send_ATpos_string_data	;wreg free
  5537   001B4C  C10B  F0FE         	movff	?_lcd_send_ATpos_string_data,_ret
  5538   001B50  C10C  F0FF         	movff	?_lcd_send_ATpos_string_data+1,_ret+1
  5539   001B54                     
  5540                           ;Application.c: 395:                     ret = lcd_send_ATpos_string_data(&lcd1 , 2 , 11
      +                           , "2:TV");
  5541   001B54  0E5D               	movlw	low _lcd1
  5542   001B56  0101               	movlb	1	; () banked
  5543   001B58  6F0B               	movwf	lcd_send_ATpos_string_data@_LCD_& (0+255),b
  5544   001B5A  0E00               	movlw	high _lcd1
  5545   001B5C  6F0C               	movwf	(lcd_send_ATpos_string_data@_LCD_+1)& (0+255),b
  5546   001B5E  0E02               	movlw	2
  5547   001B60  6F0D               	movwf	lcd_send_ATpos_string_data@row& (0+255),b
  5548   001B62  0E0B               	movlw	11
  5549   001B64  6F0E               	movwf	lcd_send_ATpos_string_data@coulmns& (0+255),b
  5550   001B66  0EEF               	movlw	low STR_67
  5551   001B68  6F0F               	movwf	lcd_send_ATpos_string_data@str& (0+255),b
  5552   001B6A  0EFF               	movlw	high STR_67
  5553   001B6C  6F10               	movwf	(lcd_send_ATpos_string_data@str+1)& (0+255),b
  5554   001B6E  ECB8  F01C         	call	_lcd_send_ATpos_string_data	;wreg free
  5555   001B72  C10B  F0FE         	movff	?_lcd_send_ATpos_string_data,_ret
  5556   001B76  C10C  F0FF         	movff	?_lcd_send_ATpos_string_data+1,_ret+1
  5557   001B7A                     
  5558                           ;Application.c: 396:                     ret = lcd_send_ATpos_string_data(&lcd1 , 3 , 1 
      +                          , "3:Air con.");
  5559   001B7A  0E5D               	movlw	low _lcd1
  5560   001B7C  0101               	movlb	1	; () banked
  5561   001B7E  6F0B               	movwf	lcd_send_ATpos_string_data@_LCD_& (0+255),b
  5562   001B80  0E00               	movlw	high _lcd1
  5563   001B82  6F0C               	movwf	(lcd_send_ATpos_string_data@_LCD_+1)& (0+255),b
  5564   001B84  0E03               	movlw	3
  5565   001B86  6F0D               	movwf	lcd_send_ATpos_string_data@row& (0+255),b
  5566   001B88  0E01               	movlw	1
  5567   001B8A  6F0E               	movwf	lcd_send_ATpos_string_data@coulmns& (0+255),b
  5568   001B8C  0E47               	movlw	low STR_68
  5569   001B8E  6F0F               	movwf	lcd_send_ATpos_string_data@str& (0+255),b
  5570   001B90  0EFF               	movlw	high STR_68
  5571   001B92  6F10               	movwf	(lcd_send_ATpos_string_data@str+1)& (0+255),b
  5572   001B94  ECB8  F01C         	call	_lcd_send_ATpos_string_data	;wreg free
  5573   001B98  C10B  F0FE         	movff	?_lcd_send_ATpos_string_data,_ret
  5574   001B9C  C10C  F0FF         	movff	?_lcd_send_ATpos_string_data+1,_ret+1
  5575   001BA0                     
  5576                           ;Application.c: 397:                     ret = lcd_send_ATpos_string_data(&lcd1 , 3 , 11
      +                           , "0:Ret");
  5577   001BA0  0E5D               	movlw	low _lcd1
  5578   001BA2  0101               	movlb	1	; () banked
  5579   001BA4  6F0B               	movwf	lcd_send_ATpos_string_data@_LCD_& (0+255),b
  5580   001BA6  0E00               	movlw	high _lcd1
  5581   001BA8  6F0C               	movwf	(lcd_send_ATpos_string_data@_LCD_+1)& (0+255),b
  5582   001BAA  0E03               	movlw	3
  5583   001BAC  6F0D               	movwf	lcd_send_ATpos_string_data@row& (0+255),b
  5584   001BAE  0E0B               	movlw	11
  5585   001BB0  6F0E               	movwf	lcd_send_ATpos_string_data@coulmns& (0+255),b
  5586   001BB2  0EE9               	movlw	low STR_42
  5587   001BB4  6F0F               	movwf	lcd_send_ATpos_string_data@str& (0+255),b
  5588   001BB6  0EFF               	movlw	high STR_42
  5589   001BB8  6F10               	movwf	(lcd_send_ATpos_string_data@str+1)& (0+255),b
  5590   001BBA  ECB8  F01C         	call	_lcd_send_ATpos_string_data	;wreg free
  5591   001BBE  C10B  F0FE         	movff	?_lcd_send_ATpos_string_data,_ret
  5592   001BC2  C10C  F0FF         	movff	?_lcd_send_ATpos_string_data+1,_ret+1
  5593   001BC6                     
  5594                           ;Application.c: 398:                     key_status = 0;
  5595   001BC6  0E00               	movlw	0
  5596   001BC8  0100               	movlb	0	; () banked
  5597   001BCA  6FEA               	movwf	_key_status& (0+255),b
  5598   001BCC                     l10721:
  5599                           
  5600                           ; BSR set to: 0
  5601                           ;Application.c: 400:                         ret = Key_Pad_Get_Value(&key_pad1, &key_sta
      +                          tus);
  5602   001BCC  0EA4               	movlw	low _key_pad1
  5603   001BCE  6FF7               	movwf	Key_Pad_Get_Value@_key_pad& (0+255),b
  5604   001BD0  0E00               	movlw	high _key_pad1
  5605   001BD2  6FF8               	movwf	(Key_Pad_Get_Value@_key_pad+1)& (0+255),b
  5606   001BD4  0EEA               	movlw	low _key_status
  5607   001BD6  6FF9               	movwf	Key_Pad_Get_Value@value& (0+255),b
  5608   001BD8  0E00               	movlw	high _key_status
  5609   001BDA  6FFA               	movwf	(Key_Pad_Get_Value@value+1)& (0+255),b
  5610   001BDC  ECEB  F016         	call	_Key_Pad_Get_Value	;wreg free
  5611   001BE0  C0F7  F0FE         	movff	?_Key_Pad_Get_Value,_ret
  5612   001BE4  C0F8  F0FF         	movff	?_Key_Pad_Get_Value+1,_ret+1
  5613   001BE8                     
  5614                           ;Application.c: 401:                     } while (0 == key_status);
  5615   001BE8  0100               	movlb	0	; () banked
  5616   001BEA  51EA               	movf	_key_status& (0+255),w,b
  5617   001BEC  B4D8               	btfsc	status,2,c
  5618   001BEE  EFFB  F00D         	goto	u9541
  5619   001BF2  EFFD  F00D         	goto	u9540
  5620   001BF6                     u9541:
  5621   001BF6  EFE6  F00D         	goto	l10721
  5622   001BFA                     u9540:
  5623   001BFA                     
  5624                           ; BSR set to: 0
  5625                           ;Application.c: 402:                     _delay((unsigned long)((300)*(4000000UL/4000.0)
      +                          ));
  5626   001BFA  0E02               	movlw	2
  5627   001BFC  0101               	movlb	1	; () banked
  5628   001BFE  6F14               	movwf	(??_main+1)& (0+255),b
  5629   001C00  0E86               	movlw	134
  5630   001C02  6F13               	movwf	??_main& (0+255),b
  5631   001C04  0E99               	movlw	153
  5632   001C06                     u10017:
  5633   001C06  2EE8               	decfsz	wreg,f,c
  5634   001C08  D7FE               	bra	u10017
  5635   001C0A  2F13               	decfsz	??_main& (0+255),f,b
  5636   001C0C  D7FC               	bra	u10017
  5637   001C0E  2F14               	decfsz	(??_main+1)& (0+255),f,b
  5638   001C10  D7FA               	bra	u10017
  5639                           
  5640                           ;Application.c: 404:                     while ('1' == key_status) {
  5641   001C12  EF64  F00F         	goto	l10779
  5642   001C16                     l10727:
  5643                           
  5644                           ; BSR set to: 0
  5645                           ;Application.c: 405:                             ret = lcd_send_command(&lcd1, 0x01);
  5646   001C16  0E5D               	movlw	low _lcd1
  5647   001C18  0101               	movlb	1	; () banked
  5648   001C1A  6F00               	movwf	lcd_send_command@_LCD_& (0+255),b
  5649   001C1C  0E00               	movlw	high _lcd1
  5650   001C1E  6F01               	movwf	(lcd_send_command@_LCD_+1)& (0+255),b
  5651   001C20  0E01               	movlw	1
  5652   001C22  6F02               	movwf	lcd_send_command@command& (0+255),b
  5653   001C24  EC52  F01B         	call	_lcd_send_command	;wreg free
  5654   001C28  C100  F0FE         	movff	?_lcd_send_command,_ret
  5655   001C2C  C101  F0FF         	movff	?_lcd_send_command+1,_ret+1
  5656   001C30                     
  5657                           ;Application.c: 406:                             ret = lcd_send_ATpos_string_data(&lcd1,
      +                           1, 1, "Room4 S:");
  5658   001C30  0E5D               	movlw	low _lcd1
  5659   001C32  0101               	movlb	1	; () banked
  5660   001C34  6F0B               	movwf	lcd_send_ATpos_string_data@_LCD_& (0+255),b
  5661   001C36  0E00               	movlw	high _lcd1
  5662   001C38  6F0C               	movwf	(lcd_send_ATpos_string_data@_LCD_+1)& (0+255),b
  5663   001C3A  0E01               	movlw	1
  5664   001C3C  6F0D               	movwf	lcd_send_ATpos_string_data@row& (0+255),b
  5665   001C3E  0E01               	movlw	1
  5666   001C40  6F0E               	movwf	lcd_send_ATpos_string_data@coulmns& (0+255),b
  5667   001C42  0E77               	movlw	low STR_58
  5668   001C44  6F0F               	movwf	lcd_send_ATpos_string_data@str& (0+255),b
  5669   001C46  0EFF               	movlw	high STR_58
  5670   001C48  6F10               	movwf	(lcd_send_ATpos_string_data@str+1)& (0+255),b
  5671   001C4A  ECB8  F01C         	call	_lcd_send_ATpos_string_data	;wreg free
  5672   001C4E  C10B  F0FE         	movff	?_lcd_send_ATpos_string_data,_ret
  5673   001C52  C10C  F0FF         	movff	?_lcd_send_ATpos_string_data+1,_ret+1
  5674                           
  5675                           ;Application.c: 407:                             switch (spi_slave_reader) {
  5676   001C56  EF55  F00E         	goto	l10737
  5677   001C5A                     l10731:
  5678                           
  5679                           ; BSR set to: 1
  5680   001C5A  0E5D               	movlw	low _lcd1
  5681   001C5C  6F0B               	movwf	lcd_send_ATpos_string_data@_LCD_& (0+255),b
  5682   001C5E  0E00               	movlw	high _lcd1
  5683   001C60  6F0C               	movwf	(lcd_send_ATpos_string_data@_LCD_+1)& (0+255),b
  5684   001C62  0E01               	movlw	1
  5685   001C64  6F0D               	movwf	lcd_send_ATpos_string_data@row& (0+255),b
  5686   001C66  0E09               	movlw	9
  5687   001C68  6F0E               	movwf	lcd_send_ATpos_string_data@coulmns& (0+255),b
  5688   001C6A  0EF4               	movlw	low STR_38
  5689   001C6C  6F0F               	movwf	lcd_send_ATpos_string_data@str& (0+255),b
  5690   001C6E  0EFF               	movlw	high STR_38
  5691   001C70  6F10               	movwf	(lcd_send_ATpos_string_data@str+1)& (0+255),b
  5692   001C72  ECB8  F01C         	call	_lcd_send_ATpos_string_data	;wreg free
  5693   001C76  C10B  F0FE         	movff	?_lcd_send_ATpos_string_data,_ret
  5694   001C7A  C10C  F0FF         	movff	?_lcd_send_ATpos_string_data+1,_ret+1
  5695                           
  5696                           ;Application.c: 409:                                     break;
  5697   001C7E  EF6C  F00E         	goto	l10739
  5698   001C82                     l10733:
  5699                           
  5700                           ; BSR set to: 1
  5701   001C82  0E5D               	movlw	low _lcd1
  5702   001C84  6F0B               	movwf	lcd_send_ATpos_string_data@_LCD_& (0+255),b
  5703   001C86  0E00               	movlw	high _lcd1
  5704   001C88  6F0C               	movwf	(lcd_send_ATpos_string_data@_LCD_+1)& (0+255),b
  5705   001C8A  0E01               	movlw	1
  5706   001C8C  6F0D               	movwf	lcd_send_ATpos_string_data@row& (0+255),b
  5707   001C8E  0E09               	movlw	9
  5708   001C90  6F0E               	movwf	lcd_send_ATpos_string_data@coulmns& (0+255),b
  5709   001C92  0EF8               	movlw	low STR_39
  5710   001C94  6F0F               	movwf	lcd_send_ATpos_string_data@str& (0+255),b
  5711   001C96  0EFF               	movlw	high STR_39
  5712   001C98  6F10               	movwf	(lcd_send_ATpos_string_data@str+1)& (0+255),b
  5713   001C9A  ECB8  F01C         	call	_lcd_send_ATpos_string_data	;wreg free
  5714   001C9E  C10B  F0FE         	movff	?_lcd_send_ATpos_string_data,_ret
  5715   001CA2  C10C  F0FF         	movff	?_lcd_send_ATpos_string_data+1,_ret+1
  5716                           
  5717                           ;Application.c: 411:                                     break;
  5718   001CA6  EF6C  F00E         	goto	l10739
  5719   001CAA                     l10737:
  5720   001CAA  0100               	movlb	0	; () banked
  5721   001CAC  51E7               	movf	_spi_slave_reader& (0+255),w,b	;volatile
  5722   001CAE  0101               	movlb	1	; () banked
  5723   001CB0  6F13               	movwf	??_main& (0+255),b
  5724   001CB2  6B14               	clrf	(??_main+1)& (0+255),b
  5725                           
  5726                           ; Switch on 2 bytes has been partitioned into a top level switch of size 1, and 1 sub-sw
      +                          itches
  5727                           ; Switch size 1, requested type "simple"
  5728                           ; Number of cases is 1, Range of values is 0 to 0
  5729                           ; switch strategies available:
  5730                           ; Name         Instructions Cycles
  5731                           ; simple_byte            4     3 (average)
  5732                           ;	Chosen strategy is simple_byte
  5733   001CB4  5114               	movf	(??_main+1)& (0+255),w,b
  5734   001CB6  0A00               	xorlw	0	; case 0
  5735   001CB8  B4D8               	btfsc	status,2,c
  5736   001CBA  EF61  F00E         	goto	l11423
  5737   001CBE  EF6C  F00E         	goto	l10739
  5738   001CC2                     l11423:
  5739                           
  5740                           ; BSR set to: 1
  5741                           ; Switch size 1, requested type "simple"
  5742                           ; Number of cases is 2, Range of values is 0 to 1
  5743                           ; switch strategies available:
  5744                           ; Name         Instructions Cycles
  5745                           ; simple_byte            7     4 (average)
  5746                           ;	Chosen strategy is simple_byte
  5747   001CC2  5113               	movf	??_main& (0+255),w,b
  5748   001CC4  0A00               	xorlw	0	; case 0
  5749   001CC6  B4D8               	btfsc	status,2,c
  5750   001CC8  EF41  F00E         	goto	l10733
  5751   001CCC  0A01               	xorlw	1	; case 1
  5752   001CCE  B4D8               	btfsc	status,2,c
  5753   001CD0  EF2D  F00E         	goto	l10731
  5754   001CD4  EF6C  F00E         	goto	l10739
  5755   001CD8                     l10739:
  5756                           
  5757                           ;Application.c: 413:                             ret = lcd_send_ATpos_string_data(&lcd1,
      +                           2, 1, "1:led on");
  5758   001CD8  0E5D               	movlw	low _lcd1
  5759   001CDA  0101               	movlb	1	; () banked
  5760   001CDC  6F0B               	movwf	lcd_send_ATpos_string_data@_LCD_& (0+255),b
  5761   001CDE  0E00               	movlw	high _lcd1
  5762   001CE0  6F0C               	movwf	(lcd_send_ATpos_string_data@_LCD_+1)& (0+255),b
  5763   001CE2  0E02               	movlw	2
  5764   001CE4  6F0D               	movwf	lcd_send_ATpos_string_data@row& (0+255),b
  5765   001CE6  0E01               	movlw	1
  5766   001CE8  6F0E               	movwf	lcd_send_ATpos_string_data@coulmns& (0+255),b
  5767   001CEA  0E92               	movlw	low STR_40
  5768   001CEC  6F0F               	movwf	lcd_send_ATpos_string_data@str& (0+255),b
  5769   001CEE  0EFF               	movlw	high STR_40
  5770   001CF0  6F10               	movwf	(lcd_send_ATpos_string_data@str+1)& (0+255),b
  5771   001CF2  ECB8  F01C         	call	_lcd_send_ATpos_string_data	;wreg free
  5772   001CF6  C10B  F0FE         	movff	?_lcd_send_ATpos_string_data,_ret
  5773   001CFA  C10C  F0FF         	movff	?_lcd_send_ATpos_string_data+1,_ret+1
  5774                           
  5775                           ;Application.c: 414:                             ret = lcd_send_ATpos_string_data(&lcd1,
      +                           3, 1, "2:led off");
  5776   001CFE  0E5D               	movlw	low _lcd1
  5777   001D00  0101               	movlb	1	; () banked
  5778   001D02  6F0B               	movwf	lcd_send_ATpos_string_data@_LCD_& (0+255),b
  5779   001D04  0E00               	movlw	high _lcd1
  5780   001D06  6F0C               	movwf	(lcd_send_ATpos_string_data@_LCD_+1)& (0+255),b
  5781   001D08  0E03               	movlw	3
  5782   001D0A  6F0D               	movwf	lcd_send_ATpos_string_data@row& (0+255),b
  5783   001D0C  0E01               	movlw	1
  5784   001D0E  6F0E               	movwf	lcd_send_ATpos_string_data@coulmns& (0+255),b
  5785   001D10  0E52               	movlw	low STR_41
  5786   001D12  6F0F               	movwf	lcd_send_ATpos_string_data@str& (0+255),b
  5787   001D14  0EFF               	movlw	high STR_41
  5788   001D16  6F10               	movwf	(lcd_send_ATpos_string_data@str+1)& (0+255),b
  5789   001D18  ECB8  F01C         	call	_lcd_send_ATpos_string_data	;wreg free
  5790   001D1C  C10B  F0FE         	movff	?_lcd_send_ATpos_string_data,_ret
  5791   001D20  C10C  F0FF         	movff	?_lcd_send_ATpos_string_data+1,_ret+1
  5792                           
  5793                           ;Application.c: 415:                             ret = lcd_send_ATpos_string_data(&lcd1,
      +                           4, 1, "0:Ret");
  5794   001D24  0E5D               	movlw	low _lcd1
  5795   001D26  0101               	movlb	1	; () banked
  5796   001D28  6F0B               	movwf	lcd_send_ATpos_string_data@_LCD_& (0+255),b
  5797   001D2A  0E00               	movlw	high _lcd1
  5798   001D2C  6F0C               	movwf	(lcd_send_ATpos_string_data@_LCD_+1)& (0+255),b
  5799   001D2E  0E04               	movlw	4
  5800   001D30  6F0D               	movwf	lcd_send_ATpos_string_data@row& (0+255),b
  5801   001D32  0E01               	movlw	1
  5802   001D34  6F0E               	movwf	lcd_send_ATpos_string_data@coulmns& (0+255),b
  5803   001D36  0EE9               	movlw	low STR_42
  5804   001D38  6F0F               	movwf	lcd_send_ATpos_string_data@str& (0+255),b
  5805   001D3A  0EFF               	movlw	high STR_42
  5806   001D3C  6F10               	movwf	(lcd_send_ATpos_string_data@str+1)& (0+255),b
  5807   001D3E  ECB8  F01C         	call	_lcd_send_ATpos_string_data	;wreg free
  5808   001D42  C10B  F0FE         	movff	?_lcd_send_ATpos_string_data,_ret
  5809   001D46  C10C  F0FF         	movff	?_lcd_send_ATpos_string_data+1,_ret+1
  5810   001D4A                     
  5811                           ;Application.c: 416:                             key_status = 0;
  5812   001D4A  0E00               	movlw	0
  5813   001D4C  0100               	movlb	0	; () banked
  5814   001D4E  6FEA               	movwf	_key_status& (0+255),b
  5815   001D50                     l10743:
  5816                           
  5817                           ; BSR set to: 0
  5818                           ;Application.c: 418:                                 ret = Key_Pad_Get_Value(&key_pad1, 
      +                          &key_status);
  5819   001D50  0EA4               	movlw	low _key_pad1
  5820   001D52  6FF7               	movwf	Key_Pad_Get_Value@_key_pad& (0+255),b
  5821   001D54  0E00               	movlw	high _key_pad1
  5822   001D56  6FF8               	movwf	(Key_Pad_Get_Value@_key_pad+1)& (0+255),b
  5823   001D58  0EEA               	movlw	low _key_status
  5824   001D5A  6FF9               	movwf	Key_Pad_Get_Value@value& (0+255),b
  5825   001D5C  0E00               	movlw	high _key_status
  5826   001D5E  6FFA               	movwf	(Key_Pad_Get_Value@value+1)& (0+255),b
  5827   001D60  ECEB  F016         	call	_Key_Pad_Get_Value	;wreg free
  5828   001D64  C0F7  F0FE         	movff	?_Key_Pad_Get_Value,_ret
  5829   001D68  C0F8  F0FF         	movff	?_Key_Pad_Get_Value+1,_ret+1
  5830                           
  5831                           ;Application.c: 419:                             } while (0 == key_status);
  5832   001D6C  0100               	movlb	0	; () banked
  5833   001D6E  51EA               	movf	_key_status& (0+255),w,b
  5834   001D70  B4D8               	btfsc	status,2,c
  5835   001D72  EFBD  F00E         	goto	u9551
  5836   001D76  EFBF  F00E         	goto	u9550
  5837   001D7A                     u9551:
  5838   001D7A  EFA8  F00E         	goto	l10743
  5839   001D7E                     u9550:
  5840   001D7E                     
  5841                           ; BSR set to: 0
  5842                           ;Application.c: 420:                             _delay((unsigned long)((300)*(4000000UL
      +                          /4000.0)));
  5843   001D7E  0E02               	movlw	2
  5844   001D80  0101               	movlb	1	; () banked
  5845   001D82  6F14               	movwf	(??_main+1)& (0+255),b
  5846   001D84  0E86               	movlw	134
  5847   001D86  6F13               	movwf	??_main& (0+255),b
  5848   001D88  0E99               	movlw	153
  5849   001D8A                     u10027:
  5850   001D8A  2EE8               	decfsz	wreg,f,c
  5851   001D8C  D7FE               	bra	u10027
  5852   001D8E  2F13               	decfsz	??_main& (0+255),f,b
  5853   001D90  D7FC               	bra	u10027
  5854   001D92  2F14               	decfsz	(??_main+1)& (0+255),f,b
  5855   001D94  D7FA               	bra	u10027
  5856                           
  5857                           ;Application.c: 421:                         switch (key_status) {
  5858   001D96  EFE5  F00E         	goto	l10757
  5859   001D9A                     l10747:
  5860                           
  5861                           ; BSR set to: 1
  5862   001D9A  0E04               	movlw	4
  5863   001D9C  EC08  F01F         	call	_SPI_Send_Byte
  5864   001DA0  C0EB  F0FE         	movff	?_SPI_Send_Byte,_ret
  5865   001DA4  C0EC  F0FF         	movff	?_SPI_Send_Byte+1,_ret+1
  5866   001DA8                     
  5867                           ;Application.c: 423:                                 spi_slave_reader = 1;
  5868   001DA8  0E01               	movlw	1
  5869   001DAA  0100               	movlb	0	; () banked
  5870   001DAC  6FE7               	movwf	_spi_slave_reader& (0+255),b	;volatile
  5871                           
  5872                           ;Application.c: 424:                                     break;
  5873   001DAE  EFFC  F00E         	goto	l10759
  5874   001DB2                     l10751:
  5875                           
  5876                           ; BSR set to: 1
  5877   001DB2  0E08               	movlw	8
  5878   001DB4  EC08  F01F         	call	_SPI_Send_Byte
  5879   001DB8  C0EB  F0FE         	movff	?_SPI_Send_Byte,_ret
  5880   001DBC  C0EC  F0FF         	movff	?_SPI_Send_Byte+1,_ret+1
  5881   001DC0                     
  5882                           ;Application.c: 426:                                 spi_slave_reader = 0;
  5883   001DC0  0E00               	movlw	0
  5884   001DC2  0100               	movlb	0	; () banked
  5885   001DC4  6FE7               	movwf	_spi_slave_reader& (0+255),b	;volatile
  5886                           
  5887                           ;Application.c: 427:                                     break;
  5888   001DC6  EFFC  F00E         	goto	l10759
  5889   001DCA                     l10757:
  5890   001DCA  0100               	movlb	0	; () banked
  5891   001DCC  51EA               	movf	_key_status& (0+255),w,b
  5892   001DCE  0101               	movlb	1	; () banked
  5893   001DD0  6F13               	movwf	??_main& (0+255),b
  5894   001DD2  6B14               	clrf	(??_main+1)& (0+255),b
  5895                           
  5896                           ; Switch on 2 bytes has been partitioned into a top level switch of size 1, and 1 sub-sw
      +                          itches
  5897                           ; Switch size 1, requested type "simple"
  5898                           ; Number of cases is 1, Range of values is 0 to 0
  5899                           ; switch strategies available:
  5900                           ; Name         Instructions Cycles
  5901                           ; simple_byte            4     3 (average)
  5902                           ;	Chosen strategy is simple_byte
  5903   001DD4  5114               	movf	(??_main+1)& (0+255),w,b
  5904   001DD6  0A00               	xorlw	0	; case 0
  5905   001DD8  B4D8               	btfsc	status,2,c
  5906   001DDA  EFF1  F00E         	goto	l11425
  5907   001DDE  EFFC  F00E         	goto	l10759
  5908   001DE2                     l11425:
  5909                           
  5910                           ; BSR set to: 1
  5911                           ; Switch size 1, requested type "simple"
  5912                           ; Number of cases is 2, Range of values is 49 to 50
  5913                           ; switch strategies available:
  5914                           ; Name         Instructions Cycles
  5915                           ; simple_byte            7     4 (average)
  5916                           ;	Chosen strategy is simple_byte
  5917   001DE2  5113               	movf	??_main& (0+255),w,b
  5918   001DE4  0A31               	xorlw	49	; case 49
  5919   001DE6  B4D8               	btfsc	status,2,c
  5920   001DE8  EFCD  F00E         	goto	l10747
  5921   001DEC  0A03               	xorlw	3	; case 50
  5922   001DEE  B4D8               	btfsc	status,2,c
  5923   001DF0  EFD9  F00E         	goto	l10751
  5924   001DF4  EFFC  F00E         	goto	l10759
  5925   001DF8                     l10759:
  5926                           
  5927                           ;Application.c: 429:                             if ('0' == key_status) {
  5928   001DF8  0E30               	movlw	48
  5929   001DFA  0100               	movlb	0	; () banked
  5930   001DFC  19EA               	xorwf	_key_status& (0+255),w,b
  5931   001DFE  A4D8               	btfss	status,2,c
  5932   001E00  EF04  F00F         	goto	u9561
  5933   001E04  EF06  F00F         	goto	u9560
  5934   001E08                     u9561:
  5935   001E08  EF15  F00F         	goto	l10765
  5936   001E0C                     u9560:
  5937   001E0C                     
  5938                           ; BSR set to: 0
  5939                           ;Application.c: 430:                                 ret = lcd_send_command(&lcd1, 0x01)
      +                          ;
  5940   001E0C  0E5D               	movlw	low _lcd1
  5941   001E0E  0101               	movlb	1	; () banked
  5942   001E10  6F00               	movwf	lcd_send_command@_LCD_& (0+255),b
  5943   001E12  0E00               	movlw	high _lcd1
  5944   001E14  6F01               	movwf	(lcd_send_command@_LCD_+1)& (0+255),b
  5945   001E16  0E01               	movlw	1
  5946   001E18  6F02               	movwf	lcd_send_command@command& (0+255),b
  5947   001E1A  EC52  F01B         	call	_lcd_send_command	;wreg free
  5948   001E1E  C100  F0FE         	movff	?_lcd_send_command,_ret
  5949   001E22  C101  F0FF         	movff	?_lcd_send_command+1,_ret+1
  5950                           
  5951                           ;Application.c: 431:                                 break;
  5952   001E26  EFC9  F010         	goto	l10833
  5953   001E2A                     l10765:
  5954                           
  5955                           ; BSR set to: 0
  5956   001E2A  0E31               	movlw	49
  5957   001E2C  19EA               	xorwf	_key_status& (0+255),w,b
  5958   001E2E  B4D8               	btfsc	status,2,c
  5959   001E30  EF1C  F00F         	goto	u9571
  5960   001E34  EF1E  F00F         	goto	u9570
  5961   001E38                     u9571:
  5962   001E38  EF54  F00F         	goto	l10775
  5963   001E3C                     u9570:
  5964   001E3C                     
  5965                           ; BSR set to: 0
  5966   001E3C  0E32               	movlw	50
  5967   001E3E  19EA               	xorwf	_key_status& (0+255),w,b
  5968   001E40  B4D8               	btfsc	status,2,c
  5969   001E42  EF25  F00F         	goto	u9581
  5970   001E46  EF27  F00F         	goto	u9580
  5971   001E4A                     u9581:
  5972   001E4A  EF54  F00F         	goto	l10775
  5973   001E4E                     u9580:
  5974   001E4E                     
  5975                           ; BSR set to: 0
  5976                           ;Application.c: 433:                                 ret = lcd_send_command(&lcd1, 0x01)
      +                          ;
  5977   001E4E  0E5D               	movlw	low _lcd1
  5978   001E50  0101               	movlb	1	; () banked
  5979   001E52  6F00               	movwf	lcd_send_command@_LCD_& (0+255),b
  5980   001E54  0E00               	movlw	high _lcd1
  5981   001E56  6F01               	movwf	(lcd_send_command@_LCD_+1)& (0+255),b
  5982   001E58  0E01               	movlw	1
  5983   001E5A  6F02               	movwf	lcd_send_command@command& (0+255),b
  5984   001E5C  EC52  F01B         	call	_lcd_send_command	;wreg free
  5985   001E60  C100  F0FE         	movff	?_lcd_send_command,_ret
  5986   001E64  C101  F0FF         	movff	?_lcd_send_command+1,_ret+1
  5987   001E68                     
  5988                           ;Application.c: 434:                                 ret = lcd_send_ATpos_string_data(&l
      +                          cd1, 1, 1, "Wrong choice");
  5989   001E68  0E5D               	movlw	low _lcd1
  5990   001E6A  0101               	movlb	1	; () banked
  5991   001E6C  6F0B               	movwf	lcd_send_ATpos_string_data@_LCD_& (0+255),b
  5992   001E6E  0E00               	movlw	high _lcd1
  5993   001E70  6F0C               	movwf	(lcd_send_ATpos_string_data@_LCD_+1)& (0+255),b
  5994   001E72  0E01               	movlw	1
  5995   001E74  6F0D               	movwf	lcd_send_ATpos_string_data@row& (0+255),b
  5996   001E76  0E01               	movlw	1
  5997   001E78  6F0E               	movwf	lcd_send_ATpos_string_data@coulmns& (0+255),b
  5998   001E7A  0E0A               	movlw	low STR_36
  5999   001E7C  6F0F               	movwf	lcd_send_ATpos_string_data@str& (0+255),b
  6000   001E7E  0EFF               	movlw	high STR_36
  6001   001E80  6F10               	movwf	(lcd_send_ATpos_string_data@str+1)& (0+255),b
  6002   001E82  ECB8  F01C         	call	_lcd_send_ATpos_string_data	;wreg free
  6003   001E86  C10B  F0FE         	movff	?_lcd_send_ATpos_string_data,_ret
  6004   001E8A  C10C  F0FF         	movff	?_lcd_send_ATpos_string_data+1,_ret+1
  6005   001E8E                     
  6006                           ;Application.c: 435:                                 _delay((unsigned long)((500)*(40000
      +                          00UL/4000.0)));
  6007   001E8E  0E03               	movlw	3
  6008   001E90  0101               	movlb	1	; () banked
  6009   001E92  6F14               	movwf	(??_main+1)& (0+255),b
  6010   001E94  0E8A               	movlw	138
  6011   001E96  6F13               	movwf	??_main& (0+255),b
  6012   001E98  0E55               	movlw	85
  6013   001E9A                     u10037:
  6014   001E9A  2EE8               	decfsz	wreg,f,c
  6015   001E9C  D7FE               	bra	u10037
  6016   001E9E  2F13               	decfsz	??_main& (0+255),f,b
  6017   001EA0  D7FC               	bra	u10037
  6018   001EA2  2F14               	decfsz	(??_main+1)& (0+255),f,b
  6019   001EA4  D7FA               	bra	u10037
  6020   001EA6  D000               	nop2	
  6021   001EA8                     l10775:
  6022                           
  6023                           ;Application.c: 437:                             key_status = '1';
  6024   001EA8  0E31               	movlw	49
  6025   001EAA  0100               	movlb	0	; () banked
  6026   001EAC  6FEA               	movwf	_key_status& (0+255),b
  6027   001EAE                     
  6028                           ; BSR set to: 0
  6029                           ;Application.c: 438:                             _delay((unsigned long)((500)*(4000000UL
      +                          /4000.0)));
  6030   001EAE  0E03               	movlw	3
  6031   001EB0  0101               	movlb	1	; () banked
  6032   001EB2  6F14               	movwf	(??_main+1)& (0+255),b
  6033   001EB4  0E8A               	movlw	138
  6034   001EB6  6F13               	movwf	??_main& (0+255),b
  6035   001EB8  0E55               	movlw	85
  6036   001EBA                     u10047:
  6037   001EBA  2EE8               	decfsz	wreg,f,c
  6038   001EBC  D7FE               	bra	u10047
  6039   001EBE  2F13               	decfsz	??_main& (0+255),f,b
  6040   001EC0  D7FC               	bra	u10047
  6041   001EC2  2F14               	decfsz	(??_main+1)& (0+255),f,b
  6042   001EC4  D7FA               	bra	u10047
  6043   001EC6  D000               	nop2	
  6044   001EC8                     l10779:
  6045                           
  6046                           ;Application.c: 404:                     while ('1' == key_status) {
  6047   001EC8  0E31               	movlw	49
  6048   001ECA  0100               	movlb	0	; () banked
  6049   001ECC  19EA               	xorwf	_key_status& (0+255),w,b
  6050   001ECE  B4D8               	btfsc	status,2,c
  6051   001ED0  EF6C  F00F         	goto	u9591
  6052   001ED4  EF6E  F00F         	goto	u9590
  6053   001ED8                     u9591:
  6054   001ED8  EF0B  F00E         	goto	l10727
  6055   001EDC                     u9590:
  6056   001EDC  EFC9  F010         	goto	l10833
  6057   001EE0                     l10781:
  6058                           
  6059                           ; BSR set to: 0
  6060                           ;Application.c: 441:                         ret = lcd_send_command(&lcd1, 0x01);
  6061   001EE0  0E5D               	movlw	low _lcd1
  6062   001EE2  0101               	movlb	1	; () banked
  6063   001EE4  6F00               	movwf	lcd_send_command@_LCD_& (0+255),b
  6064   001EE6  0E00               	movlw	high _lcd1
  6065   001EE8  6F01               	movwf	(lcd_send_command@_LCD_+1)& (0+255),b
  6066   001EEA  0E01               	movlw	1
  6067   001EEC  6F02               	movwf	lcd_send_command@command& (0+255),b
  6068   001EEE  EC52  F01B         	call	_lcd_send_command	;wreg free
  6069   001EF2  C100  F0FE         	movff	?_lcd_send_command,_ret
  6070   001EF6  C101  F0FF         	movff	?_lcd_send_command+1,_ret+1
  6071   001EFA                     
  6072                           ;Application.c: 442:                             ret = lcd_send_ATpos_string_data(&lcd1,
      +                           1, 1, "TV S:");
  6073   001EFA  0E5D               	movlw	low _lcd1
  6074   001EFC  0101               	movlb	1	; () banked
  6075   001EFE  6F0B               	movwf	lcd_send_ATpos_string_data@_LCD_& (0+255),b
  6076   001F00  0E00               	movlw	high _lcd1
  6077   001F02  6F0C               	movwf	(lcd_send_ATpos_string_data@_LCD_+1)& (0+255),b
  6078   001F04  0E01               	movlw	1
  6079   001F06  6F0D               	movwf	lcd_send_ATpos_string_data@row& (0+255),b
  6080   001F08  0E01               	movlw	1
  6081   001F0A  6F0E               	movwf	lcd_send_ATpos_string_data@coulmns& (0+255),b
  6082   001F0C  0EE3               	movlw	low STR_77
  6083   001F0E  6F0F               	movwf	lcd_send_ATpos_string_data@str& (0+255),b
  6084   001F10  0EFF               	movlw	high STR_77
  6085   001F12  6F10               	movwf	(lcd_send_ATpos_string_data@str+1)& (0+255),b
  6086   001F14  ECB8  F01C         	call	_lcd_send_ATpos_string_data	;wreg free
  6087   001F18  C10B  F0FE         	movff	?_lcd_send_ATpos_string_data,_ret
  6088   001F1C  C10C  F0FF         	movff	?_lcd_send_ATpos_string_data+1,_ret+1
  6089                           
  6090                           ;Application.c: 443:                             switch (spi_slave_reader) {
  6091   001F20  EFBA  F00F         	goto	l10791
  6092   001F24                     l10785:
  6093                           
  6094                           ; BSR set to: 1
  6095   001F24  0E5D               	movlw	low _lcd1
  6096   001F26  6F0B               	movwf	lcd_send_ATpos_string_data@_LCD_& (0+255),b
  6097   001F28  0E00               	movlw	high _lcd1
  6098   001F2A  6F0C               	movwf	(lcd_send_ATpos_string_data@_LCD_+1)& (0+255),b
  6099   001F2C  0E01               	movlw	1
  6100   001F2E  6F0D               	movwf	lcd_send_ATpos_string_data@row& (0+255),b
  6101   001F30  0E09               	movlw	9
  6102   001F32  6F0E               	movwf	lcd_send_ATpos_string_data@coulmns& (0+255),b
  6103   001F34  0EF4               	movlw	low STR_38
  6104   001F36  6F0F               	movwf	lcd_send_ATpos_string_data@str& (0+255),b
  6105   001F38  0EFF               	movlw	high STR_38
  6106   001F3A  6F10               	movwf	(lcd_send_ATpos_string_data@str+1)& (0+255),b
  6107   001F3C  ECB8  F01C         	call	_lcd_send_ATpos_string_data	;wreg free
  6108   001F40  C10B  F0FE         	movff	?_lcd_send_ATpos_string_data,_ret
  6109   001F44  C10C  F0FF         	movff	?_lcd_send_ATpos_string_data+1,_ret+1
  6110                           
  6111                           ;Application.c: 445:                                     break;
  6112   001F48  EFD1  F00F         	goto	l10793
  6113   001F4C                     l10787:
  6114                           
  6115                           ; BSR set to: 1
  6116   001F4C  0E5D               	movlw	low _lcd1
  6117   001F4E  6F0B               	movwf	lcd_send_ATpos_string_data@_LCD_& (0+255),b
  6118   001F50  0E00               	movlw	high _lcd1
  6119   001F52  6F0C               	movwf	(lcd_send_ATpos_string_data@_LCD_+1)& (0+255),b
  6120   001F54  0E01               	movlw	1
  6121   001F56  6F0D               	movwf	lcd_send_ATpos_string_data@row& (0+255),b
  6122   001F58  0E09               	movlw	9
  6123   001F5A  6F0E               	movwf	lcd_send_ATpos_string_data@coulmns& (0+255),b
  6124   001F5C  0EF8               	movlw	low STR_39
  6125   001F5E  6F0F               	movwf	lcd_send_ATpos_string_data@str& (0+255),b
  6126   001F60  0EFF               	movlw	high STR_39
  6127   001F62  6F10               	movwf	(lcd_send_ATpos_string_data@str+1)& (0+255),b
  6128   001F64  ECB8  F01C         	call	_lcd_send_ATpos_string_data	;wreg free
  6129   001F68  C10B  F0FE         	movff	?_lcd_send_ATpos_string_data,_ret
  6130   001F6C  C10C  F0FF         	movff	?_lcd_send_ATpos_string_data+1,_ret+1
  6131                           
  6132                           ;Application.c: 447:                                     break;
  6133   001F70  EFD1  F00F         	goto	l10793
  6134   001F74                     l10791:
  6135   001F74  0100               	movlb	0	; () banked
  6136   001F76  51E7               	movf	_spi_slave_reader& (0+255),w,b	;volatile
  6137   001F78  0101               	movlb	1	; () banked
  6138   001F7A  6F13               	movwf	??_main& (0+255),b
  6139   001F7C  6B14               	clrf	(??_main+1)& (0+255),b
  6140                           
  6141                           ; Switch on 2 bytes has been partitioned into a top level switch of size 1, and 1 sub-sw
      +                          itches
  6142                           ; Switch size 1, requested type "simple"
  6143                           ; Number of cases is 1, Range of values is 0 to 0
  6144                           ; switch strategies available:
  6145                           ; Name         Instructions Cycles
  6146                           ; simple_byte            4     3 (average)
  6147                           ;	Chosen strategy is simple_byte
  6148   001F7E  5114               	movf	(??_main+1)& (0+255),w,b
  6149   001F80  0A00               	xorlw	0	; case 0
  6150   001F82  B4D8               	btfsc	status,2,c
  6151   001F84  EFC6  F00F         	goto	l11427
  6152   001F88  EFD1  F00F         	goto	l10793
  6153   001F8C                     l11427:
  6154                           
  6155                           ; BSR set to: 1
  6156                           ; Switch size 1, requested type "simple"
  6157                           ; Number of cases is 2, Range of values is 0 to 1
  6158                           ; switch strategies available:
  6159                           ; Name         Instructions Cycles
  6160                           ; simple_byte            7     4 (average)
  6161                           ;	Chosen strategy is simple_byte
  6162   001F8C  5113               	movf	??_main& (0+255),w,b
  6163   001F8E  0A00               	xorlw	0	; case 0
  6164   001F90  B4D8               	btfsc	status,2,c
  6165   001F92  EFA6  F00F         	goto	l10787
  6166   001F96  0A01               	xorlw	1	; case 1
  6167   001F98  B4D8               	btfsc	status,2,c
  6168   001F9A  EF92  F00F         	goto	l10785
  6169   001F9E  EFD1  F00F         	goto	l10793
  6170   001FA2                     l10793:
  6171                           
  6172                           ;Application.c: 449:                             ret = lcd_send_ATpos_string_data(&lcd1,
      +                           2, 1, "1:TV on");
  6173   001FA2  0E5D               	movlw	low _lcd1
  6174   001FA4  0101               	movlb	1	; () banked
  6175   001FA6  6F0B               	movwf	lcd_send_ATpos_string_data@_LCD_& (0+255),b
  6176   001FA8  0E00               	movlw	high _lcd1
  6177   001FAA  6F0C               	movwf	(lcd_send_ATpos_string_data@_LCD_+1)& (0+255),b
  6178   001FAC  0E02               	movlw	2
  6179   001FAE  6F0D               	movwf	lcd_send_ATpos_string_data@row& (0+255),b
  6180   001FB0  0E01               	movlw	1
  6181   001FB2  6F0E               	movwf	lcd_send_ATpos_string_data@coulmns& (0+255),b
  6182   001FB4  0ED4               	movlw	low STR_80
  6183   001FB6  6F0F               	movwf	lcd_send_ATpos_string_data@str& (0+255),b
  6184   001FB8  0EFF               	movlw	high STR_80
  6185   001FBA  6F10               	movwf	(lcd_send_ATpos_string_data@str+1)& (0+255),b
  6186   001FBC  ECB8  F01C         	call	_lcd_send_ATpos_string_data	;wreg free
  6187   001FC0  C10B  F0FE         	movff	?_lcd_send_ATpos_string_data,_ret
  6188   001FC4  C10C  F0FF         	movff	?_lcd_send_ATpos_string_data+1,_ret+1
  6189                           
  6190                           ;Application.c: 450:                             ret = lcd_send_ATpos_string_data(&lcd1,
      +                           3, 1, "2:TV off");
  6191   001FC8  0E5D               	movlw	low _lcd1
  6192   001FCA  0101               	movlb	1	; () banked
  6193   001FCC  6F0B               	movwf	lcd_send_ATpos_string_data@_LCD_& (0+255),b
  6194   001FCE  0E00               	movlw	high _lcd1
  6195   001FD0  6F0C               	movwf	(lcd_send_ATpos_string_data@_LCD_+1)& (0+255),b
  6196   001FD2  0E03               	movlw	3
  6197   001FD4  6F0D               	movwf	lcd_send_ATpos_string_data@row& (0+255),b
  6198   001FD6  0E01               	movlw	1
  6199   001FD8  6F0E               	movwf	lcd_send_ATpos_string_data@coulmns& (0+255),b
  6200   001FDA  0E80               	movlw	low STR_81
  6201   001FDC  6F0F               	movwf	lcd_send_ATpos_string_data@str& (0+255),b
  6202   001FDE  0EFF               	movlw	high STR_81
  6203   001FE0  6F10               	movwf	(lcd_send_ATpos_string_data@str+1)& (0+255),b
  6204   001FE2  ECB8  F01C         	call	_lcd_send_ATpos_string_data	;wreg free
  6205   001FE6  C10B  F0FE         	movff	?_lcd_send_ATpos_string_data,_ret
  6206   001FEA  C10C  F0FF         	movff	?_lcd_send_ATpos_string_data+1,_ret+1
  6207                           
  6208                           ;Application.c: 451:                             ret = lcd_send_ATpos_string_data(&lcd1,
      +                           4, 1, "0:Ret");
  6209   001FEE  0E5D               	movlw	low _lcd1
  6210   001FF0  0101               	movlb	1	; () banked
  6211   001FF2  6F0B               	movwf	lcd_send_ATpos_string_data@_LCD_& (0+255),b
  6212   001FF4  0E00               	movlw	high _lcd1
  6213   001FF6  6F0C               	movwf	(lcd_send_ATpos_string_data@_LCD_+1)& (0+255),b
  6214   001FF8  0E04               	movlw	4
  6215   001FFA  6F0D               	movwf	lcd_send_ATpos_string_data@row& (0+255),b
  6216   001FFC  0E01               	movlw	1
  6217   001FFE  6F0E               	movwf	lcd_send_ATpos_string_data@coulmns& (0+255),b
  6218   002000  0EE9               	movlw	low STR_42
  6219   002002  6F0F               	movwf	lcd_send_ATpos_string_data@str& (0+255),b
  6220   002004  0EFF               	movlw	high STR_42
  6221   002006  6F10               	movwf	(lcd_send_ATpos_string_data@str+1)& (0+255),b
  6222   002008  ECB8  F01C         	call	_lcd_send_ATpos_string_data	;wreg free
  6223   00200C  C10B  F0FE         	movff	?_lcd_send_ATpos_string_data,_ret
  6224   002010  C10C  F0FF         	movff	?_lcd_send_ATpos_string_data+1,_ret+1
  6225   002014                     
  6226                           ;Application.c: 452:                             key_status = 0;
  6227   002014  0E00               	movlw	0
  6228   002016  0100               	movlb	0	; () banked
  6229   002018  6FEA               	movwf	_key_status& (0+255),b
  6230   00201A                     l10797:
  6231                           
  6232                           ; BSR set to: 0
  6233                           ;Application.c: 454:                                 ret = Key_Pad_Get_Value(&key_pad1, 
      +                          &key_status);
  6234   00201A  0EA4               	movlw	low _key_pad1
  6235   00201C  6FF7               	movwf	Key_Pad_Get_Value@_key_pad& (0+255),b
  6236   00201E  0E00               	movlw	high _key_pad1
  6237   002020  6FF8               	movwf	(Key_Pad_Get_Value@_key_pad+1)& (0+255),b
  6238   002022  0EEA               	movlw	low _key_status
  6239   002024  6FF9               	movwf	Key_Pad_Get_Value@value& (0+255),b
  6240   002026  0E00               	movlw	high _key_status
  6241   002028  6FFA               	movwf	(Key_Pad_Get_Value@value+1)& (0+255),b
  6242   00202A  ECEB  F016         	call	_Key_Pad_Get_Value	;wreg free
  6243   00202E  C0F7  F0FE         	movff	?_Key_Pad_Get_Value,_ret
  6244   002032  C0F8  F0FF         	movff	?_Key_Pad_Get_Value+1,_ret+1
  6245                           
  6246                           ;Application.c: 455:                             } while (0 == key_status);
  6247   002036  0100               	movlb	0	; () banked
  6248   002038  51EA               	movf	_key_status& (0+255),w,b
  6249   00203A  B4D8               	btfsc	status,2,c
  6250   00203C  EF22  F010         	goto	u9601
  6251   002040  EF24  F010         	goto	u9600
  6252   002044                     u9601:
  6253   002044  EF0D  F010         	goto	l10797
  6254   002048                     u9600:
  6255   002048                     
  6256                           ; BSR set to: 0
  6257                           ;Application.c: 456:                             _delay((unsigned long)((300)*(4000000UL
      +                          /4000.0)));
  6258   002048  0E02               	movlw	2
  6259   00204A  0101               	movlb	1	; () banked
  6260   00204C  6F14               	movwf	(??_main+1)& (0+255),b
  6261   00204E  0E86               	movlw	134
  6262   002050  6F13               	movwf	??_main& (0+255),b
  6263   002052  0E99               	movlw	153
  6264   002054                     u10057:
  6265   002054  2EE8               	decfsz	wreg,f,c
  6266   002056  D7FE               	bra	u10057
  6267   002058  2F13               	decfsz	??_main& (0+255),f,b
  6268   00205A  D7FC               	bra	u10057
  6269   00205C  2F14               	decfsz	(??_main+1)& (0+255),f,b
  6270   00205E  D7FA               	bra	u10057
  6271                           
  6272                           ;Application.c: 457:                             switch (key_status) {
  6273   002060  EF4A  F010         	goto	l10811
  6274   002064                     l10801:
  6275                           
  6276                           ; BSR set to: 1
  6277   002064  0E09               	movlw	9
  6278   002066  EC08  F01F         	call	_SPI_Send_Byte
  6279   00206A  C0EB  F0FE         	movff	?_SPI_Send_Byte,_ret
  6280   00206E  C0EC  F0FF         	movff	?_SPI_Send_Byte+1,_ret+1
  6281   002072  0E01               	movlw	1
  6282   002074  0100               	movlb	0	; () banked
  6283   002076  6FE7               	movwf	_spi_slave_reader& (0+255),b	;volatile
  6284   002078  EF61  F010         	goto	l10813
  6285   00207C                     l10805:
  6286                           
  6287                           ; BSR set to: 1
  6288   00207C  0E00               	movlw	0
  6289   00207E  EC08  F01F         	call	_SPI_Send_Byte
  6290   002082  C0EB  F0FE         	movff	?_SPI_Send_Byte,_ret
  6291   002086  C0EC  F0FF         	movff	?_SPI_Send_Byte+1,_ret+1
  6292   00208A  0E00               	movlw	0
  6293   00208C  0100               	movlb	0	; () banked
  6294   00208E  6FE7               	movwf	_spi_slave_reader& (0+255),b	;volatile
  6295   002090  EF61  F010         	goto	l10813
  6296   002094                     l10811:
  6297   002094  0100               	movlb	0	; () banked
  6298   002096  51EA               	movf	_key_status& (0+255),w,b
  6299   002098  0101               	movlb	1	; () banked
  6300   00209A  6F13               	movwf	??_main& (0+255),b
  6301   00209C  6B14               	clrf	(??_main+1)& (0+255),b
  6302                           
  6303                           ; Switch on 2 bytes has been partitioned into a top level switch of size 1, and 1 sub-sw
      +                          itches
  6304                           ; Switch size 1, requested type "simple"
  6305                           ; Number of cases is 1, Range of values is 0 to 0
  6306                           ; switch strategies available:
  6307                           ; Name         Instructions Cycles
  6308                           ; simple_byte            4     3 (average)
  6309                           ;	Chosen strategy is simple_byte
  6310   00209E  5114               	movf	(??_main+1)& (0+255),w,b
  6311   0020A0  0A00               	xorlw	0	; case 0
  6312   0020A2  B4D8               	btfsc	status,2,c
  6313   0020A4  EF56  F010         	goto	l11429
  6314   0020A8  EF61  F010         	goto	l10813
  6315   0020AC                     l11429:
  6316                           
  6317                           ; BSR set to: 1
  6318                           ; Switch size 1, requested type "simple"
  6319                           ; Number of cases is 2, Range of values is 49 to 50
  6320                           ; switch strategies available:
  6321                           ; Name         Instructions Cycles
  6322                           ; simple_byte            7     4 (average)
  6323                           ;	Chosen strategy is simple_byte
  6324   0020AC  5113               	movf	??_main& (0+255),w,b
  6325   0020AE  0A31               	xorlw	49	; case 49
  6326   0020B0  B4D8               	btfsc	status,2,c
  6327   0020B2  EF32  F010         	goto	l10801
  6328   0020B6  0A03               	xorlw	3	; case 50
  6329   0020B8  B4D8               	btfsc	status,2,c
  6330   0020BA  EF3E  F010         	goto	l10805
  6331   0020BE  EF61  F010         	goto	l10813
  6332   0020C2                     l10813:
  6333                           
  6334                           ;Application.c: 461:                             if ('0' == key_status) {
  6335   0020C2  0E30               	movlw	48
  6336   0020C4  0100               	movlb	0	; () banked
  6337   0020C6  19EA               	xorwf	_key_status& (0+255),w,b
  6338   0020C8  A4D8               	btfss	status,2,c
  6339   0020CA  EF69  F010         	goto	u9611
  6340   0020CE  EF6B  F010         	goto	u9610
  6341   0020D2                     u9611:
  6342   0020D2  EF7A  F010         	goto	l10819
  6343   0020D6                     u9610:
  6344   0020D6                     
  6345                           ; BSR set to: 0
  6346                           ;Application.c: 462:                                 ret = lcd_send_command(&lcd1, 0x01)
      +                          ;
  6347   0020D6  0E5D               	movlw	low _lcd1
  6348   0020D8  0101               	movlb	1	; () banked
  6349   0020DA  6F00               	movwf	lcd_send_command@_LCD_& (0+255),b
  6350   0020DC  0E00               	movlw	high _lcd1
  6351   0020DE  6F01               	movwf	(lcd_send_command@_LCD_+1)& (0+255),b
  6352   0020E0  0E01               	movlw	1
  6353   0020E2  6F02               	movwf	lcd_send_command@command& (0+255),b
  6354   0020E4  EC52  F01B         	call	_lcd_send_command	;wreg free
  6355   0020E8  C100  F0FE         	movff	?_lcd_send_command,_ret
  6356   0020EC  C101  F0FF         	movff	?_lcd_send_command+1,_ret+1
  6357                           
  6358                           ;Application.c: 463:                                 break;
  6359   0020F0  EFD3  F010         	goto	l10835
  6360   0020F4                     l10819:
  6361                           
  6362                           ; BSR set to: 0
  6363   0020F4  0E31               	movlw	49
  6364   0020F6  19EA               	xorwf	_key_status& (0+255),w,b
  6365   0020F8  B4D8               	btfsc	status,2,c
  6366   0020FA  EF81  F010         	goto	u9621
  6367   0020FE  EF83  F010         	goto	u9620
  6368   002102                     u9621:
  6369   002102  EFB9  F010         	goto	l10829
  6370   002106                     u9620:
  6371   002106                     
  6372                           ; BSR set to: 0
  6373   002106  0E32               	movlw	50
  6374   002108  19EA               	xorwf	_key_status& (0+255),w,b
  6375   00210A  B4D8               	btfsc	status,2,c
  6376   00210C  EF8A  F010         	goto	u9631
  6377   002110  EF8C  F010         	goto	u9630
  6378   002114                     u9631:
  6379   002114  EFB9  F010         	goto	l10829
  6380   002118                     u9630:
  6381   002118                     
  6382                           ; BSR set to: 0
  6383                           ;Application.c: 465:                                 ret = lcd_send_command(&lcd1, 0x01)
      +                          ;
  6384   002118  0E5D               	movlw	low _lcd1
  6385   00211A  0101               	movlb	1	; () banked
  6386   00211C  6F00               	movwf	lcd_send_command@_LCD_& (0+255),b
  6387   00211E  0E00               	movlw	high _lcd1
  6388   002120  6F01               	movwf	(lcd_send_command@_LCD_+1)& (0+255),b
  6389   002122  0E01               	movlw	1
  6390   002124  6F02               	movwf	lcd_send_command@command& (0+255),b
  6391   002126  EC52  F01B         	call	_lcd_send_command	;wreg free
  6392   00212A  C100  F0FE         	movff	?_lcd_send_command,_ret
  6393   00212E  C101  F0FF         	movff	?_lcd_send_command+1,_ret+1
  6394   002132                     
  6395                           ;Application.c: 466:                                 ret = lcd_send_ATpos_string_data(&l
      +                          cd1, 1, 1, "Wrong choice");
  6396   002132  0E5D               	movlw	low _lcd1
  6397   002134  0101               	movlb	1	; () banked
  6398   002136  6F0B               	movwf	lcd_send_ATpos_string_data@_LCD_& (0+255),b
  6399   002138  0E00               	movlw	high _lcd1
  6400   00213A  6F0C               	movwf	(lcd_send_ATpos_string_data@_LCD_+1)& (0+255),b
  6401   00213C  0E01               	movlw	1
  6402   00213E  6F0D               	movwf	lcd_send_ATpos_string_data@row& (0+255),b
  6403   002140  0E01               	movlw	1
  6404   002142  6F0E               	movwf	lcd_send_ATpos_string_data@coulmns& (0+255),b
  6405   002144  0E0A               	movlw	low STR_36
  6406   002146  6F0F               	movwf	lcd_send_ATpos_string_data@str& (0+255),b
  6407   002148  0EFF               	movlw	high STR_36
  6408   00214A  6F10               	movwf	(lcd_send_ATpos_string_data@str+1)& (0+255),b
  6409   00214C  ECB8  F01C         	call	_lcd_send_ATpos_string_data	;wreg free
  6410   002150  C10B  F0FE         	movff	?_lcd_send_ATpos_string_data,_ret
  6411   002154  C10C  F0FF         	movff	?_lcd_send_ATpos_string_data+1,_ret+1
  6412   002158                     
  6413                           ;Application.c: 467:                                 _delay((unsigned long)((500)*(40000
      +                          00UL/4000.0)));
  6414   002158  0E03               	movlw	3
  6415   00215A  0101               	movlb	1	; () banked
  6416   00215C  6F14               	movwf	(??_main+1)& (0+255),b
  6417   00215E  0E8A               	movlw	138
  6418   002160  6F13               	movwf	??_main& (0+255),b
  6419   002162  0E55               	movlw	85
  6420   002164                     u10067:
  6421   002164  2EE8               	decfsz	wreg,f,c
  6422   002166  D7FE               	bra	u10067
  6423   002168  2F13               	decfsz	??_main& (0+255),f,b
  6424   00216A  D7FC               	bra	u10067
  6425   00216C  2F14               	decfsz	(??_main+1)& (0+255),f,b
  6426   00216E  D7FA               	bra	u10067
  6427   002170  D000               	nop2	
  6428   002172                     l10829:
  6429                           
  6430                           ;Application.c: 469:                             key_status = '2';
  6431   002172  0E32               	movlw	50
  6432   002174  0100               	movlb	0	; () banked
  6433   002176  6FEA               	movwf	_key_status& (0+255),b
  6434   002178                     
  6435                           ; BSR set to: 0
  6436                           ;Application.c: 470:                             _delay((unsigned long)((500)*(4000000UL
      +                          /4000.0)));
  6437   002178  0E03               	movlw	3
  6438   00217A  0101               	movlb	1	; () banked
  6439   00217C  6F14               	movwf	(??_main+1)& (0+255),b
  6440   00217E  0E8A               	movlw	138
  6441   002180  6F13               	movwf	??_main& (0+255),b
  6442   002182  0E55               	movlw	85
  6443   002184                     u10077:
  6444   002184  2EE8               	decfsz	wreg,f,c
  6445   002186  D7FE               	bra	u10077
  6446   002188  2F13               	decfsz	??_main& (0+255),f,b
  6447   00218A  D7FC               	bra	u10077
  6448   00218C  2F14               	decfsz	(??_main+1)& (0+255),f,b
  6449   00218E  D7FA               	bra	u10077
  6450   002190  D000               	nop2	
  6451   002192                     l10833:
  6452                           
  6453                           ;Application.c: 440:                     while ('2' == key_status){
  6454   002192  0E32               	movlw	50
  6455   002194  0100               	movlb	0	; () banked
  6456   002196  19EA               	xorwf	_key_status& (0+255),w,b
  6457   002198  B4D8               	btfsc	status,2,c
  6458   00219A  EFD1  F010         	goto	u9641
  6459   00219E  EFD3  F010         	goto	u9640
  6460   0021A2                     u9641:
  6461   0021A2  EF70  F00F         	goto	l10781
  6462   0021A6                     u9640:
  6463   0021A6                     l10835:
  6464                           
  6465                           ;Application.c: 472:                     while('3' == key_status){
  6466   0021A6  0E33               	movlw	51
  6467   0021A8  0100               	movlb	0	; () banked
  6468   0021AA  19EA               	xorwf	_key_status& (0+255),w,b
  6469   0021AC  B4D8               	btfsc	status,2,c
  6470   0021AE  EFDB  F010         	goto	u9651
  6471   0021B2  EFDD  F010         	goto	u9650
  6472   0021B6                     u9651:
  6473   0021B6  EFD3  F010         	goto	l10835
  6474   0021BA                     u9650:
  6475   0021BA                     
  6476                           ; BSR set to: 0
  6477                           ;Application.c: 475:                     if('0' == key_status){
  6478   0021BA  0E30               	movlw	48
  6479   0021BC  19EA               	xorwf	_key_status& (0+255),w,b
  6480   0021BE  A4D8               	btfss	status,2,c
  6481   0021C0  EFE4  F010         	goto	u9661
  6482   0021C4  EFE6  F010         	goto	u9660
  6483   0021C8                     u9661:
  6484   0021C8  EFE8  F010         	goto	l10843
  6485   0021CC                     u9660:
  6486   0021CC  EF02  F00D         	goto	l10683
  6487   0021D0                     l10843:
  6488                           
  6489                           ; BSR set to: 0
  6490   0021D0  0E31               	movlw	49
  6491   0021D2  19EA               	xorwf	_key_status& (0+255),w,b
  6492   0021D4  B4D8               	btfsc	status,2,c
  6493   0021D6  EFEF  F010         	goto	u9671
  6494   0021DA  EFF1  F010         	goto	u9670
  6495   0021DE                     u9671:
  6496   0021DE  EF30  F011         	goto	l10855
  6497   0021E2                     u9670:
  6498   0021E2                     
  6499                           ; BSR set to: 0
  6500   0021E2  0E32               	movlw	50
  6501   0021E4  19EA               	xorwf	_key_status& (0+255),w,b
  6502   0021E6  B4D8               	btfsc	status,2,c
  6503   0021E8  EFF8  F010         	goto	u9681
  6504   0021EC  EFFA  F010         	goto	u9680
  6505   0021F0                     u9681:
  6506   0021F0  EF30  F011         	goto	l10855
  6507   0021F4                     u9680:
  6508   0021F4                     
  6509                           ; BSR set to: 0
  6510   0021F4  0E33               	movlw	51
  6511   0021F6  19EA               	xorwf	_key_status& (0+255),w,b
  6512   0021F8  B4D8               	btfsc	status,2,c
  6513   0021FA  EF01  F011         	goto	u9691
  6514   0021FE  EF03  F011         	goto	u9690
  6515   002202                     u9691:
  6516   002202  EF30  F011         	goto	l10855
  6517   002206                     u9690:
  6518   002206                     
  6519                           ; BSR set to: 0
  6520                           ;Application.c: 479:                         ret = lcd_send_command(&lcd1 , 0x01);
  6521   002206  0E5D               	movlw	low _lcd1
  6522   002208  0101               	movlb	1	; () banked
  6523   00220A  6F00               	movwf	lcd_send_command@_LCD_& (0+255),b
  6524   00220C  0E00               	movlw	high _lcd1
  6525   00220E  6F01               	movwf	(lcd_send_command@_LCD_+1)& (0+255),b
  6526   002210  0E01               	movlw	1
  6527   002212  6F02               	movwf	lcd_send_command@command& (0+255),b
  6528   002214  EC52  F01B         	call	_lcd_send_command	;wreg free
  6529   002218  C100  F0FE         	movff	?_lcd_send_command,_ret
  6530   00221C  C101  F0FF         	movff	?_lcd_send_command+1,_ret+1
  6531   002220                     
  6532                           ;Application.c: 480:                         ret = lcd_send_ATpos_string_data(&lcd1 , 1 
      +                          , 1 , "Wrong choice");
  6533   002220  0E5D               	movlw	low _lcd1
  6534   002222  0101               	movlb	1	; () banked
  6535   002224  6F0B               	movwf	lcd_send_ATpos_string_data@_LCD_& (0+255),b
  6536   002226  0E00               	movlw	high _lcd1
  6537   002228  6F0C               	movwf	(lcd_send_ATpos_string_data@_LCD_+1)& (0+255),b
  6538   00222A  0E01               	movlw	1
  6539   00222C  6F0D               	movwf	lcd_send_ATpos_string_data@row& (0+255),b
  6540   00222E  0E01               	movlw	1
  6541   002230  6F0E               	movwf	lcd_send_ATpos_string_data@coulmns& (0+255),b
  6542   002232  0E0A               	movlw	low STR_36
  6543   002234  6F0F               	movwf	lcd_send_ATpos_string_data@str& (0+255),b
  6544   002236  0EFF               	movlw	high STR_36
  6545   002238  6F10               	movwf	(lcd_send_ATpos_string_data@str+1)& (0+255),b
  6546   00223A  ECB8  F01C         	call	_lcd_send_ATpos_string_data	;wreg free
  6547   00223E  C10B  F0FE         	movff	?_lcd_send_ATpos_string_data,_ret
  6548   002242  C10C  F0FF         	movff	?_lcd_send_ATpos_string_data+1,_ret+1
  6549   002246                     
  6550                           ;Application.c: 481:                         _delay((unsigned long)((500)*(4000000UL/400
      +                          0.0)));
  6551   002246  0E03               	movlw	3
  6552   002248  0101               	movlb	1	; () banked
  6553   00224A  6F14               	movwf	(??_main+1)& (0+255),b
  6554   00224C  0E8A               	movlw	138
  6555   00224E  6F13               	movwf	??_main& (0+255),b
  6556   002250  0E55               	movlw	85
  6557   002252                     u10087:
  6558   002252  2EE8               	decfsz	wreg,f,c
  6559   002254  D7FE               	bra	u10087
  6560   002256  2F13               	decfsz	??_main& (0+255),f,b
  6561   002258  D7FC               	bra	u10087
  6562   00225A  2F14               	decfsz	(??_main+1)& (0+255),f,b
  6563   00225C  D7FA               	bra	u10087
  6564   00225E  D000               	nop2	
  6565   002260                     l10855:
  6566                           
  6567                           ;Application.c: 483:                     key_status = '4';
  6568   002260  0E34               	movlw	52
  6569   002262  0100               	movlb	0	; () banked
  6570   002264  6FEA               	movwf	_key_status& (0+255),b
  6571   002266                     
  6572                           ; BSR set to: 0
  6573                           ;Application.c: 484:                     _delay((unsigned long)((500)*(4000000UL/4000.0)
      +                          ));
  6574   002266  0E03               	movlw	3
  6575   002268  0101               	movlb	1	; () banked
  6576   00226A  6F14               	movwf	(??_main+1)& (0+255),b
  6577   00226C  0E8A               	movlw	138
  6578   00226E  6F13               	movwf	??_main& (0+255),b
  6579   002270  0E55               	movlw	85
  6580   002272                     u10097:
  6581   002272  2EE8               	decfsz	wreg,f,c
  6582   002274  D7FE               	bra	u10097
  6583   002276  2F13               	decfsz	??_main& (0+255),f,b
  6584   002278  D7FC               	bra	u10097
  6585   00227A  2F14               	decfsz	(??_main+1)& (0+255),f,b
  6586   00227C  D7FA               	bra	u10097
  6587   00227E  D000               	nop2	
  6588   002280                     l10859:
  6589                           
  6590                           ;Application.c: 391:                     while('4' == key_status){
  6591   002280  0E34               	movlw	52
  6592   002282  0100               	movlb	0	; () banked
  6593   002284  19EA               	xorwf	_key_status& (0+255),w,b
  6594   002286  B4D8               	btfsc	status,2,c
  6595   002288  EF48  F011         	goto	u9701
  6596   00228C  EF4A  F011         	goto	u9700
  6597   002290                     u9701:
  6598   002290  EF77  F00D         	goto	l10707
  6599   002294                     u9700:
  6600   002294                     l10861:
  6601                           
  6602                           ;Application.c: 214:         while((uint8)4 == Guest_pass_flag || (uint8)4 == Admin_pass
      +                          _flag){
  6603   002294  0E04               	movlw	4
  6604   002296  0100               	movlb	0	; () banked
  6605   002298  19E8               	xorwf	_Guest_pass_flag& (0+255),w,b
  6606   00229A  B4D8               	btfsc	status,2,c
  6607   00229C  EF52  F011         	goto	u9711
  6608   0022A0  EF54  F011         	goto	u9710
  6609   0022A4                     u9711:
  6610   0022A4  EF8A  F006         	goto	l10437
  6611   0022A8                     u9710:
  6612   0022A8                     
  6613                           ; BSR set to: 0
  6614   0022A8  0E04               	movlw	4
  6615   0022AA  19E9               	xorwf	_Admin_pass_flag& (0+255),w,b
  6616   0022AC  B4D8               	btfsc	status,2,c
  6617   0022AE  EF5B  F011         	goto	u9721
  6618   0022B2  EF5D  F011         	goto	u9720
  6619   0022B6                     u9721:
  6620   0022B6  EF8A  F006         	goto	l10437
  6621   0022BA                     u9720:
  6622   0022BA  EF0F  F006         	goto	l10413
  6623   0022BE                     l1939:
  6624   0022BE  EF07  F000         	goto	start
  6625   0022C2                     __end_of_main:
  6626                           	callstack 0
  6627                           
  6628 ;; *************** function _lcd_send_ATpos_string_data *****************
  6629 ;; Defined at:
  6630 ;;		line 168 in file "ECU_Layer/Ch_LCD/ecu_ch_lcd.c"
  6631 ;; Parameters:    Size  Location     Type
  6632 ;;  _LCD_           2   11[BANK1 ] PTR const struct .
  6633 ;;		 -> lcd1(6), 
  6634 ;;  row             1   13[BANK1 ] unsigned char 
  6635 ;;  coulmns         1   14[BANK1 ] unsigned char 
  6636 ;;  str             2   15[BANK1 ] PTR unsigned char 
  6637 ;;		 -> STR_87(15), STR_86(20), STR_85(16), STR_84(13), 
  6638 ;;		 -> STR_83(13), STR_82(6), STR_81(9), STR_80(8), 
  6639 ;;		 -> STR_79(4), STR_78(4), STR_77(6), STR_76(13), 
  6640 ;;		 -> STR_75(6), STR_74(10), STR_73(9), STR_72(4), 
  6641 ;;		 -> STR_71(4), STR_70(9), STR_69(6), STR_68(11), 
  6642 ;;		 -> STR_67(5), STR_66(8), STR_65(13), STR_64(13), 
  6643 ;;		 -> STR_63(6), STR_62(10), STR_61(9), STR_60(4), 
  6644 ;;		 -> STR_59(4), STR_58(9), STR_57(13), STR_56(6), 
  6645 ;;		 -> STR_55(10), STR_54(9), STR_53(4), STR_52(4), 
  6646 ;;		 -> STR_51(9), STR_50(13), STR_49(6), STR_48(10), 
  6647 ;;		 -> STR_47(9), STR_46(4), STR_45(4), STR_44(9), 
  6648 ;;		 -> STR_43(13), STR_42(6), STR_41(10), STR_40(9), 
  6649 ;;		 -> STR_39(4), STR_38(4), STR_37(9), STR_36(13), 
  6650 ;;		 -> STR_35(7), STR_34(8), STR_33(8), STR_32(8), 
  6651 ;;		 -> STR_31(8), STR_30(13), STR_29(13), STR_28(13), 
  6652 ;;		 -> STR_27(18), STR_26(13), STR_25(18), STR_24(12), 
  6653 ;;		 -> STR_23(13), STR_22(16), STR_21(12), STR_20(13), 
  6654 ;;		 -> STR_19(12), STR_18(13), STR_17(16), STR_16(12), 
  6655 ;;		 -> STR_15(13), STR_14(9), STR_13(9), STR_12(14), 
  6656 ;;		 -> STR_11(19), STR_10(12), STR_9(19), STR_8(19), 
  6657 ;;		 -> STR_7(12), STR_6(19), STR_5(21), STR_4(8), 
  6658 ;; Auto vars:     Size  Location     Type
  6659 ;;  ret             2   17[BANK1 ] unsigned int 
  6660 ;; Return value:  Size  Location     Type
  6661 ;;                  2   11[BANK1 ] unsigned int 
  6662 ;; Registers used:
  6663 ;;		wreg, fsr2l, fsr2h, status,2, status,0, tblptrl, tblptrh, tblptru, prodl, prodh, cstack
  6664 ;; Tracked objects:
  6665 ;;		On entry : 0/0
  6666 ;;		On exit  : 0/0
  6667 ;;		Unchanged: 0/0
  6668 ;; Data sizes:     COMRAM   BANK0   BANK1   BANK2   BANK3   BANK4   BANK5   BANK6   BANK7   BANK8   BANK9  BANK10  BANK1
      +1  BANK12  BANK13  BANK14  BANK15
  6669 ;;      Params:         0       0       6       0       0       0       0       0       0       0       0       0       
      +0       0       0       0       0
  6670 ;;      Locals:         0       0       2       0       0       0       0       0       0       0       0       0       
      +0       0       0       0       0
  6671 ;;      Temps:          0       0       0       0       0       0       0       0       0       0       0       0       
      +0       0       0       0       0
  6672 ;;      Totals:         0       0       8       0       0       0       0       0       0       0       0       0       
      +0       0       0       0       0
  6673 ;;Total ram usage:        8 bytes
  6674 ;; Hardware stack levels used: 1
  6675 ;; Hardware stack levels required when called: 12
  6676 ;; This function calls:
  6677 ;;		_lcd_send_string_data
  6678 ;;		_lcd_set_cursor
  6679 ;; This function is called by:
  6680 ;;		_main
  6681 ;; This function uses a non-reentrant model
  6682 ;;
  6683                           
  6684                           	psect	text1
  6685   003970                     __ptext1:
  6686                           	callstack 0
  6687   003970                     _lcd_send_ATpos_string_data:
  6688                           	callstack 18
  6689   003970                     
  6690                           ;ECU_Layer/Ch_LCD/ecu_ch_lcd.c: 172:     if(((void*)0) == _LCD_ || ((void*)0) == str)
  6691   003970  0101               	movlb	1	; () banked
  6692   003972  510B               	movf	lcd_send_ATpos_string_data@_LCD_& (0+255),w,b
  6693   003974  110C               	iorwf	(lcd_send_ATpos_string_data@_LCD_+1)& (0+255),w,b
  6694   003976  B4D8               	btfsc	status,2,c
  6695   003978  EFC0  F01C         	goto	u7871
  6696   00397C  EFC2  F01C         	goto	u7870
  6697   003980                     u7871:
  6698   003980  EFCB  F01C         	goto	l9449
  6699   003984                     u7870:
  6700   003984                     
  6701                           ; BSR set to: 1
  6702   003984  510F               	movf	lcd_send_ATpos_string_data@str& (0+255),w,b
  6703   003986  1110               	iorwf	(lcd_send_ATpos_string_data@str+1)& (0+255),w,b
  6704   003988  A4D8               	btfss	status,2,c
  6705   00398A  EFC9  F01C         	goto	u7881
  6706   00398E  EFCB  F01C         	goto	u7880
  6707   003992                     u7881:
  6708   003992  EFD1  F01C         	goto	l9451
  6709   003996                     u7880:
  6710   003996                     l9449:
  6711                           
  6712                           ; BSR set to: 1
  6713                           ;ECU_Layer/Ch_LCD/ecu_ch_lcd.c: 173:     {;ECU_Layer/Ch_LCD/ecu_ch_lcd.c: 174:         r
      +                          et = (Std_ReturnType)0x00;
  6714   003996  0E00               	movlw	0
  6715   003998  6F12               	movwf	(lcd_send_ATpos_string_data@ret+1)& (0+255),b
  6716   00399A  0E00               	movlw	0
  6717   00399C  6F11               	movwf	lcd_send_ATpos_string_data@ret& (0+255),b
  6718                           
  6719                           ;ECU_Layer/Ch_LCD/ecu_ch_lcd.c: 175:     }
  6720   00399E  EFE9  F01C         	goto	l9455
  6721   0039A2                     l9451:
  6722                           
  6723                           ; BSR set to: 1
  6724                           ;ECU_Layer/Ch_LCD/ecu_ch_lcd.c: 177:     {;ECU_Layer/Ch_LCD/ecu_ch_lcd.c: 178:        lc
      +                          d_set_cursor(_LCD_ , row ,coulmns);
  6725   0039A2  C10B  F105         	movff	lcd_send_ATpos_string_data@_LCD_,lcd_set_cursor@_LCD_
  6726   0039A6  C10C  F106         	movff	lcd_send_ATpos_string_data@_LCD_+1,lcd_set_cursor@_LCD_+1
  6727   0039AA  C10D  F107         	movff	lcd_send_ATpos_string_data@row,lcd_set_cursor@row
  6728   0039AE  C10E  F108         	movff	lcd_send_ATpos_string_data@coulmns,lcd_set_cursor@coulmn
  6729   0039B2  EC55  F019         	call	_lcd_set_cursor	;wreg free
  6730   0039B6                     
  6731                           ;ECU_Layer/Ch_LCD/ecu_ch_lcd.c: 179:        ret= lcd_send_string_data(_LCD_ ,str);
  6732   0039B6  C10B  F105         	movff	lcd_send_ATpos_string_data@_LCD_,lcd_send_string_data@_LCD_
  6733   0039BA  C10C  F106         	movff	lcd_send_ATpos_string_data@_LCD_+1,lcd_send_string_data@_LCD_+1
  6734   0039BE  C10F  F107         	movff	lcd_send_ATpos_string_data@str,lcd_send_string_data@str
  6735   0039C2  C110  F108         	movff	lcd_send_ATpos_string_data@str+1,lcd_send_string_data@str+1
  6736   0039C6  EC87  F01A         	call	_lcd_send_string_data	;wreg free
  6737   0039CA  C105  F111         	movff	?_lcd_send_string_data,lcd_send_ATpos_string_data@ret
  6738   0039CE  C106  F112         	movff	?_lcd_send_string_data+1,lcd_send_ATpos_string_data@ret+1
  6739   0039D2                     l9455:
  6740                           
  6741                           ;ECU_Layer/Ch_LCD/ecu_ch_lcd.c: 181:     return ret;
  6742   0039D2  C111  F10B         	movff	lcd_send_ATpos_string_data@ret,?_lcd_send_ATpos_string_data
  6743   0039D6  C112  F10C         	movff	lcd_send_ATpos_string_data@ret+1,?_lcd_send_ATpos_string_data+1
  6744   0039DA  0012               	return		;funcret
  6745   0039DC                     __end_of_lcd_send_ATpos_string_data:
  6746                           	callstack 0
  6747                           
  6748 ;; *************** function _lcd_send_string_data *****************
  6749 ;; Defined at:
  6750 ;;		line 150 in file "ECU_Layer/Ch_LCD/ecu_ch_lcd.c"
  6751 ;; Parameters:    Size  Location     Type
  6752 ;;  _LCD_           2    5[BANK1 ] PTR const struct .
  6753 ;;		 -> lcd1(6), 
  6754 ;;  str             2    7[BANK1 ] PTR unsigned char 
  6755 ;;		 -> STR_87(15), STR_86(20), STR_85(16), STR_84(13), 
  6756 ;;		 -> STR_83(13), STR_82(6), STR_81(9), STR_80(8), 
  6757 ;;		 -> STR_79(4), STR_78(4), STR_77(6), STR_76(13), 
  6758 ;;		 -> STR_75(6), STR_74(10), STR_73(9), STR_72(4), 
  6759 ;;		 -> STR_71(4), STR_70(9), STR_69(6), STR_68(11), 
  6760 ;;		 -> STR_67(5), STR_66(8), STR_65(13), STR_64(13), 
  6761 ;;		 -> STR_63(6), STR_62(10), STR_61(9), STR_60(4), 
  6762 ;;		 -> STR_59(4), STR_58(9), STR_57(13), STR_56(6), 
  6763 ;;		 -> STR_55(10), STR_54(9), STR_53(4), STR_52(4), 
  6764 ;;		 -> STR_51(9), STR_50(13), STR_49(6), STR_48(10), 
  6765 ;;		 -> STR_47(9), STR_46(4), STR_45(4), STR_44(9), 
  6766 ;;		 -> STR_43(13), STR_42(6), STR_41(10), STR_40(9), 
  6767 ;;		 -> STR_39(4), STR_38(4), STR_37(9), STR_36(13), 
  6768 ;;		 -> STR_35(7), STR_34(8), STR_33(8), STR_32(8), 
  6769 ;;		 -> STR_31(8), STR_30(13), STR_29(13), STR_28(13), 
  6770 ;;		 -> STR_27(18), STR_26(13), STR_25(18), STR_24(12), 
  6771 ;;		 -> STR_23(13), STR_22(16), STR_21(12), STR_20(13), 
  6772 ;;		 -> STR_19(12), STR_18(13), STR_17(16), STR_16(12), 
  6773 ;;		 -> STR_15(13), STR_14(9), STR_13(9), STR_12(14), 
  6774 ;;		 -> STR_11(19), STR_10(12), STR_9(19), STR_8(19), 
  6775 ;;		 -> STR_7(12), STR_6(19), STR_5(21), STR_4(8), 
  6776 ;; Auto vars:     Size  Location     Type
  6777 ;;  ret             2    9[BANK1 ] unsigned int 
  6778 ;; Return value:  Size  Location     Type
  6779 ;;                  2    5[BANK1 ] unsigned int 
  6780 ;; Registers used:
  6781 ;;		wreg, fsr2l, fsr2h, status,2, status,0, tblptrl, tblptrh, tblptru, prodl, prodh, cstack
  6782 ;; Tracked objects:
  6783 ;;		On entry : 0/0
  6784 ;;		On exit  : 0/0
  6785 ;;		Unchanged: 0/0
  6786 ;; Data sizes:     COMRAM   BANK0   BANK1   BANK2   BANK3   BANK4   BANK5   BANK6   BANK7   BANK8   BANK9  BANK10  BANK1
      +1  BANK12  BANK13  BANK14  BANK15
  6787 ;;      Params:         0       0       4       0       0       0       0       0       0       0       0       0       
      +0       0       0       0       0
  6788 ;;      Locals:         0       0       2       0       0       0       0       0       0       0       0       0       
      +0       0       0       0       0
  6789 ;;      Temps:          0       0       0       0       0       0       0       0       0       0       0       0       
      +0       0       0       0       0
  6790 ;;      Totals:         0       0       6       0       0       0       0       0       0       0       0       0       
      +0       0       0       0       0
  6791 ;;Total ram usage:        6 bytes
  6792 ;; Hardware stack levels used: 1
  6793 ;; Hardware stack levels required when called: 11
  6794 ;; This function calls:
  6795 ;;		_lcd_send_char_data
  6796 ;; This function is called by:
  6797 ;;		_lcd_send_ATpos_string_data
  6798 ;; This function uses a non-reentrant model
  6799 ;;
  6800                           
  6801                           	psect	text2
  6802   00350E                     __ptext2:
  6803                           	callstack 0
  6804   00350E                     _lcd_send_string_data:
  6805                           	callstack 18
  6806   00350E                     
  6807                           ;ECU_Layer/Ch_LCD/ecu_ch_lcd.c: 150: Std_ReturnType lcd_send_string_data(const Ch_LCD *_
      +                          LCD_ ,uint8 *str);ECU_Layer/Ch_LCD/ecu_ch_lcd.c: 151: {;ECU_Layer/Ch_LCD/ecu_ch_lcd.c: 1
      +                          52:      Std_ReturnType ret = (Std_ReturnType)0x01 ;
  6808   00350E  0E00               	movlw	0
  6809   003510  0101               	movlb	1	; () banked
  6810   003512  6F0A               	movwf	(lcd_send_string_data@ret+1)& (0+255),b
  6811   003514  0E01               	movlw	1
  6812   003516  6F09               	movwf	lcd_send_string_data@ret& (0+255),b
  6813   003518                     
  6814                           ; BSR set to: 1
  6815                           ;ECU_Layer/Ch_LCD/ecu_ch_lcd.c: 153:     if(((void*)0) == _LCD_ || ((void*)0) == str)
  6816   003518  5105               	movf	lcd_send_string_data@_LCD_& (0+255),w,b
  6817   00351A  1106               	iorwf	(lcd_send_string_data@_LCD_+1)& (0+255),w,b
  6818   00351C  B4D8               	btfsc	status,2,c
  6819   00351E  EF93  F01A         	goto	u7641
  6820   003522  EF95  F01A         	goto	u7640
  6821   003526                     u7641:
  6822   003526  EF9E  F01A         	goto	l9323
  6823   00352A                     u7640:
  6824   00352A                     
  6825                           ; BSR set to: 1
  6826   00352A  5107               	movf	lcd_send_string_data@str& (0+255),w,b
  6827   00352C  1108               	iorwf	(lcd_send_string_data@str+1)& (0+255),w,b
  6828   00352E  A4D8               	btfss	status,2,c
  6829   003530  EF9C  F01A         	goto	u7651
  6830   003534  EF9E  F01A         	goto	u7650
  6831   003538                     u7651:
  6832   003538  EFB9  F01A         	goto	l9329
  6833   00353C                     u7650:
  6834   00353C                     l9323:
  6835                           
  6836                           ; BSR set to: 1
  6837                           ;ECU_Layer/Ch_LCD/ecu_ch_lcd.c: 154:     {;ECU_Layer/Ch_LCD/ecu_ch_lcd.c: 155:         r
      +                          et = (Std_ReturnType)0x00;
  6838   00353C  0E00               	movlw	0
  6839   00353E  6F0A               	movwf	(lcd_send_string_data@ret+1)& (0+255),b
  6840   003540  0E00               	movlw	0
  6841   003542  6F09               	movwf	lcd_send_string_data@ret& (0+255),b
  6842                           
  6843                           ;ECU_Layer/Ch_LCD/ecu_ch_lcd.c: 156:     }
  6844   003544  EFC8  F01A         	goto	l70
  6845   003548                     l9325:
  6846                           
  6847                           ; BSR set to: 1
  6848                           ;ECU_Layer/Ch_LCD/ecu_ch_lcd.c: 160:         {;ECU_Layer/Ch_LCD/ecu_ch_lcd.c: 161:      
      +                                 ret = lcd_send_char_data(_LCD_ ,*str);
  6849   003548  C105  F100         	movff	lcd_send_string_data@_LCD_,lcd_send_char_data@_LCD_
  6850   00354C  C106  F101         	movff	lcd_send_string_data@_LCD_+1,lcd_send_char_data@_LCD_+1
  6851   003550  C107  FFF6         	movff	lcd_send_string_data@str,tblptrl
  6852   003554  C108  FFF7         	movff	lcd_send_string_data@str+1,tblptrh
  6853   003558                     	if	1	;Program memory is < 0x10000, tblptru is always zero
  6854   003558  6AF8               	clrf	tblptru,c
  6855   00355A                     	endif
  6856   00355A                     	if	0	;tblptru may be non-zero
  6857   00355A                     	endif
  6858   00355A  0008               	tblrd		*
  6859   00355C  CFF5 F102          	movff	tablat,lcd_send_char_data@data
  6860   003560  EC11  F01B         	call	_lcd_send_char_data	;wreg free
  6861   003564  C100  F109         	movff	?_lcd_send_char_data,lcd_send_string_data@ret
  6862   003568  C101  F10A         	movff	?_lcd_send_char_data+1,lcd_send_string_data@ret+1
  6863   00356C                     
  6864                           ;ECU_Layer/Ch_LCD/ecu_ch_lcd.c: 162:             str++;
  6865   00356C  0101               	movlb	1	; () banked
  6866   00356E  4B07               	infsnz	lcd_send_string_data@str& (0+255),f,b
  6867   003570  2B08               	incf	(lcd_send_string_data@str+1)& (0+255),f,b
  6868   003572                     l9329:
  6869                           
  6870                           ; BSR set to: 1
  6871                           ;ECU_Layer/Ch_LCD/ecu_ch_lcd.c: 159:         while(*str != ((void*)0))
  6872   003572  C107  FFF6         	movff	lcd_send_string_data@str,tblptrl
  6873   003576  C108  FFF7         	movff	lcd_send_string_data@str+1,tblptrh
  6874   00357A                     	if	1	;Program memory is < 0x10000, tblptru is always zero
  6875   00357A  6AF8               	clrf	tblptru,c
  6876   00357C                     	endif
  6877   00357C                     	if	0	;tblptru may be non-zero
  6878   00357C                     	endif
  6879   00357C  0008               	tblrd		*
  6880   00357E  50F5               	movf	tablat,w,c
  6881   003580  0900               	iorlw	0
  6882   003582  A4D8               	btfss	status,2,c
  6883   003584  EFC6  F01A         	goto	u7661
  6884   003588  EFC8  F01A         	goto	u7660
  6885   00358C                     u7661:
  6886   00358C  EFA4  F01A         	goto	l9325
  6887   003590                     u7660:
  6888   003590                     l70:
  6889                           
  6890                           ; BSR set to: 1
  6891                           ;ECU_Layer/Ch_LCD/ecu_ch_lcd.c: 165:     return ret;
  6892   003590  C109  F105         	movff	lcd_send_string_data@ret,?_lcd_send_string_data
  6893   003594  C10A  F106         	movff	lcd_send_string_data@ret+1,?_lcd_send_string_data+1
  6894   003598                     
  6895                           ; BSR set to: 1
  6896   003598  0012               	return		;funcret
  6897   00359A                     __end_of_lcd_send_string_data:
  6898                           	callstack 0
  6899                           
  6900 ;; *************** function _lcd_send_ATpos_char_data *****************
  6901 ;; Defined at:
  6902 ;;		line 134 in file "ECU_Layer/Ch_LCD/ecu_ch_lcd.c"
  6903 ;; Parameters:    Size  Location     Type
  6904 ;;  _LCD_           2   11[BANK1 ] PTR const struct .
  6905 ;;		 -> lcd1(6), 
  6906 ;;  row             1   13[BANK1 ] unsigned char 
  6907 ;;  coulmns         1   14[BANK1 ] unsigned char 
  6908 ;;  data            1   15[BANK1 ] unsigned char 
  6909 ;; Auto vars:     Size  Location     Type
  6910 ;;  ret             2   16[BANK1 ] unsigned int 
  6911 ;; Return value:  Size  Location     Type
  6912 ;;                  2   11[BANK1 ] unsigned int 
  6913 ;; Registers used:
  6914 ;;		wreg, fsr2l, fsr2h, status,2, status,0, prodl, prodh, cstack
  6915 ;; Tracked objects:
  6916 ;;		On entry : 0/0
  6917 ;;		On exit  : 0/0
  6918 ;;		Unchanged: 0/0
  6919 ;; Data sizes:     COMRAM   BANK0   BANK1   BANK2   BANK3   BANK4   BANK5   BANK6   BANK7   BANK8   BANK9  BANK10  BANK1
      +1  BANK12  BANK13  BANK14  BANK15
  6920 ;;      Params:         0       0       5       0       0       0       0       0       0       0       0       0       
      +0       0       0       0       0
  6921 ;;      Locals:         0       0       2       0       0       0       0       0       0       0       0       0       
      +0       0       0       0       0
  6922 ;;      Temps:          0       0       0       0       0       0       0       0       0       0       0       0       
      +0       0       0       0       0
  6923 ;;      Totals:         0       0       7       0       0       0       0       0       0       0       0       0       
      +0       0       0       0       0
  6924 ;;Total ram usage:        7 bytes
  6925 ;; Hardware stack levels used: 1
  6926 ;; Hardware stack levels required when called: 12
  6927 ;; This function calls:
  6928 ;;		_lcd_send_char_data
  6929 ;;		_lcd_set_cursor
  6930 ;; This function is called by:
  6931 ;;		_main
  6932 ;;		_lcd_send_custom_char
  6933 ;; This function uses a non-reentrant model
  6934 ;;
  6935                           
  6936                           	psect	text3
  6937   003B60                     __ptext3:
  6938                           	callstack 0
  6939   003B60                     _lcd_send_ATpos_char_data:
  6940                           	callstack 18
  6941   003B60                     
  6942                           ;ECU_Layer/Ch_LCD/ecu_ch_lcd.c: 134: Std_ReturnType lcd_send_ATpos_char_data(const Ch_LC
      +                          D *_LCD_ ,uint8 row ,;ECU_Layer/Ch_LCD/ecu_ch_lcd.c: 135:                               
      +                                         uint8 coulmns , uint8 data);ECU_Layer/Ch_LCD/ecu_ch_lcd.c: 136: {;ECU_Lay
      +                          er/Ch_LCD/ecu_ch_lcd.c: 137:      Std_ReturnType ret = (Std_ReturnType)0x01 ;
  6943   003B60  0E00               	movlw	0
  6944   003B62  0101               	movlb	1	; () banked
  6945   003B64  6F11               	movwf	(lcd_send_ATpos_char_data@ret+1)& (0+255),b
  6946   003B66  0E01               	movlw	1
  6947   003B68  6F10               	movwf	lcd_send_ATpos_char_data@ret& (0+255),b
  6948   003B6A                     
  6949                           ; BSR set to: 1
  6950                           ;ECU_Layer/Ch_LCD/ecu_ch_lcd.c: 138:     if(((void*)0) == _LCD_)
  6951   003B6A  510B               	movf	lcd_send_ATpos_char_data@_LCD_& (0+255),w,b
  6952   003B6C  110C               	iorwf	(lcd_send_ATpos_char_data@_LCD_+1)& (0+255),w,b
  6953   003B6E  A4D8               	btfss	status,2,c
  6954   003B70  EFBC  F01D         	goto	u7861
  6955   003B74  EFBE  F01D         	goto	u7860
  6956   003B78                     u7861:
  6957   003B78  EFC4  F01D         	goto	l9437
  6958   003B7C                     u7860:
  6959   003B7C                     
  6960                           ; BSR set to: 1
  6961                           ;ECU_Layer/Ch_LCD/ecu_ch_lcd.c: 139:     {;ECU_Layer/Ch_LCD/ecu_ch_lcd.c: 140:         r
      +                          et = (Std_ReturnType)0x00;
  6962   003B7C  0E00               	movlw	0
  6963   003B7E  6F11               	movwf	(lcd_send_ATpos_char_data@ret+1)& (0+255),b
  6964   003B80  0E00               	movlw	0
  6965   003B82  6F10               	movwf	lcd_send_ATpos_char_data@ret& (0+255),b
  6966                           
  6967                           ;ECU_Layer/Ch_LCD/ecu_ch_lcd.c: 141:     }
  6968   003B84  EFD6  F01D         	goto	l9439
  6969   003B88                     l9437:
  6970                           
  6971                           ; BSR set to: 1
  6972                           ;ECU_Layer/Ch_LCD/ecu_ch_lcd.c: 143:     {;ECU_Layer/Ch_LCD/ecu_ch_lcd.c: 144:         l
      +                          cd_set_cursor(_LCD_ , row ,coulmns);
  6973   003B88  C10B  F105         	movff	lcd_send_ATpos_char_data@_LCD_,lcd_set_cursor@_LCD_
  6974   003B8C  C10C  F106         	movff	lcd_send_ATpos_char_data@_LCD_+1,lcd_set_cursor@_LCD_+1
  6975   003B90  C10D  F107         	movff	lcd_send_ATpos_char_data@row,lcd_set_cursor@row
  6976   003B94  C10E  F108         	movff	lcd_send_ATpos_char_data@coulmns,lcd_set_cursor@coulmn
  6977   003B98  EC55  F019         	call	_lcd_set_cursor	;wreg free
  6978                           
  6979                           ;ECU_Layer/Ch_LCD/ecu_ch_lcd.c: 145:         lcd_send_char_data(_LCD_ ,data);
  6980   003B9C  C10B  F100         	movff	lcd_send_ATpos_char_data@_LCD_,lcd_send_char_data@_LCD_
  6981   003BA0  C10C  F101         	movff	lcd_send_ATpos_char_data@_LCD_+1,lcd_send_char_data@_LCD_+1
  6982   003BA4  C10F  F102         	movff	lcd_send_ATpos_char_data@data,lcd_send_char_data@data
  6983   003BA8  EC11  F01B         	call	_lcd_send_char_data	;wreg free
  6984   003BAC                     l9439:
  6985                           
  6986                           ;ECU_Layer/Ch_LCD/ecu_ch_lcd.c: 147:     return ret;
  6987   003BAC  C110  F10B         	movff	lcd_send_ATpos_char_data@ret,?_lcd_send_ATpos_char_data
  6988   003BB0  C111  F10C         	movff	lcd_send_ATpos_char_data@ret+1,?_lcd_send_ATpos_char_data+1
  6989   003BB4  0012               	return		;funcret
  6990   003BB6                     __end_of_lcd_send_ATpos_char_data:
  6991                           	callstack 0
  6992                           
  6993 ;; *************** function _lcd_set_cursor *****************
  6994 ;; Defined at:
  6995 ;;		line 292 in file "ECU_Layer/Ch_LCD/ecu_ch_lcd.c"
  6996 ;; Parameters:    Size  Location     Type
  6997 ;;  _LCD_           2    5[BANK1 ] PTR const struct .
  6998 ;;		 -> lcd1(6), 
  6999 ;;  row             1    7[BANK1 ] unsigned char 
  7000 ;;  coulmn          1    8[BANK1 ] unsigned char 
  7001 ;; Auto vars:     Size  Location     Type
  7002 ;;		None
  7003 ;; Return value:  Size  Location     Type
  7004 ;;                  1    wreg      void 
  7005 ;; Registers used:
  7006 ;;		wreg, fsr2l, fsr2h, status,2, status,0, prodl, prodh, cstack
  7007 ;; Tracked objects:
  7008 ;;		On entry : 0/0
  7009 ;;		On exit  : 0/0
  7010 ;;		Unchanged: 0/0
  7011 ;; Data sizes:     COMRAM   BANK0   BANK1   BANK2   BANK3   BANK4   BANK5   BANK6   BANK7   BANK8   BANK9  BANK10  BANK1
      +1  BANK12  BANK13  BANK14  BANK15
  7012 ;;      Params:         0       0       4       0       0       0       0       0       0       0       0       0       
      +0       0       0       0       0
  7013 ;;      Locals:         0       0       0       0       0       0       0       0       0       0       0       0       
      +0       0       0       0       0
  7014 ;;      Temps:          0       0       2       0       0       0       0       0       0       0       0       0       
      +0       0       0       0       0
  7015 ;;      Totals:         0       0       6       0       0       0       0       0       0       0       0       0       
      +0       0       0       0       0
  7016 ;;Total ram usage:        6 bytes
  7017 ;; Hardware stack levels used: 1
  7018 ;; Hardware stack levels required when called: 11
  7019 ;; This function calls:
  7020 ;;		_lcd_send_command
  7021 ;; This function is called by:
  7022 ;;		_lcd_send_ATpos_char_data
  7023 ;;		_lcd_send_ATpos_string_data
  7024 ;; This function uses a non-reentrant model
  7025 ;;
  7026                           
  7027                           	psect	text4
  7028   0032AA                     __ptext4:
  7029                           	callstack 0
  7030   0032AA                     _lcd_set_cursor:
  7031                           	callstack 18
  7032   0032AA                     
  7033                           ;ECU_Layer/Ch_LCD/ecu_ch_lcd.c: 292: static void lcd_set_cursor(const Ch_LCD *_LCD_ ,uin
      +                          t8 row ,uint8 coulmn);ECU_Layer/Ch_LCD/ecu_ch_lcd.c: 293: {;ECU_Layer/Ch_LCD/ecu_ch_lcd.
      +                          c: 294:     coulmn--;
  7034   0032AA  0101               	movlb	1	; () banked
  7035   0032AC  0708               	decf	lcd_set_cursor@coulmn& (0+255),f,b
  7036                           
  7037                           ;ECU_Layer/Ch_LCD/ecu_ch_lcd.c: 295:     switch(row)
  7038   0032AE  EF85  F019         	goto	l9309
  7039   0032B2                     l9301:
  7040                           
  7041                           ; BSR set to: 1
  7042                           ;ECU_Layer/Ch_LCD/ecu_ch_lcd.c: 298:             lcd_send_command(_LCD_ ,(0x80 +coulmn))
      +                          ;
  7043   0032B2  C105  F100         	movff	lcd_set_cursor@_LCD_,lcd_send_command@_LCD_
  7044   0032B6  C106  F101         	movff	lcd_set_cursor@_LCD_+1,lcd_send_command@_LCD_+1
  7045   0032BA  5108               	movf	lcd_set_cursor@coulmn& (0+255),w,b
  7046   0032BC  0F80               	addlw	128
  7047   0032BE  6F02               	movwf	lcd_send_command@command& (0+255),b
  7048   0032C0  EC52  F01B         	call	_lcd_send_command	;wreg free
  7049                           
  7050                           ;ECU_Layer/Ch_LCD/ecu_ch_lcd.c: 299:             break;
  7051   0032C4  EFA2  F019         	goto	l136
  7052   0032C8                     l9303:
  7053                           
  7054                           ; BSR set to: 1
  7055                           ;ECU_Layer/Ch_LCD/ecu_ch_lcd.c: 301:             lcd_send_command(_LCD_ ,(0xc0 +coulmn))
      +                          ;
  7056   0032C8  C105  F100         	movff	lcd_set_cursor@_LCD_,lcd_send_command@_LCD_
  7057   0032CC  C106  F101         	movff	lcd_set_cursor@_LCD_+1,lcd_send_command@_LCD_+1
  7058   0032D0  5108               	movf	lcd_set_cursor@coulmn& (0+255),w,b
  7059   0032D2  0FC0               	addlw	192
  7060   0032D4  6F02               	movwf	lcd_send_command@command& (0+255),b
  7061   0032D6  EC52  F01B         	call	_lcd_send_command	;wreg free
  7062                           
  7063                           ;ECU_Layer/Ch_LCD/ecu_ch_lcd.c: 302:             break;
  7064   0032DA  EFA2  F019         	goto	l136
  7065   0032DE                     l9305:
  7066                           
  7067                           ; BSR set to: 1
  7068                           ;ECU_Layer/Ch_LCD/ecu_ch_lcd.c: 304:             lcd_send_command(_LCD_ ,(0x94 +coulmn))
      +                          ;
  7069   0032DE  C105  F100         	movff	lcd_set_cursor@_LCD_,lcd_send_command@_LCD_
  7070   0032E2  C106  F101         	movff	lcd_set_cursor@_LCD_+1,lcd_send_command@_LCD_+1
  7071   0032E6  5108               	movf	lcd_set_cursor@coulmn& (0+255),w,b
  7072   0032E8  0F94               	addlw	148
  7073   0032EA  6F02               	movwf	lcd_send_command@command& (0+255),b
  7074   0032EC  EC52  F01B         	call	_lcd_send_command	;wreg free
  7075                           
  7076                           ;ECU_Layer/Ch_LCD/ecu_ch_lcd.c: 305:             break;
  7077   0032F0  EFA2  F019         	goto	l136
  7078   0032F4                     l9307:
  7079                           
  7080                           ; BSR set to: 1
  7081                           ;ECU_Layer/Ch_LCD/ecu_ch_lcd.c: 307:             lcd_send_command(_LCD_ ,(0xd4 +coulmn))
      +                          ;
  7082   0032F4  C105  F100         	movff	lcd_set_cursor@_LCD_,lcd_send_command@_LCD_
  7083   0032F8  C106  F101         	movff	lcd_set_cursor@_LCD_+1,lcd_send_command@_LCD_+1
  7084   0032FC  5108               	movf	lcd_set_cursor@coulmn& (0+255),w,b
  7085   0032FE  0FD4               	addlw	212
  7086   003300  6F02               	movwf	lcd_send_command@command& (0+255),b
  7087   003302  EC52  F01B         	call	_lcd_send_command	;wreg free
  7088                           
  7089                           ;ECU_Layer/Ch_LCD/ecu_ch_lcd.c: 308:             break;
  7090   003306  EFA2  F019         	goto	l136
  7091   00330A                     l9309:
  7092                           
  7093                           ; BSR set to: 1
  7094   00330A  5107               	movf	lcd_set_cursor@row& (0+255),w,b
  7095   00330C  6F09               	movwf	??_lcd_set_cursor& (0+255),b
  7096   00330E  6B0A               	clrf	(??_lcd_set_cursor+1)& (0+255),b
  7097                           
  7098                           ; Switch on 2 bytes has been partitioned into a top level switch of size 1, and 1 sub-sw
      +                          itches
  7099                           ; Switch size 1, requested type "simple"
  7100                           ; Number of cases is 1, Range of values is 0 to 0
  7101                           ; switch strategies available:
  7102                           ; Name         Instructions Cycles
  7103                           ; simple_byte            4     3 (average)
  7104                           ;	Chosen strategy is simple_byte
  7105   003310  510A               	movf	(??_lcd_set_cursor+1)& (0+255),w,b
  7106   003312  0A00               	xorlw	0	; case 0
  7107   003314  B4D8               	btfsc	status,2,c
  7108   003316  EF8F  F019         	goto	l11431
  7109   00331A  EFA2  F019         	goto	l136
  7110   00331E                     l11431:
  7111                           
  7112                           ; BSR set to: 1
  7113                           ; Switch size 1, requested type "simple"
  7114                           ; Number of cases is 4, Range of values is 1 to 4
  7115                           ; switch strategies available:
  7116                           ; Name         Instructions Cycles
  7117                           ; simple_byte           13     7 (average)
  7118                           ;	Chosen strategy is simple_byte
  7119   00331E  5109               	movf	??_lcd_set_cursor& (0+255),w,b
  7120   003320  0A01               	xorlw	1	; case 1
  7121   003322  B4D8               	btfsc	status,2,c
  7122   003324  EF59  F019         	goto	l9301
  7123   003328  0A03               	xorlw	3	; case 2
  7124   00332A  B4D8               	btfsc	status,2,c
  7125   00332C  EF64  F019         	goto	l9303
  7126   003330  0A01               	xorlw	1	; case 3
  7127   003332  B4D8               	btfsc	status,2,c
  7128   003334  EF6F  F019         	goto	l9305
  7129   003338  0A07               	xorlw	7	; case 4
  7130   00333A  B4D8               	btfsc	status,2,c
  7131   00333C  EF7A  F019         	goto	l9307
  7132   003340  EFA2  F019         	goto	l136
  7133   003344                     l136:
  7134   003344  0012               	return		;funcret
  7135   003346                     __end_of_lcd_set_cursor:
  7136                           	callstack 0
  7137                           
  7138 ;; *************** function _lcd_send_char_data *****************
  7139 ;; Defined at:
  7140 ;;		line 106 in file "ECU_Layer/Ch_LCD/ecu_ch_lcd.c"
  7141 ;; Parameters:    Size  Location     Type
  7142 ;;  _LCD_           2    0[BANK1 ] PTR const struct .
  7143 ;;		 -> lcd1(6), 
  7144 ;;  data            1    2[BANK1 ] unsigned char 
  7145 ;; Auto vars:     Size  Location     Type
  7146 ;;  ret             2    3[BANK1 ] unsigned int 
  7147 ;; Return value:  Size  Location     Type
  7148 ;;                  2    0[BANK1 ] unsigned int 
  7149 ;; Registers used:
  7150 ;;		wreg, fsr2l, fsr2h, status,2, status,0, prodl, prodh, cstack
  7151 ;; Tracked objects:
  7152 ;;		On entry : 0/0
  7153 ;;		On exit  : 0/0
  7154 ;;		Unchanged: 0/0
  7155 ;; Data sizes:     COMRAM   BANK0   BANK1   BANK2   BANK3   BANK4   BANK5   BANK6   BANK7   BANK8   BANK9  BANK10  BANK1
      +1  BANK12  BANK13  BANK14  BANK15
  7156 ;;      Params:         0       0       3       0       0       0       0       0       0       0       0       0       
      +0       0       0       0       0
  7157 ;;      Locals:         0       0       2       0       0       0       0       0       0       0       0       0       
      +0       0       0       0       0
  7158 ;;      Temps:          0       0       0       0       0       0       0       0       0       0       0       0       
      +0       0       0       0       0
  7159 ;;      Totals:         0       0       5       0       0       0       0       0       0       0       0       0       
      +0       0       0       0       0
  7160 ;;Total ram usage:        5 bytes
  7161 ;; Hardware stack levels used: 1
  7162 ;; Hardware stack levels required when called: 10
  7163 ;; This function calls:
  7164 ;;		_GPIO_Pin_Write_Logic
  7165 ;;		_lcd_send_4_bit_data
  7166 ;;		_lcd_send_enable
  7167 ;; This function is called by:
  7168 ;;		_lcd_send_ATpos_char_data
  7169 ;;		_lcd_send_string_data
  7170 ;;		_lcd_send_custom_char
  7171 ;; This function uses a non-reentrant model
  7172 ;;
  7173                           
  7174                           	psect	text5
  7175   003622                     __ptext5:
  7176                           	callstack 0
  7177   003622                     _lcd_send_char_data:
  7178                           	callstack 18
  7179   003622                     
  7180                           ;ECU_Layer/Ch_LCD/ecu_ch_lcd.c: 109:     if(((void*)0) == _LCD_)
  7181   003622  0101               	movlb	1	; () banked
  7182   003624  5100               	movf	lcd_send_char_data@_LCD_& (0+255),w,b
  7183   003626  1101               	iorwf	(lcd_send_char_data@_LCD_+1)& (0+255),w,b
  7184   003628  A4D8               	btfss	status,2,c
  7185   00362A  EF19  F01B         	goto	u7521
  7186   00362E  EF1B  F01B         	goto	u7520
  7187   003632                     u7521:
  7188   003632  EF21  F01B         	goto	l9183
  7189   003636                     u7520:
  7190   003636                     
  7191                           ; BSR set to: 1
  7192                           ;ECU_Layer/Ch_LCD/ecu_ch_lcd.c: 110:     {;ECU_Layer/Ch_LCD/ecu_ch_lcd.c: 111:         r
      +                          et = (Std_ReturnType)0x00;
  7193   003636  0E00               	movlw	0
  7194   003638  6F04               	movwf	(lcd_send_char_data@ret+1)& (0+255),b
  7195   00363A  0E00               	movlw	0
  7196   00363C  6F03               	movwf	lcd_send_char_data@ret& (0+255),b
  7197                           
  7198                           ;ECU_Layer/Ch_LCD/ecu_ch_lcd.c: 112:     }
  7199   00363E  EF4D  F01B         	goto	l9185
  7200   003642                     l9183:
  7201                           
  7202                           ; BSR set to: 1
  7203                           ;ECU_Layer/Ch_LCD/ecu_ch_lcd.c: 114:     {;ECU_Layer/Ch_LCD/ecu_ch_lcd.c: 115:         r
      +                          et = GPIO_Pin_Write_Logic(&(_LCD_->RS) ,Logic_High);
  7204   003642  C100  F0EB         	movff	lcd_send_char_data@_LCD_,GPIO_Pin_Write_Logic@_Pin_Config_
  7205   003646  C101  F0EC         	movff	lcd_send_char_data@_LCD_+1,GPIO_Pin_Write_Logic@_Pin_Config_+1
  7206   00364A  0E01               	movlw	1
  7207   00364C  0100               	movlb	0	; () banked
  7208   00364E  6FED               	movwf	GPIO_Pin_Write_Logic@Logic& (0+255),b
  7209   003650  ECA2  F015         	call	_GPIO_Pin_Write_Logic	;wreg free
  7210   003654  C0EB  F103         	movff	?_GPIO_Pin_Write_Logic,lcd_send_char_data@ret
  7211   003658  C0EC  F104         	movff	?_GPIO_Pin_Write_Logic+1,lcd_send_char_data@ret+1
  7212                           
  7213                           ;ECU_Layer/Ch_LCD/ecu_ch_lcd.c: 117:         lcd_send_4_bit_data(_LCD_ ,(data >> 4));
  7214   00365C  C100  F0F6         	movff	lcd_send_char_data@_LCD_,lcd_send_4_bit_data@_LCD_
  7215   003660  C101  F0F7         	movff	lcd_send_char_data@_LCD_+1,lcd_send_4_bit_data@_LCD_+1
  7216   003664  0101               	movlb	1	; () banked
  7217   003666  3902               	swapf	lcd_send_char_data@data& (0+255),w,b
  7218   003668  0B0F               	andlw	15
  7219   00366A  0100               	movlb	0	; () banked
  7220   00366C  6FF8               	movwf	lcd_send_4_bit_data@_data_command& (0+255),b
  7221   00366E  EC55  F01D         	call	_lcd_send_4_bit_data	;wreg free
  7222                           
  7223                           ;ECU_Layer/Ch_LCD/ecu_ch_lcd.c: 118:         lcd_send_enable(_LCD_);
  7224   003672  C100  F0F6         	movff	lcd_send_char_data@_LCD_,lcd_send_enable@_LCD_
  7225   003676  C101  F0F7         	movff	lcd_send_char_data@_LCD_+1,lcd_send_enable@_LCD_+1
  7226   00367A  ECC8  F01E         	call	_lcd_send_enable	;wreg free
  7227                           
  7228                           ;ECU_Layer/Ch_LCD/ecu_ch_lcd.c: 119:         lcd_send_4_bit_data(_LCD_ ,data);
  7229   00367E  C100  F0F6         	movff	lcd_send_char_data@_LCD_,lcd_send_4_bit_data@_LCD_
  7230   003682  C101  F0F7         	movff	lcd_send_char_data@_LCD_+1,lcd_send_4_bit_data@_LCD_+1
  7231   003686  C102  F0F8         	movff	lcd_send_char_data@data,lcd_send_4_bit_data@_data_command
  7232   00368A  EC55  F01D         	call	_lcd_send_4_bit_data	;wreg free
  7233                           
  7234                           ;ECU_Layer/Ch_LCD/ecu_ch_lcd.c: 120:         lcd_send_enable(_LCD_);
  7235   00368E  C100  F0F6         	movff	lcd_send_char_data@_LCD_,lcd_send_enable@_LCD_
  7236   003692  C101  F0F7         	movff	lcd_send_char_data@_LCD_+1,lcd_send_enable@_LCD_+1
  7237   003696  ECC8  F01E         	call	_lcd_send_enable	;wreg free
  7238   00369A                     l9185:
  7239                           
  7240                           ;ECU_Layer/Ch_LCD/ecu_ch_lcd.c: 131:     return ret;
  7241   00369A  C103  F100         	movff	lcd_send_char_data@ret,?_lcd_send_char_data
  7242   00369E  C104  F101         	movff	lcd_send_char_data@ret+1,?_lcd_send_char_data+1
  7243   0036A2  0012               	return		;funcret
  7244   0036A4                     __end_of_lcd_send_char_data:
  7245                           	callstack 0
  7246                           
  7247 ;; *************** function _intialization *****************
  7248 ;; Defined at:
  7249 ;;		line 493 in file "Application.c"
  7250 ;; Parameters:    Size  Location     Type
  7251 ;;		None
  7252 ;; Auto vars:     Size  Location     Type
  7253 ;;		None
  7254 ;; Return value:  Size  Location     Type
  7255 ;;                  1    wreg      void 
  7256 ;; Registers used:
  7257 ;;		wreg, fsr2l, fsr2h, status,2, status,0, prodl, prodh, cstack
  7258 ;; Tracked objects:
  7259 ;;		On entry : 0/0
  7260 ;;		On exit  : 0/0
  7261 ;;		Unchanged: 0/0
  7262 ;; Data sizes:     COMRAM   BANK0   BANK1   BANK2   BANK3   BANK4   BANK5   BANK6   BANK7   BANK8   BANK9  BANK10  BANK1
      +1  BANK12  BANK13  BANK14  BANK15
  7263 ;;      Params:         0       0       0       0       0       0       0       0       0       0       0       0       
      +0       0       0       0       0
  7264 ;;      Locals:         0       0       0       0       0       0       0       0       0       0       0       0       
      +0       0       0       0       0
  7265 ;;      Temps:          0       0       0       0       0       0       0       0       0       0       0       0       
      +0       0       0       0       0
  7266 ;;      Totals:         0       0       0       0       0       0       0       0       0       0       0       0       
      +0       0       0       0       0
  7267 ;;Total ram usage:        0 bytes
  7268 ;; Hardware stack levels used: 1
  7269 ;; Hardware stack levels required when called: 13
  7270 ;; This function calls:
  7271 ;;		_SPI_Init
  7272 ;;		_ecu_intialize
  7273 ;; This function is called by:
  7274 ;;		_main
  7275 ;; This function uses a non-reentrant model
  7276 ;;
  7277                           
  7278                           	psect	text6
  7279   003DF4                     __ptext6:
  7280                           	callstack 0
  7281   003DF4                     _intialization:
  7282                           	callstack 17
  7283   003DF4                     
  7284                           ;Application.c: 495:     ecu_intialize( );
  7285   003DF4  EC2F  F01E         	call	_ecu_intialize	;wreg free
  7286                           
  7287                           ;Application.c: 496:     ret = SPI_Init(&spi_master);
  7288   003DF8  0EB2               	movlw	low _spi_master
  7289   003DFA  0100               	movlb	0	; () banked
  7290   003DFC  6FFC               	movwf	SPI_Init@_SPI_& (0+255),b
  7291   003DFE  0E00               	movlw	high _spi_master
  7292   003E00  6FFD               	movwf	(SPI_Init@_SPI_+1)& (0+255),b
  7293   003E02  ECFA  F014         	call	_SPI_Init	;wreg free
  7294   003E06  C0FC  F0FE         	movff	?_SPI_Init,_ret
  7295   003E0A  C0FD  F0FF         	movff	?_SPI_Init+1,_ret+1
  7296   003E0E  0012               	return		;funcret
  7297   003E10                     __end_of_intialization:
  7298                           	callstack 0
  7299                           
  7300 ;; *************** function _ecu_intialize *****************
  7301 ;; Defined at:
  7302 ;;		line 109 in file "ECU_Layer/ecu_intialize.c"
  7303 ;; Parameters:    Size  Location     Type
  7304 ;;		None
  7305 ;; Auto vars:     Size  Location     Type
  7306 ;;  ret             2    0        unsigned int 
  7307 ;; Return value:  Size  Location     Type
  7308 ;;                  2  280[None  ] unsigned int 
  7309 ;; Registers used:
  7310 ;;		wreg, fsr2l, fsr2h, status,2, status,0, prodl, prodh, cstack
  7311 ;; Tracked objects:
  7312 ;;		On entry : 0/0
  7313 ;;		On exit  : 0/0
  7314 ;;		Unchanged: 0/0
  7315 ;; Data sizes:     COMRAM   BANK0   BANK1   BANK2   BANK3   BANK4   BANK5   BANK6   BANK7   BANK8   BANK9  BANK10  BANK1
      +1  BANK12  BANK13  BANK14  BANK15
  7316 ;;      Params:         0       0       0       0       0       0       0       0       0       0       0       0       
      +0       0       0       0       0
  7317 ;;      Locals:         0       0       0       0       0       0       0       0       0       0       0       0       
      +0       0       0       0       0
  7318 ;;      Temps:          0       0       0       0       0       0       0       0       0       0       0       0       
      +0       0       0       0       0
  7319 ;;      Totals:         0       0       0       0       0       0       0       0       0       0       0       0       
      +0       0       0       0       0
  7320 ;;Total ram usage:        0 bytes
  7321 ;; Hardware stack levels used: 1
  7322 ;; Hardware stack levels required when called: 12
  7323 ;; This function calls:
  7324 ;;		_Key_Pad_Intialize
  7325 ;;		_Led_Intialize
  7326 ;;		_lcd_intialize
  7327 ;; This function is called by:
  7328 ;;		_intialization
  7329 ;; This function uses a non-reentrant model
  7330 ;;
  7331                           
  7332                           	psect	text7
  7333   003C5E                     __ptext7:
  7334                           	callstack 0
  7335   003C5E                     _ecu_intialize:
  7336                           	callstack 17
  7337   003C5E  0E64               	movlw	low _led_Block
  7338   003C60  0100               	movlb	0	; () banked
  7339   003C62  6FFA               	movwf	Led_Intialize@Led& (0+255),b
  7340   003C64  0E00               	movlw	high _led_Block
  7341   003C66  6FFB               	movwf	(Led_Intialize@Led+1)& (0+255),b
  7342   003C68  EC01  F019         	call	_Led_Intialize	;wreg free
  7343   003C6C  0E63               	movlw	low _led_Guest
  7344   003C6E  0100               	movlb	0	; () banked
  7345   003C70  6FFA               	movwf	Led_Intialize@Led& (0+255),b
  7346   003C72  0E00               	movlw	high _led_Guest
  7347   003C74  6FFB               	movwf	(Led_Intialize@Led+1)& (0+255),b
  7348   003C76  EC01  F019         	call	_Led_Intialize	;wreg free
  7349   003C7A  0E51               	movlw	low _led_Admin
  7350   003C7C  0100               	movlb	0	; () banked
  7351   003C7E  6FFA               	movwf	Led_Intialize@Led& (0+255),b
  7352   003C80  0E00               	movlw	high _led_Admin
  7353   003C82  6FFB               	movwf	(Led_Intialize@Led+1)& (0+255),b
  7354   003C84  EC01  F019         	call	_Led_Intialize	;wreg free
  7355   003C88  0E5D               	movlw	low _lcd1
  7356   003C8A  0101               	movlb	1	; () banked
  7357   003C8C  6F05               	movwf	lcd_intialize@_LCD_& (0+255),b
  7358   003C8E  0E00               	movlw	high _lcd1
  7359   003C90  6F06               	movwf	(lcd_intialize@_LCD_+1)& (0+255),b
  7360   003C92  EC9C  F013         	call	_lcd_intialize	;wreg free
  7361   003C96  0EA4               	movlw	low _key_pad1
  7362   003C98  0100               	movlb	0	; () banked
  7363   003C9A  6FFA               	movwf	Key_Pad_Intialize@_key_pad& (0+255),b
  7364   003C9C  0E00               	movlw	high _key_pad1
  7365   003C9E  6FFB               	movwf	(Key_Pad_Intialize@_key_pad+1)& (0+255),b
  7366   003CA0  ECF0  F019         	call	_Key_Pad_Intialize	;wreg free
  7367   003CA4  0012               	return		;funcret
  7368   003CA6                     __end_of_ecu_intialize:
  7369                           	callstack 0
  7370                           
  7371 ;; *************** function _lcd_intialize *****************
  7372 ;; Defined at:
  7373 ;;		line 21 in file "ECU_Layer/Ch_LCD/ecu_ch_lcd.c"
  7374 ;; Parameters:    Size  Location     Type
  7375 ;;  _LCD_           2    5[BANK1 ] PTR const struct .
  7376 ;;		 -> lcd1(6), 
  7377 ;; Auto vars:     Size  Location     Type
  7378 ;;  data_pin_cou    1   11[BANK1 ] unsigned char 
  7379 ;;  ret             2    9[BANK1 ] unsigned int 
  7380 ;; Return value:  Size  Location     Type
  7381 ;;                  2    5[BANK1 ] unsigned int 
  7382 ;; Registers used:
  7383 ;;		wreg, fsr2l, fsr2h, status,2, status,0, prodl, prodh, cstack
  7384 ;; Tracked objects:
  7385 ;;		On entry : 0/0
  7386 ;;		On exit  : 0/0
  7387 ;;		Unchanged: 0/0
  7388 ;; Data sizes:     COMRAM   BANK0   BANK1   BANK2   BANK3   BANK4   BANK5   BANK6   BANK7   BANK8   BANK9  BANK10  BANK1
      +1  BANK12  BANK13  BANK14  BANK15
  7389 ;;      Params:         0       0       2       0       0       0       0       0       0       0       0       0       
      +0       0       0       0       0
  7390 ;;      Locals:         0       0       3       0       0       0       0       0       0       0       0       0       
      +0       0       0       0       0
  7391 ;;      Temps:          0       0       2       0       0       0       0       0       0       0       0       0       
      +0       0       0       0       0
  7392 ;;      Totals:         0       0       7       0       0       0       0       0       0       0       0       0       
      +0       0       0       0       0
  7393 ;;Total ram usage:        7 bytes
  7394 ;; Hardware stack levels used: 1
  7395 ;; Hardware stack levels required when called: 11
  7396 ;; This function calls:
  7397 ;;		_GPIO_Pin_Intialize
  7398 ;;		_lcd_send_command
  7399 ;; This function is called by:
  7400 ;;		_ecu_intialize
  7401 ;; This function uses a non-reentrant model
  7402 ;;
  7403                           
  7404                           	psect	text8
  7405   002738                     __ptext8:
  7406                           	callstack 0
  7407   002738                     _lcd_intialize:
  7408                           	callstack 17
  7409   002738                     
  7410                           ;ECU_Layer/Ch_LCD/ecu_ch_lcd.c: 24:     if(((void*)0) == _LCD_)
  7411   002738  0101               	movlb	1	; () banked
  7412   00273A  5105               	movf	lcd_intialize@_LCD_& (0+255),w,b
  7413   00273C  1106               	iorwf	(lcd_intialize@_LCD_+1)& (0+255),w,b
  7414   00273E  A4D8               	btfss	status,2,c
  7415   002740  EFA4  F013         	goto	u7501
  7416   002744  EFA6  F013         	goto	u7500
  7417   002748                     u7501:
  7418   002748  EFAC  F013         	goto	l9135
  7419   00274C                     u7500:
  7420   00274C                     
  7421                           ; BSR set to: 1
  7422                           ;ECU_Layer/Ch_LCD/ecu_ch_lcd.c: 25:     {;ECU_Layer/Ch_LCD/ecu_ch_lcd.c: 26:         ret
      +                           = (Std_ReturnType)0x00;
  7423   00274C  0E00               	movlw	0
  7424   00274E  6F0A               	movwf	(lcd_intialize@ret+1)& (0+255),b
  7425   002750  0E00               	movlw	0
  7426   002752  6F09               	movwf	lcd_intialize@ret& (0+255),b
  7427                           
  7428                           ;ECU_Layer/Ch_LCD/ecu_ch_lcd.c: 27:     }
  7429   002754  EF49  F014         	goto	l9173
  7430   002758                     l9135:
  7431   002758                     
  7432                           ; BSR set to: 1
  7433   002758  0E01               	movlw	1
  7434   00275A  2505               	addwf	lcd_intialize@_LCD_& (0+255),w,b
  7435   00275C  0100               	movlb	0	; () banked
  7436   00275E  6FF6               	movwf	GPIO_Pin_Intialize@_Pin_Config_& (0+255),b
  7437   002760  0E00               	movlw	0
  7438   002762  0101               	movlb	1	; () banked
  7439   002764  2106               	addwfc	(lcd_intialize@_LCD_+1)& (0+255),w,b
  7440   002766  0100               	movlb	0	; () banked
  7441   002768  6FF7               	movwf	(GPIO_Pin_Intialize@_Pin_Config_+1)& (0+255),b
  7442   00276A  EC23  F01D         	call	_GPIO_Pin_Intialize	;wreg free
  7443   00276E  C105  F0F6         	movff	lcd_intialize@_LCD_,GPIO_Pin_Intialize@_Pin_Config_
  7444   002772  C106  F0F7         	movff	lcd_intialize@_LCD_+1,GPIO_Pin_Intialize@_Pin_Config_+1
  7445   002776  EC23  F01D         	call	_GPIO_Pin_Intialize	;wreg free
  7446                           
  7447                           ;ECU_Layer/Ch_LCD/ecu_ch_lcd.c: 35:         for(data_pin_counter = 0 ; data_pin_counter 
      +                          < (uint8)4 ; data_pin_counter++)
  7448   00277A  0E00               	movlw	0
  7449   00277C  0101               	movlb	1	; () banked
  7450   00277E  6F0B               	movwf	lcd_intialize@data_pin_counter& (0+255),b
  7451   002780                     l9145:
  7452                           
  7453                           ; BSR set to: 1
  7454                           ;ECU_Layer/Ch_LCD/ecu_ch_lcd.c: 36:         {;ECU_Layer/Ch_LCD/ecu_ch_lcd.c: 37:        
      +                               ret = GPIO_Pin_Intialize(&(_LCD_->data_pin[data_pin_counter]));
  7455   002780  510B               	movf	lcd_intialize@data_pin_counter& (0+255),w,b
  7456   002782  2505               	addwf	lcd_intialize@_LCD_& (0+255),w,b
  7457   002784  6F07               	movwf	??_lcd_intialize& (0+255),b
  7458   002786  0E00               	movlw	0
  7459   002788  2106               	addwfc	(lcd_intialize@_LCD_+1)& (0+255),w,b
  7460   00278A  6F08               	movwf	(??_lcd_intialize+1)& (0+255),b
  7461   00278C  0E02               	movlw	2
  7462   00278E  2507               	addwf	??_lcd_intialize& (0+255),w,b
  7463   002790  0100               	movlb	0	; () banked
  7464   002792  6FF6               	movwf	GPIO_Pin_Intialize@_Pin_Config_& (0+255),b
  7465   002794  0E00               	movlw	0
  7466   002796  0101               	movlb	1	; () banked
  7467   002798  2108               	addwfc	(??_lcd_intialize+1)& (0+255),w,b
  7468   00279A  0100               	movlb	0	; () banked
  7469   00279C  6FF7               	movwf	(GPIO_Pin_Intialize@_Pin_Config_+1)& (0+255),b
  7470   00279E  EC23  F01D         	call	_GPIO_Pin_Intialize	;wreg free
  7471   0027A2  C0F6  F109         	movff	?_GPIO_Pin_Intialize,lcd_intialize@ret
  7472   0027A6  C0F7  F10A         	movff	?_GPIO_Pin_Intialize+1,lcd_intialize@ret+1
  7473   0027AA                     
  7474                           ;ECU_Layer/Ch_LCD/ecu_ch_lcd.c: 38:         }
  7475   0027AA  0101               	movlb	1	; () banked
  7476   0027AC  2B0B               	incf	lcd_intialize@data_pin_counter& (0+255),f,b
  7477   0027AE                     
  7478                           ; BSR set to: 1
  7479   0027AE  0E03               	movlw	3
  7480   0027B0  650B               	cpfsgt	lcd_intialize@data_pin_counter& (0+255),b
  7481   0027B2  EFDD  F013         	goto	u7511
  7482   0027B6  EFDF  F013         	goto	u7510
  7483   0027BA                     u7511:
  7484   0027BA  EFC0  F013         	goto	l9145
  7485   0027BE                     u7510:
  7486   0027BE                     
  7487                           ; BSR set to: 1
  7488                           ;ECU_Layer/Ch_LCD/ecu_ch_lcd.c: 39:         _delay((unsigned long)((20)*(4000000UL/4000.
      +                          0)));
  7489   0027BE  0E1A               	movlw	26
  7490   0027C0  0101               	movlb	1	; () banked
  7491   0027C2  6F07               	movwf	??_lcd_intialize& (0+255),b
  7492   0027C4  0EF8               	movlw	248
  7493   0027C6                     u10107:
  7494   0027C6  2EE8               	decfsz	wreg,f,c
  7495   0027C8  D7FE               	bra	u10107
  7496   0027CA  2F07               	decfsz	??_lcd_intialize& (0+255),f,b
  7497   0027CC  D7FC               	bra	u10107
  7498   0027CE  F000               	nop	
  7499   0027D0                     
  7500                           ;ECU_Layer/Ch_LCD/ecu_ch_lcd.c: 40:         lcd_send_command(_LCD_ ,0x38);
  7501   0027D0  C105  F100         	movff	lcd_intialize@_LCD_,lcd_send_command@_LCD_
  7502   0027D4  C106  F101         	movff	lcd_intialize@_LCD_+1,lcd_send_command@_LCD_+1
  7503   0027D8  0E38               	movlw	56
  7504   0027DA  0101               	movlb	1	; () banked
  7505   0027DC  6F02               	movwf	lcd_send_command@command& (0+255),b
  7506   0027DE  EC52  F01B         	call	_lcd_send_command	;wreg free
  7507   0027E2                     
  7508                           ;ECU_Layer/Ch_LCD/ecu_ch_lcd.c: 41:         _delay((unsigned long)((5)*(4000000UL/4000.0
      +                          )));
  7509   0027E2  0E07               	movlw	7
  7510   0027E4  0101               	movlb	1	; () banked
  7511   0027E6  6F07               	movwf	??_lcd_intialize& (0+255),b
  7512   0027E8  0E7D               	movlw	125
  7513   0027EA                     u10117:
  7514   0027EA  2EE8               	decfsz	wreg,f,c
  7515   0027EC  D7FE               	bra	u10117
  7516   0027EE  2F07               	decfsz	??_lcd_intialize& (0+255),f,b
  7517   0027F0  D7FC               	bra	u10117
  7518                           
  7519                           ;ECU_Layer/Ch_LCD/ecu_ch_lcd.c: 42:         lcd_send_command(_LCD_ ,0x38);
  7520   0027F2  C105  F100         	movff	lcd_intialize@_LCD_,lcd_send_command@_LCD_
  7521   0027F6  C106  F101         	movff	lcd_intialize@_LCD_+1,lcd_send_command@_LCD_+1
  7522   0027FA  0E38               	movlw	56
  7523   0027FC  0101               	movlb	1	; () banked
  7524   0027FE  6F02               	movwf	lcd_send_command@command& (0+255),b
  7525   002800  EC52  F01B         	call	_lcd_send_command	;wreg free
  7526   002804                     
  7527                           ;ECU_Layer/Ch_LCD/ecu_ch_lcd.c: 43:         _delay((unsigned long)((150)*(4000000UL/4000
      +                          .0)));
  7528   002804  0EC3               	movlw	195
  7529   002806  0101               	movlb	1	; () banked
  7530   002808  6F07               	movwf	??_lcd_intialize& (0+255),b
  7531   00280A  0ECD               	movlw	205
  7532   00280C                     u10127:
  7533   00280C  2EE8               	decfsz	wreg,f,c
  7534   00280E  D7FE               	bra	u10127
  7535   002810  2F07               	decfsz	??_lcd_intialize& (0+255),f,b
  7536   002812  D7FC               	bra	u10127
  7537   002814                     
  7538                           ;ECU_Layer/Ch_LCD/ecu_ch_lcd.c: 44:         lcd_send_command(_LCD_ ,0x38);
  7539   002814  C105  F100         	movff	lcd_intialize@_LCD_,lcd_send_command@_LCD_
  7540   002818  C106  F101         	movff	lcd_intialize@_LCD_+1,lcd_send_command@_LCD_+1
  7541   00281C  0E38               	movlw	56
  7542   00281E  0101               	movlb	1	; () banked
  7543   002820  6F02               	movwf	lcd_send_command@command& (0+255),b
  7544   002822  EC52  F01B         	call	_lcd_send_command	;wreg free
  7545   002826                     
  7546                           ;ECU_Layer/Ch_LCD/ecu_ch_lcd.c: 46:         lcd_send_command(_LCD_ ,0x01);
  7547   002826  C105  F100         	movff	lcd_intialize@_LCD_,lcd_send_command@_LCD_
  7548   00282A  C106  F101         	movff	lcd_intialize@_LCD_+1,lcd_send_command@_LCD_+1
  7549   00282E  0E01               	movlw	1
  7550   002830  0101               	movlb	1	; () banked
  7551   002832  6F02               	movwf	lcd_send_command@command& (0+255),b
  7552   002834  EC52  F01B         	call	_lcd_send_command	;wreg free
  7553   002838                     
  7554                           ;ECU_Layer/Ch_LCD/ecu_ch_lcd.c: 47:         lcd_send_command(_LCD_ ,0x02);
  7555   002838  C105  F100         	movff	lcd_intialize@_LCD_,lcd_send_command@_LCD_
  7556   00283C  C106  F101         	movff	lcd_intialize@_LCD_+1,lcd_send_command@_LCD_+1
  7557   002840  0E02               	movlw	2
  7558   002842  0101               	movlb	1	; () banked
  7559   002844  6F02               	movwf	lcd_send_command@command& (0+255),b
  7560   002846  EC52  F01B         	call	_lcd_send_command	;wreg free
  7561   00284A                     
  7562                           ;ECU_Layer/Ch_LCD/ecu_ch_lcd.c: 48:         lcd_send_command(_LCD_ ,0x06);
  7563   00284A  C105  F100         	movff	lcd_intialize@_LCD_,lcd_send_command@_LCD_
  7564   00284E  C106  F101         	movff	lcd_intialize@_LCD_+1,lcd_send_command@_LCD_+1
  7565   002852  0E06               	movlw	6
  7566   002854  0101               	movlb	1	; () banked
  7567   002856  6F02               	movwf	lcd_send_command@command& (0+255),b
  7568   002858  EC52  F01B         	call	_lcd_send_command	;wreg free
  7569   00285C                     
  7570                           ;ECU_Layer/Ch_LCD/ecu_ch_lcd.c: 49:         lcd_send_command(_LCD_ ,0X0C);
  7571   00285C  C105  F100         	movff	lcd_intialize@_LCD_,lcd_send_command@_LCD_
  7572   002860  C106  F101         	movff	lcd_intialize@_LCD_+1,lcd_send_command@_LCD_+1
  7573   002864  0E0C               	movlw	12
  7574   002866  0101               	movlb	1	; () banked
  7575   002868  6F02               	movwf	lcd_send_command@command& (0+255),b
  7576   00286A  EC52  F01B         	call	_lcd_send_command	;wreg free
  7577   00286E                     
  7578                           ;ECU_Layer/Ch_LCD/ecu_ch_lcd.c: 50:         lcd_send_command(_LCD_ ,0x28);
  7579   00286E  C105  F100         	movff	lcd_intialize@_LCD_,lcd_send_command@_LCD_
  7580   002872  C106  F101         	movff	lcd_intialize@_LCD_+1,lcd_send_command@_LCD_+1
  7581   002876  0E28               	movlw	40
  7582   002878  0101               	movlb	1	; () banked
  7583   00287A  6F02               	movwf	lcd_send_command@command& (0+255),b
  7584   00287C  EC52  F01B         	call	_lcd_send_command	;wreg free
  7585   002880                     
  7586                           ;ECU_Layer/Ch_LCD/ecu_ch_lcd.c: 51:         lcd_send_command(_LCD_ ,0x80 );
  7587   002880  C105  F100         	movff	lcd_intialize@_LCD_,lcd_send_command@_LCD_
  7588   002884  C106  F101         	movff	lcd_intialize@_LCD_+1,lcd_send_command@_LCD_+1
  7589   002888  0E80               	movlw	128
  7590   00288A  0101               	movlb	1	; () banked
  7591   00288C  6F02               	movwf	lcd_send_command@command& (0+255),b
  7592   00288E  EC52  F01B         	call	_lcd_send_command	;wreg free
  7593   002892                     l9173:
  7594                           
  7595                           ;ECU_Layer/Ch_LCD/ecu_ch_lcd.c: 75:     return ret;
  7596   002892  C109  F105         	movff	lcd_intialize@ret,?_lcd_intialize
  7597   002896  C10A  F106         	movff	lcd_intialize@ret+1,?_lcd_intialize+1
  7598   00289A  0012               	return		;funcret
  7599   00289C                     __end_of_lcd_intialize:
  7600                           	callstack 0
  7601                           
  7602 ;; *************** function _lcd_send_command *****************
  7603 ;; Defined at:
  7604 ;;		line 78 in file "ECU_Layer/Ch_LCD/ecu_ch_lcd.c"
  7605 ;; Parameters:    Size  Location     Type
  7606 ;;  _LCD_           2    0[BANK1 ] PTR const struct .
  7607 ;;		 -> lcd1(6), 
  7608 ;;  command         1    2[BANK1 ] unsigned char 
  7609 ;; Auto vars:     Size  Location     Type
  7610 ;;  ret             2    3[BANK1 ] unsigned int 
  7611 ;; Return value:  Size  Location     Type
  7612 ;;                  2    0[BANK1 ] unsigned int 
  7613 ;; Registers used:
  7614 ;;		wreg, fsr2l, fsr2h, status,2, status,0, prodl, prodh, cstack
  7615 ;; Tracked objects:
  7616 ;;		On entry : 0/0
  7617 ;;		On exit  : 0/0
  7618 ;;		Unchanged: 0/0
  7619 ;; Data sizes:     COMRAM   BANK0   BANK1   BANK2   BANK3   BANK4   BANK5   BANK6   BANK7   BANK8   BANK9  BANK10  BANK1
      +1  BANK12  BANK13  BANK14  BANK15
  7620 ;;      Params:         0       0       3       0       0       0       0       0       0       0       0       0       
      +0       0       0       0       0
  7621 ;;      Locals:         0       0       2       0       0       0       0       0       0       0       0       0       
      +0       0       0       0       0
  7622 ;;      Temps:          0       0       0       0       0       0       0       0       0       0       0       0       
      +0       0       0       0       0
  7623 ;;      Totals:         0       0       5       0       0       0       0       0       0       0       0       0       
      +0       0       0       0       0
  7624 ;;Total ram usage:        5 bytes
  7625 ;; Hardware stack levels used: 1
  7626 ;; Hardware stack levels required when called: 10
  7627 ;; This function calls:
  7628 ;;		_GPIO_Pin_Write_Logic
  7629 ;;		_lcd_send_4_bit_data
  7630 ;;		_lcd_send_enable
  7631 ;; This function is called by:
  7632 ;;		_lcd_intialize
  7633 ;;		_lcd_set_cursor
  7634 ;;		_main
  7635 ;;		_lcd_send_custom_char
  7636 ;; This function uses a non-reentrant model
  7637 ;;
  7638                           
  7639                           	psect	text9
  7640   0036A4                     __ptext9:
  7641                           	callstack 0
  7642   0036A4                     _lcd_send_command:
  7643                           	callstack 20
  7644   0036A4                     
  7645                           ;ECU_Layer/Ch_LCD/ecu_ch_lcd.c: 81:     if(((void*)0) == _LCD_)
  7646   0036A4  0101               	movlb	1	; () banked
  7647   0036A6  5100               	movf	lcd_send_command@_LCD_& (0+255),w,b
  7648   0036A8  1101               	iorwf	(lcd_send_command@_LCD_+1)& (0+255),w,b
  7649   0036AA  A4D8               	btfss	status,2,c
  7650   0036AC  EF5A  F01B         	goto	u7461
  7651   0036B0  EF5C  F01B         	goto	u7460
  7652   0036B4                     u7461:
  7653   0036B4  EF62  F01B         	goto	l9093
  7654   0036B8                     u7460:
  7655   0036B8                     
  7656                           ; BSR set to: 1
  7657                           ;ECU_Layer/Ch_LCD/ecu_ch_lcd.c: 82:     {;ECU_Layer/Ch_LCD/ecu_ch_lcd.c: 83:         ret
      +                           = (Std_ReturnType)0x00;
  7658   0036B8  0E00               	movlw	0
  7659   0036BA  6F04               	movwf	(lcd_send_command@ret+1)& (0+255),b
  7660   0036BC  0E00               	movlw	0
  7661   0036BE  6F03               	movwf	lcd_send_command@ret& (0+255),b
  7662                           
  7663                           ;ECU_Layer/Ch_LCD/ecu_ch_lcd.c: 84:     }
  7664   0036C0  EF8E  F01B         	goto	l9095
  7665   0036C4                     l9093:
  7666                           
  7667                           ; BSR set to: 1
  7668                           ;ECU_Layer/Ch_LCD/ecu_ch_lcd.c: 86:     {;ECU_Layer/Ch_LCD/ecu_ch_lcd.c: 87:         ret
      +                           = GPIO_Pin_Write_Logic(&(_LCD_->RS) ,Logic_Low);
  7669   0036C4  C100  F0EB         	movff	lcd_send_command@_LCD_,GPIO_Pin_Write_Logic@_Pin_Config_
  7670   0036C8  C101  F0EC         	movff	lcd_send_command@_LCD_+1,GPIO_Pin_Write_Logic@_Pin_Config_+1
  7671   0036CC  0E00               	movlw	0
  7672   0036CE  0100               	movlb	0	; () banked
  7673   0036D0  6FED               	movwf	GPIO_Pin_Write_Logic@Logic& (0+255),b
  7674   0036D2  ECA2  F015         	call	_GPIO_Pin_Write_Logic	;wreg free
  7675   0036D6  C0EB  F103         	movff	?_GPIO_Pin_Write_Logic,lcd_send_command@ret
  7676   0036DA  C0EC  F104         	movff	?_GPIO_Pin_Write_Logic+1,lcd_send_command@ret+1
  7677                           
  7678                           ;ECU_Layer/Ch_LCD/ecu_ch_lcd.c: 89:         lcd_send_4_bit_data(_LCD_ ,command >> 4);
  7679   0036DE  C100  F0F6         	movff	lcd_send_command@_LCD_,lcd_send_4_bit_data@_LCD_
  7680   0036E2  C101  F0F7         	movff	lcd_send_command@_LCD_+1,lcd_send_4_bit_data@_LCD_+1
  7681   0036E6  0101               	movlb	1	; () banked
  7682   0036E8  3902               	swapf	lcd_send_command@command& (0+255),w,b
  7683   0036EA  0B0F               	andlw	15
  7684   0036EC  0100               	movlb	0	; () banked
  7685   0036EE  6FF8               	movwf	lcd_send_4_bit_data@_data_command& (0+255),b
  7686   0036F0  EC55  F01D         	call	_lcd_send_4_bit_data	;wreg free
  7687                           
  7688                           ;ECU_Layer/Ch_LCD/ecu_ch_lcd.c: 90:         lcd_send_enable(_LCD_);
  7689   0036F4  C100  F0F6         	movff	lcd_send_command@_LCD_,lcd_send_enable@_LCD_
  7690   0036F8  C101  F0F7         	movff	lcd_send_command@_LCD_+1,lcd_send_enable@_LCD_+1
  7691   0036FC  ECC8  F01E         	call	_lcd_send_enable	;wreg free
  7692                           
  7693                           ;ECU_Layer/Ch_LCD/ecu_ch_lcd.c: 91:         lcd_send_4_bit_data(_LCD_ ,command);
  7694   003700  C100  F0F6         	movff	lcd_send_command@_LCD_,lcd_send_4_bit_data@_LCD_
  7695   003704  C101  F0F7         	movff	lcd_send_command@_LCD_+1,lcd_send_4_bit_data@_LCD_+1
  7696   003708  C102  F0F8         	movff	lcd_send_command@command,lcd_send_4_bit_data@_data_command
  7697   00370C  EC55  F01D         	call	_lcd_send_4_bit_data	;wreg free
  7698                           
  7699                           ;ECU_Layer/Ch_LCD/ecu_ch_lcd.c: 92:         lcd_send_enable(_LCD_);
  7700   003710  C100  F0F6         	movff	lcd_send_command@_LCD_,lcd_send_enable@_LCD_
  7701   003714  C101  F0F7         	movff	lcd_send_command@_LCD_+1,lcd_send_enable@_LCD_+1
  7702   003718  ECC8  F01E         	call	_lcd_send_enable	;wreg free
  7703   00371C                     l9095:
  7704                           
  7705                           ;ECU_Layer/Ch_LCD/ecu_ch_lcd.c: 103:     return ret;
  7706   00371C  C103  F100         	movff	lcd_send_command@ret,?_lcd_send_command
  7707   003720  C104  F101         	movff	lcd_send_command@ret+1,?_lcd_send_command+1
  7708   003724  0012               	return		;funcret
  7709   003726                     __end_of_lcd_send_command:
  7710                           	callstack 0
  7711                           
  7712 ;; *************** function _lcd_send_enable *****************
  7713 ;; Defined at:
  7714 ;;		line 285 in file "ECU_Layer/Ch_LCD/ecu_ch_lcd.c"
  7715 ;; Parameters:    Size  Location     Type
  7716 ;;  _LCD_           2   11[BANK0 ] PTR const struct .
  7717 ;;		 -> lcd1(6), 
  7718 ;; Auto vars:     Size  Location     Type
  7719 ;;		None
  7720 ;; Return value:  Size  Location     Type
  7721 ;;                  1    wreg      void 
  7722 ;; Registers used:
  7723 ;;		wreg, fsr2l, fsr2h, status,2, status,0, prodl, prodh, cstack
  7724 ;; Tracked objects:
  7725 ;;		On entry : 0/0
  7726 ;;		On exit  : 0/0
  7727 ;;		Unchanged: 0/0
  7728 ;; Data sizes:     COMRAM   BANK0   BANK1   BANK2   BANK3   BANK4   BANK5   BANK6   BANK7   BANK8   BANK9  BANK10  BANK1
      +1  BANK12  BANK13  BANK14  BANK15
  7729 ;;      Params:         0       2       0       0       0       0       0       0       0       0       0       0       
      +0       0       0       0       0
  7730 ;;      Locals:         0       0       0       0       0       0       0       0       0       0       0       0       
      +0       0       0       0       0
  7731 ;;      Temps:          0       0       0       0       0       0       0       0       0       0       0       0       
      +0       0       0       0       0
  7732 ;;      Totals:         0       2       0       0       0       0       0       0       0       0       0       0       
      +0       0       0       0       0
  7733 ;;Total ram usage:        2 bytes
  7734 ;; Hardware stack levels used: 1
  7735 ;; Hardware stack levels required when called: 9
  7736 ;; This function calls:
  7737 ;;		_GPIO_Pin_Write_Logic
  7738 ;; This function is called by:
  7739 ;;		_lcd_send_command
  7740 ;;		_lcd_send_char_data
  7741 ;; This function uses a non-reentrant model
  7742 ;;
  7743                           
  7744                           	psect	text10
  7745   003D90                     __ptext10:
  7746                           	callstack 0
  7747   003D90                     _lcd_send_enable:
  7748                           	callstack 20
  7749   003D90                     
  7750                           ;ECU_Layer/Ch_LCD/ecu_ch_lcd.c: 285: static void lcd_send_enable(const Ch_LCD *_LCD_);EC
      +                          U_Layer/Ch_LCD/ecu_ch_lcd.c: 286: {;ECU_Layer/Ch_LCD/ecu_ch_lcd.c: 287:     GPIO_Pin_Wri
      +                          te_Logic(&(_LCD_->EN) ,Logic_High);
  7751   003D90  0E01               	movlw	1
  7752   003D92  0100               	movlb	0	; () banked
  7753   003D94  25F6               	addwf	lcd_send_enable@_LCD_& (0+255),w,b
  7754   003D96  6FEB               	movwf	GPIO_Pin_Write_Logic@_Pin_Config_& (0+255),b
  7755   003D98  0E00               	movlw	0
  7756   003D9A  21F7               	addwfc	(lcd_send_enable@_LCD_+1)& (0+255),w,b
  7757   003D9C  6FEC               	movwf	(GPIO_Pin_Write_Logic@_Pin_Config_+1)& (0+255),b
  7758   003D9E  0E01               	movlw	1
  7759   003DA0  6FED               	movwf	GPIO_Pin_Write_Logic@Logic& (0+255),b
  7760   003DA2  ECA2  F015         	call	_GPIO_Pin_Write_Logic	;wreg free
  7761   003DA6                     
  7762                           ;ECU_Layer/Ch_LCD/ecu_ch_lcd.c: 288:     _delay((unsigned long)((5)*(4000000UL/4000000.0
      +                          )));
  7763   003DA6  D000               	nop2		;2 cycle nop
  7764   003DA8  D000               	nop2		;2 cycle nop
  7765   003DAA  F000               	nop	
  7766                           
  7767                           ;ECU_Layer/Ch_LCD/ecu_ch_lcd.c: 289:     GPIO_Pin_Write_Logic(&(_LCD_->EN) ,Logic_Low);
  7768   003DAC  0E01               	movlw	1
  7769   003DAE  0100               	movlb	0	; () banked
  7770   003DB0  25F6               	addwf	lcd_send_enable@_LCD_& (0+255),w,b
  7771   003DB2  6FEB               	movwf	GPIO_Pin_Write_Logic@_Pin_Config_& (0+255),b
  7772   003DB4  0E00               	movlw	0
  7773   003DB6  21F7               	addwfc	(lcd_send_enable@_LCD_+1)& (0+255),w,b
  7774   003DB8  6FEC               	movwf	(GPIO_Pin_Write_Logic@_Pin_Config_+1)& (0+255),b
  7775   003DBA  0E00               	movlw	0
  7776   003DBC  6FED               	movwf	GPIO_Pin_Write_Logic@Logic& (0+255),b
  7777   003DBE  ECA2  F015         	call	_GPIO_Pin_Write_Logic	;wreg free
  7778   003DC2  0012               	return		;funcret
  7779   003DC4                     __end_of_lcd_send_enable:
  7780                           	callstack 0
  7781                           
  7782 ;; *************** function _lcd_send_4_bit_data *****************
  7783 ;; Defined at:
  7784 ;;		line 276 in file "ECU_Layer/Ch_LCD/ecu_ch_lcd.c"
  7785 ;; Parameters:    Size  Location     Type
  7786 ;;  _LCD_           2   11[BANK0 ] PTR const struct .
  7787 ;;		 -> lcd1(6), 
  7788 ;;  _data_comman    1   13[BANK0 ] unsigned char 
  7789 ;; Auto vars:     Size  Location     Type
  7790 ;;  pin_counter     1   18[BANK0 ] unsigned char 
  7791 ;; Return value:  Size  Location     Type
  7792 ;;                  1    wreg      void 
  7793 ;; Registers used:
  7794 ;;		wreg, fsr2l, fsr2h, status,2, status,0, prodl, prodh, cstack
  7795 ;; Tracked objects:
  7796 ;;		On entry : 0/0
  7797 ;;		On exit  : 0/0
  7798 ;;		Unchanged: 0/0
  7799 ;; Data sizes:     COMRAM   BANK0   BANK1   BANK2   BANK3   BANK4   BANK5   BANK6   BANK7   BANK8   BANK9  BANK10  BANK1
      +1  BANK12  BANK13  BANK14  BANK15
  7800 ;;      Params:         0       3       0       0       0       0       0       0       0       0       0       0       
      +0       0       0       0       0
  7801 ;;      Locals:         0       1       0       0       0       0       0       0       0       0       0       0       
      +0       0       0       0       0
  7802 ;;      Temps:          0       4       0       0       0       0       0       0       0       0       0       0       
      +0       0       0       0       0
  7803 ;;      Totals:         0       8       0       0       0       0       0       0       0       0       0       0       
      +0       0       0       0       0
  7804 ;;Total ram usage:        8 bytes
  7805 ;; Hardware stack levels used: 1
  7806 ;; Hardware stack levels required when called: 9
  7807 ;; This function calls:
  7808 ;;		_GPIO_Pin_Write_Logic
  7809 ;; This function is called by:
  7810 ;;		_lcd_send_command
  7811 ;;		_lcd_send_char_data
  7812 ;; This function uses a non-reentrant model
  7813 ;;
  7814                           
  7815                           	psect	text11
  7816   003AAA                     __ptext11:
  7817                           	callstack 0
  7818   003AAA                     _lcd_send_4_bit_data:
  7819                           	callstack 20
  7820   003AAA                     
  7821                           ;ECU_Layer/Ch_LCD/ecu_ch_lcd.c: 276: static void lcd_send_4_bit_data(const Ch_LCD *_LCD_
      +                           ,uint8 _data_command);ECU_Layer/Ch_LCD/ecu_ch_lcd.c: 277: {;ECU_Layer/Ch_LCD/ecu_ch_lcd
      +                          .c: 278:     uint8 pin_counter = 0 ;
  7822   003AAA  0E00               	movlw	0
  7823   003AAC  0100               	movlb	0	; () banked
  7824   003AAE  6FFD               	movwf	lcd_send_4_bit_data@pin_counter& (0+255),b
  7825                           
  7826                           ;ECU_Layer/Ch_LCD/ecu_ch_lcd.c: 279:     for(pin_counter =0 ;pin_counter < (uint8)4 ;pin
      +                          _counter++)
  7827   003AB0  0E00               	movlw	0
  7828   003AB2  6FFD               	movwf	lcd_send_4_bit_data@pin_counter& (0+255),b
  7829   003AB4                     l9041:
  7830                           
  7831                           ; BSR set to: 0
  7832                           ;ECU_Layer/Ch_LCD/ecu_ch_lcd.c: 280:     {;ECU_Layer/Ch_LCD/ecu_ch_lcd.c: 281:         G
      +                          PIO_Pin_Write_Logic(&(_LCD_->data_pin[pin_counter]) ,(_data_command >> pin_counter) & (u
      +                          int8)(0x01));
  7833   003AB4  51FD               	movf	lcd_send_4_bit_data@pin_counter& (0+255),w,b
  7834   003AB6  25F6               	addwf	lcd_send_4_bit_data@_LCD_& (0+255),w,b
  7835   003AB8  6FF9               	movwf	??_lcd_send_4_bit_data& (0+255),b
  7836   003ABA  0E00               	movlw	0
  7837   003ABC  21F7               	addwfc	(lcd_send_4_bit_data@_LCD_+1)& (0+255),w,b
  7838   003ABE  6FFA               	movwf	(??_lcd_send_4_bit_data+1)& (0+255),b
  7839   003AC0  0E02               	movlw	2
  7840   003AC2  25F9               	addwf	??_lcd_send_4_bit_data& (0+255),w,b
  7841   003AC4  6FEB               	movwf	GPIO_Pin_Write_Logic@_Pin_Config_& (0+255),b
  7842   003AC6  0E00               	movlw	0
  7843   003AC8  21FA               	addwfc	(??_lcd_send_4_bit_data+1)& (0+255),w,b
  7844   003ACA  6FEC               	movwf	(GPIO_Pin_Write_Logic@_Pin_Config_+1)& (0+255),b
  7845   003ACC  C0FD  F0FB         	movff	lcd_send_4_bit_data@pin_counter,??_lcd_send_4_bit_data+2
  7846   003AD0  C0F8  F0FC         	movff	lcd_send_4_bit_data@_data_command,??_lcd_send_4_bit_data+3
  7847   003AD4  2BFB               	incf	(??_lcd_send_4_bit_data+2)& (0+255),f,b
  7848   003AD6  EF6F  F01D         	goto	u7414
  7849   003ADA                     u7415:
  7850   003ADA  90D8               	bcf	status,0,c
  7851   003ADC  33FC               	rrcf	(??_lcd_send_4_bit_data+3)& (0+255),f,b
  7852   003ADE                     u7414:
  7853   003ADE  2FFB               	decfsz	(??_lcd_send_4_bit_data+2)& (0+255),f,b
  7854   003AE0  EF6D  F01D         	goto	u7415
  7855   003AE4  0100               	movlb	0	; () banked
  7856   003AE6  51FC               	movf	(??_lcd_send_4_bit_data+3)& (0+255),w,b
  7857   003AE8  0B01               	andlw	1
  7858   003AEA  6FED               	movwf	GPIO_Pin_Write_Logic@Logic& (0+255),b
  7859   003AEC  ECA2  F015         	call	_GPIO_Pin_Write_Logic	;wreg free
  7860   003AF0                     
  7861                           ;ECU_Layer/Ch_LCD/ecu_ch_lcd.c: 282:     }
  7862   003AF0  0100               	movlb	0	; () banked
  7863   003AF2  2BFD               	incf	lcd_send_4_bit_data@pin_counter& (0+255),f,b
  7864   003AF4                     
  7865                           ; BSR set to: 0
  7866   003AF4  0E03               	movlw	3
  7867   003AF6  65FD               	cpfsgt	lcd_send_4_bit_data@pin_counter& (0+255),b
  7868   003AF8  EF80  F01D         	goto	u7421
  7869   003AFC  EF82  F01D         	goto	u7420
  7870   003B00                     u7421:
  7871   003B00  EF5A  F01D         	goto	l9041
  7872   003B04                     u7420:
  7873   003B04                     
  7874                           ; BSR set to: 0
  7875   003B04  0012               	return		;funcret
  7876   003B06                     __end_of_lcd_send_4_bit_data:
  7877                           	callstack 0
  7878                           
  7879 ;; *************** function _Led_Intialize *****************
  7880 ;; Defined at:
  7881 ;;		line 17 in file "ECU_Layer/LED/ecu_Led.c"
  7882 ;; Parameters:    Size  Location     Type
  7883 ;;  Led             2   15[BANK0 ] PTR const struct .
  7884 ;;		 -> led_Admin(1), led_Guest(1), led_Block(1), 
  7885 ;; Auto vars:     Size  Location     Type
  7886 ;;  _pin_config_    1    2[BANK1 ] struct .
  7887 ;;  ret             2    0[BANK1 ] unsigned int 
  7888 ;; Return value:  Size  Location     Type
  7889 ;;                  2   15[BANK0 ] unsigned int 
  7890 ;; Registers used:
  7891 ;;		wreg, fsr2l, fsr2h, status,2, status,0, prodl, prodh, cstack
  7892 ;; Tracked objects:
  7893 ;;		On entry : 0/0
  7894 ;;		On exit  : 0/0
  7895 ;;		Unchanged: 0/0
  7896 ;; Data sizes:     COMRAM   BANK0   BANK1   BANK2   BANK3   BANK4   BANK5   BANK6   BANK7   BANK8   BANK9  BANK10  BANK1
      +1  BANK12  BANK13  BANK14  BANK15
  7897 ;;      Params:         0       2       0       0       0       0       0       0       0       0       0       0       
      +0       0       0       0       0
  7898 ;;      Locals:         0       0       3       0       0       0       0       0       0       0       0       0       
      +0       0       0       0       0
  7899 ;;      Temps:          0       1       0       0       0       0       0       0       0       0       0       0       
      +0       0       0       0       0
  7900 ;;      Totals:         0       3       3       0       0       0       0       0       0       0       0       0       
      +0       0       0       0       0
  7901 ;;Total ram usage:        6 bytes
  7902 ;; Hardware stack levels used: 1
  7903 ;; Hardware stack levels required when called: 10
  7904 ;; This function calls:
  7905 ;;		_GPIO_Pin_Intialize
  7906 ;; This function is called by:
  7907 ;;		_ecu_intialize
  7908 ;; This function uses a non-reentrant model
  7909 ;;
  7910                           
  7911                           	psect	text12
  7912   003202                     __ptext12:
  7913                           	callstack 0
  7914   003202                     _Led_Intialize:
  7915                           	callstack 18
  7916   003202                     
  7917                           ;ECU_Layer/LED/ecu_Led.c: 20:     if(((void*)0) == Led)
  7918   003202  0100               	movlb	0	; () banked
  7919   003204  51FA               	movf	Led_Intialize@Led& (0+255),w,b
  7920   003206  11FB               	iorwf	(Led_Intialize@Led+1)& (0+255),w,b
  7921   003208  A4D8               	btfss	status,2,c
  7922   00320A  EF09  F019         	goto	u7551
  7923   00320E  EF0B  F019         	goto	u7550
  7924   003212                     u7551:
  7925   003212  EF12  F019         	goto	l196
  7926   003216                     u7550:
  7927   003216                     
  7928                           ; BSR set to: 0
  7929                           ;ECU_Layer/LED/ecu_Led.c: 21:     {;ECU_Layer/LED/ecu_Led.c: 22:         ret = (Std_Retu
      +                          rnType)0x00;
  7930   003216  0E00               	movlw	0
  7931   003218  0101               	movlb	1	; () banked
  7932   00321A  6F01               	movwf	(Led_Intialize@ret+1)& (0+255),b
  7933   00321C  0E00               	movlw	0
  7934   00321E  6F00               	movwf	Led_Intialize@ret& (0+255),b
  7935                           
  7936                           ;ECU_Layer/LED/ecu_Led.c: 23:     }
  7937   003220  EF50  F019         	goto	l9227
  7938   003224                     l196:
  7939                           
  7940                           ; BSR set to: 0
  7941                           ;ECU_Layer/LED/ecu_Led.c: 25:     {;ECU_Layer/LED/ecu_Led.c: 26:         Pin_Config_t _p
      +                          in_config_ =
  7942   003224  C050  F102         	movff	Led_Intialize@F2820,Led_Intialize@_pin_config_
  7943   003228                     
  7944                           ; BSR set to: 0
  7945   003228  C0FA  FFD9         	movff	Led_Intialize@Led,fsr2l
  7946   00322C  C0FB  FFDA         	movff	Led_Intialize@Led+1,fsr2h
  7947   003230  50DF               	movf	223,w,c
  7948   003232  0B07               	andlw	7
  7949   003234  6FFC               	movwf	??_Led_Intialize& (0+255),b
  7950   003236  0101               	movlb	1	; () banked
  7951   003238  5102               	movf	Led_Intialize@_pin_config_& (0+255),w,b
  7952   00323A  0100               	movlb	0	; () banked
  7953   00323C  19FC               	xorwf	??_Led_Intialize& (0+255),w,b
  7954   00323E  0BF8               	andlw	-8
  7955   003240  19FC               	xorwf	??_Led_Intialize& (0+255),w,b
  7956   003242  0101               	movlb	1	; () banked
  7957   003244  6F02               	movwf	Led_Intialize@_pin_config_& (0+255),b
  7958   003246  C0FA  FFD9         	movff	Led_Intialize@Led,fsr2l
  7959   00324A  C0FB  FFDA         	movff	Led_Intialize@Led+1,fsr2h
  7960   00324E  30DF               	rrcf	223,w,c
  7961   003250  32E8               	rrcf	wreg,f,c
  7962   003252  32E8               	rrcf	wreg,f,c
  7963   003254  0B07               	andlw	7
  7964   003256  0100               	movlb	0	; () banked
  7965   003258  6FFC               	movwf	??_Led_Intialize& (0+255),b
  7966   00325A  47FC               	rlncf	??_Led_Intialize& (0+255),f,b
  7967   00325C  47FC               	rlncf	??_Led_Intialize& (0+255),f,b
  7968   00325E  47FC               	rlncf	??_Led_Intialize& (0+255),f,b
  7969   003260  0101               	movlb	1	; () banked
  7970   003262  5102               	movf	Led_Intialize@_pin_config_& (0+255),w,b
  7971   003264  0100               	movlb	0	; () banked
  7972   003266  19FC               	xorwf	??_Led_Intialize& (0+255),w,b
  7973   003268  0BC7               	andlw	-57
  7974   00326A  19FC               	xorwf	??_Led_Intialize& (0+255),w,b
  7975   00326C  0101               	movlb	1	; () banked
  7976   00326E  6F02               	movwf	Led_Intialize@_pin_config_& (0+255),b
  7977   003270                     
  7978                           ; BSR set to: 1
  7979   003270  9D02               	bcf	Led_Intialize@_pin_config_& (0+255),6,b
  7980   003272                     
  7981                           ; BSR set to: 1
  7982   003272  C0FA  FFD9         	movff	Led_Intialize@Led,fsr2l
  7983   003276  C0FB  FFDA         	movff	Led_Intialize@Led+1,fsr2h
  7984   00327A  0100               	movlb	0	; () banked
  7985   00327C  ACDF               	btfss	indf2,6,c
  7986   00327E  D003               	bra	u7565
  7987   003280  0101               	movlb	1	; () banked
  7988   003282  8F02               	bsf	Led_Intialize@_pin_config_& (0+255),7,b
  7989   003284  D002               	bra	u7567
  7990   003286                     u7565:
  7991   003286  0101               	movlb	1	; () banked
  7992   003288  9F02               	bcf	Led_Intialize@_pin_config_& (0+255),7,b
  7993   00328A                     u7567:
  7994   00328A                     
  7995                           ; BSR set to: 1
  7996                           ;ECU_Layer/LED/ecu_Led.c: 33:         ret = GPIO_Pin_Intialize(&_pin_config_);
  7997   00328A  0E02               	movlw	low Led_Intialize@_pin_config_
  7998   00328C  0100               	movlb	0	; () banked
  7999   00328E  6FF6               	movwf	GPIO_Pin_Intialize@_Pin_Config_& (0+255),b
  8000   003290  0E01               	movlw	high Led_Intialize@_pin_config_
  8001   003292  6FF7               	movwf	(GPIO_Pin_Intialize@_Pin_Config_+1)& (0+255),b
  8002   003294  EC23  F01D         	call	_GPIO_Pin_Intialize	;wreg free
  8003   003298  C0F6  F100         	movff	?_GPIO_Pin_Intialize,Led_Intialize@ret
  8004   00329C  C0F7  F101         	movff	?_GPIO_Pin_Intialize+1,Led_Intialize@ret+1
  8005   0032A0                     l9227:
  8006                           
  8007                           ;ECU_Layer/LED/ecu_Led.c: 35:     return ret;
  8008   0032A0  C100  F0FA         	movff	Led_Intialize@ret,?_Led_Intialize
  8009   0032A4  C101  F0FB         	movff	Led_Intialize@ret+1,?_Led_Intialize+1
  8010   0032A8  0012               	return		;funcret
  8011   0032AA                     __end_of_Led_Intialize:
  8012                           	callstack 0
  8013                           
  8014 ;; *************** function _Key_Pad_Intialize *****************
  8015 ;; Defined at:
  8016 ;;		line 16 in file "ECU_Layer/Key_Pad/ecu_key_pad.c"
  8017 ;; Parameters:    Size  Location     Type
  8018 ;;  _key_pad        2   15[BANK0 ] PTR const struct .
  8019 ;;		 -> key_pad1(8), 
  8020 ;; Auto vars:     Size  Location     Type
  8021 ;;  counter         1    2[BANK1 ] unsigned char 
  8022 ;;  ret             2    0[BANK1 ] unsigned int 
  8023 ;; Return value:  Size  Location     Type
  8024 ;;                  2   15[BANK0 ] unsigned int 
  8025 ;; Registers used:
  8026 ;;		wreg, fsr2l, fsr2h, status,2, status,0, prodl, prodh, cstack
  8027 ;; Tracked objects:
  8028 ;;		On entry : 0/0
  8029 ;;		On exit  : 0/0
  8030 ;;		Unchanged: 0/0
  8031 ;; Data sizes:     COMRAM   BANK0   BANK1   BANK2   BANK3   BANK4   BANK5   BANK6   BANK7   BANK8   BANK9  BANK10  BANK1
      +1  BANK12  BANK13  BANK14  BANK15
  8032 ;;      Params:         0       2       0       0       0       0       0       0       0       0       0       0       
      +0       0       0       0       0
  8033 ;;      Locals:         0       0       3       0       0       0       0       0       0       0       0       0       
      +0       0       0       0       0
  8034 ;;      Temps:          0       2       0       0       0       0       0       0       0       0       0       0       
      +0       0       0       0       0
  8035 ;;      Totals:         0       4       3       0       0       0       0       0       0       0       0       0       
      +0       0       0       0       0
  8036 ;;Total ram usage:        7 bytes
  8037 ;; Hardware stack levels used: 1
  8038 ;; Hardware stack levels required when called: 10
  8039 ;; This function calls:
  8040 ;;		_GPIO_Pin_Intialize
  8041 ;; This function is called by:
  8042 ;;		_ecu_intialize
  8043 ;; This function uses a non-reentrant model
  8044 ;;
  8045                           
  8046                           	psect	text13
  8047   0033E0                     __ptext13:
  8048                           	callstack 0
  8049   0033E0                     _Key_Pad_Intialize:
  8050                           	callstack 18
  8051   0033E0                     
  8052                           ;ECU_Layer/Key_Pad/ecu_key_pad.c: 19:     if(_key_pad == ((void*)0))
  8053   0033E0  0100               	movlb	0	; () banked
  8054   0033E2  51FA               	movf	Key_Pad_Intialize@_key_pad& (0+255),w,b
  8055   0033E4  11FB               	iorwf	(Key_Pad_Intialize@_key_pad+1)& (0+255),w,b
  8056   0033E6  A4D8               	btfss	status,2,c
  8057   0033E8  EFF8  F019         	goto	u7531
  8058   0033EC  EFFA  F019         	goto	u7530
  8059   0033F0                     u7531:
  8060   0033F0  EF01  F01A         	goto	l9195
  8061   0033F4                     u7530:
  8062   0033F4                     
  8063                           ; BSR set to: 0
  8064                           ;ECU_Layer/Key_Pad/ecu_key_pad.c: 20:     {;ECU_Layer/Key_Pad/ecu_key_pad.c: 21:        
      +                           ret = (Std_ReturnType)0x00 ;
  8065   0033F4  0E00               	movlw	0
  8066   0033F6  0101               	movlb	1	; () banked
  8067   0033F8  6F01               	movwf	(Key_Pad_Intialize@ret+1)& (0+255),b
  8068   0033FA  0E00               	movlw	0
  8069   0033FC  6F00               	movwf	Key_Pad_Intialize@ret& (0+255),b
  8070                           
  8071                           ;ECU_Layer/Key_Pad/ecu_key_pad.c: 22:     }
  8072   0033FE  EF37  F01A         	goto	l9209
  8073   003402                     l9195:
  8074                           
  8075                           ; BSR set to: 0
  8076                           ;ECU_Layer/Key_Pad/ecu_key_pad.c: 24:     {;ECU_Layer/Key_Pad/ecu_key_pad.c: 25:        
      +                           uint8 counter =0;
  8077   003402  0E00               	movlw	0
  8078   003404  0101               	movlb	1	; () banked
  8079   003406  6F02               	movwf	Key_Pad_Intialize@counter& (0+255),b
  8080                           
  8081                           ;ECU_Layer/Key_Pad/ecu_key_pad.c: 26:         for(counter =0 ;counter < 4 ;counter++)
  8082   003408  0E00               	movlw	0
  8083   00340A  6F02               	movwf	Key_Pad_Intialize@counter& (0+255),b
  8084   00340C                     l9201:
  8085                           
  8086                           ; BSR set to: 1
  8087                           ;ECU_Layer/Key_Pad/ecu_key_pad.c: 27:         {;ECU_Layer/Key_Pad/ecu_key_pad.c: 28:    
      +                                   ret =GPIO_Pin_Intialize(&(_key_pad->Key_Pad_Rows[counter]));
  8088   00340C  5102               	movf	Key_Pad_Intialize@counter& (0+255),w,b
  8089   00340E  0100               	movlb	0	; () banked
  8090   003410  25FA               	addwf	Key_Pad_Intialize@_key_pad& (0+255),w,b
  8091   003412  6FF6               	movwf	GPIO_Pin_Intialize@_Pin_Config_& (0+255),b
  8092   003414  0101               	movlb	1	; () banked
  8093   003416  0E00               	movlw	0
  8094   003418  0100               	movlb	0	; () banked
  8095   00341A  21FB               	addwfc	(Key_Pad_Intialize@_key_pad+1)& (0+255),w,b
  8096   00341C  6FF7               	movwf	(GPIO_Pin_Intialize@_Pin_Config_+1)& (0+255),b
  8097   00341E  EC23  F01D         	call	_GPIO_Pin_Intialize	;wreg free
  8098   003422  C0F6  F100         	movff	?_GPIO_Pin_Intialize,Key_Pad_Intialize@ret
  8099   003426  C0F7  F101         	movff	?_GPIO_Pin_Intialize+1,Key_Pad_Intialize@ret+1
  8100                           
  8101                           ;ECU_Layer/Key_Pad/ecu_key_pad.c: 29:             ret =GPIO_Pin_Intialize(&(_key_pad->Ke
      +                          y_Pad_Coulmns[counter]));
  8102   00342A  0101               	movlb	1	; () banked
  8103   00342C  5102               	movf	Key_Pad_Intialize@counter& (0+255),w,b
  8104   00342E  0100               	movlb	0	; () banked
  8105   003430  25FA               	addwf	Key_Pad_Intialize@_key_pad& (0+255),w,b
  8106   003432  6FFC               	movwf	??_Key_Pad_Intialize& (0+255),b
  8107   003434  0E00               	movlw	0
  8108   003436  21FB               	addwfc	(Key_Pad_Intialize@_key_pad+1)& (0+255),w,b
  8109   003438  6FFD               	movwf	(??_Key_Pad_Intialize+1)& (0+255),b
  8110   00343A  0E04               	movlw	4
  8111   00343C  25FC               	addwf	??_Key_Pad_Intialize& (0+255),w,b
  8112   00343E  6FF6               	movwf	GPIO_Pin_Intialize@_Pin_Config_& (0+255),b
  8113   003440  0E00               	movlw	0
  8114   003442  21FD               	addwfc	(??_Key_Pad_Intialize+1)& (0+255),w,b
  8115   003444  6FF7               	movwf	(GPIO_Pin_Intialize@_Pin_Config_+1)& (0+255),b
  8116   003446  EC23  F01D         	call	_GPIO_Pin_Intialize	;wreg free
  8117   00344A  C0F6  F100         	movff	?_GPIO_Pin_Intialize,Key_Pad_Intialize@ret
  8118   00344E  C0F7  F101         	movff	?_GPIO_Pin_Intialize+1,Key_Pad_Intialize@ret+1
  8119   003452                     
  8120                           ;ECU_Layer/Key_Pad/ecu_key_pad.c: 30:         }
  8121   003452  0101               	movlb	1	; () banked
  8122   003454  2B02               	incf	Key_Pad_Intialize@counter& (0+255),f,b
  8123   003456                     
  8124                           ; BSR set to: 1
  8125   003456  0E03               	movlw	3
  8126   003458  6502               	cpfsgt	Key_Pad_Intialize@counter& (0+255),b
  8127   00345A  EF31  F01A         	goto	u7541
  8128   00345E  EF33  F01A         	goto	u7540
  8129   003462                     u7541:
  8130   003462  EF06  F01A         	goto	l9201
  8131   003466                     u7540:
  8132   003466                     
  8133                           ; BSR set to: 1
  8134                           ;ECU_Layer/Key_Pad/ecu_key_pad.c: 31:         ret = (Std_ReturnType)0x01 ;
  8135   003466  0E00               	movlw	0
  8136   003468  6F01               	movwf	(Key_Pad_Intialize@ret+1)& (0+255),b
  8137   00346A  0E01               	movlw	1
  8138   00346C  6F00               	movwf	Key_Pad_Intialize@ret& (0+255),b
  8139   00346E                     l9209:
  8140                           
  8141                           ; BSR set to: 1
  8142                           ;ECU_Layer/Key_Pad/ecu_key_pad.c: 33:     return ret;
  8143   00346E  C100  F0FA         	movff	Key_Pad_Intialize@ret,?_Key_Pad_Intialize
  8144   003472  C101  F0FB         	movff	Key_Pad_Intialize@ret+1,?_Key_Pad_Intialize+1
  8145   003476                     
  8146                           ; BSR set to: 1
  8147   003476  0012               	return		;funcret
  8148   003478                     __end_of_Key_Pad_Intialize:
  8149                           	callstack 0
  8150                           
  8151 ;; *************** function _GPIO_Pin_Intialize *****************
  8152 ;; Defined at:
  8153 ;;		line 147 in file "MCAL_Layer/GPIO/hal_GPIO.c"
  8154 ;; Parameters:    Size  Location     Type
  8155 ;;  _Pin_Config_    2   11[BANK0 ] PTR const struct .
  8156 ;;		 -> lcd1.data_pin(4), lcd1(6), key_pad1.Key_Pad_Coulmns(4), key_pad1.Key_Pad_Rows(4), 
  8157 ;;		 -> key_pad1(8), Relay_Intialize@_pin_config(1), Led_Intialize@_pin_config_(1), 
  8158 ;; Auto vars:     Size  Location     Type
  8159 ;;  ret             2   13[BANK0 ] unsigned int 
  8160 ;; Return value:  Size  Location     Type
  8161 ;;                  2   11[BANK0 ] unsigned int 
  8162 ;; Registers used:
  8163 ;;		wreg, fsr2l, fsr2h, status,2, status,0, prodl, prodh, cstack
  8164 ;; Tracked objects:
  8165 ;;		On entry : 0/0
  8166 ;;		On exit  : 0/0
  8167 ;;		Unchanged: 0/0
  8168 ;; Data sizes:     COMRAM   BANK0   BANK1   BANK2   BANK3   BANK4   BANK5   BANK6   BANK7   BANK8   BANK9  BANK10  BANK1
      +1  BANK12  BANK13  BANK14  BANK15
  8169 ;;      Params:         0       2       0       0       0       0       0       0       0       0       0       0       
      +0       0       0       0       0
  8170 ;;      Locals:         0       2       0       0       0       0       0       0       0       0       0       0       
      +0       0       0       0       0
  8171 ;;      Temps:          0       0       0       0       0       0       0       0       0       0       0       0       
      +0       0       0       0       0
  8172 ;;      Totals:         0       4       0       0       0       0       0       0       0       0       0       0       
      +0       0       0       0       0
  8173 ;;Total ram usage:        4 bytes
  8174 ;; Hardware stack levels used: 1
  8175 ;; Hardware stack levels required when called: 9
  8176 ;; This function calls:
  8177 ;;		_GPIO_Pin_Direction_Intialize
  8178 ;;		_GPIO_Pin_Write_Logic
  8179 ;; This function is called by:
  8180 ;;		_lcd_intialize
  8181 ;;		_Key_Pad_Intialize
  8182 ;;		_Led_Intialize
  8183 ;;		_Dc_Motor_Intialize
  8184 ;;		_Relay_Intialize
  8185 ;;		_Segment_Intialize
  8186 ;;		_CCP_intialize
  8187 ;;		_ECCP_intialize
  8188 ;;		_Interrupt_RBX_Pin_Intiat
  8189 ;; This function uses a non-reentrant model
  8190 ;;
  8191                           
  8192                           	psect	text14
  8193   003A46                     __ptext14:
  8194                           	callstack 0
  8195   003A46                     _GPIO_Pin_Intialize:
  8196                           	callstack 18
  8197   003A46                     
  8198                           ;MCAL_Layer/GPIO/hal_GPIO.c: 150:     if(_Pin_Config_ == ((void*)0) )
  8199   003A46  0100               	movlb	0	; () banked
  8200   003A48  51F6               	movf	GPIO_Pin_Intialize@_Pin_Config_& (0+255),w,b
  8201   003A4A  11F7               	iorwf	(GPIO_Pin_Intialize@_Pin_Config_+1)& (0+255),w,b
  8202   003A4C  A4D8               	btfss	status,2,c
  8203   003A4E  EF2B  F01D         	goto	u7451
  8204   003A52  EF2D  F01D         	goto	u7450
  8205   003A56                     u7451:
  8206   003A56  EF33  F01D         	goto	l9081
  8207   003A5A                     u7450:
  8208   003A5A                     
  8209                           ; BSR set to: 0
  8210                           ;MCAL_Layer/GPIO/hal_GPIO.c: 151:     {;MCAL_Layer/GPIO/hal_GPIO.c: 152:         ret = (
      +                          Std_ReturnType)0x00 ;
  8211   003A5A  0E00               	movlw	0
  8212   003A5C  6FF9               	movwf	(GPIO_Pin_Intialize@ret+1)& (0+255),b
  8213   003A5E  0E00               	movlw	0
  8214   003A60  6FF8               	movwf	GPIO_Pin_Intialize@ret& (0+255),b
  8215                           
  8216                           ;MCAL_Layer/GPIO/hal_GPIO.c: 153:     }
  8217   003A62  EF50  F01D         	goto	l9083
  8218   003A66                     l9081:
  8219                           
  8220                           ; BSR set to: 0
  8221                           ;MCAL_Layer/GPIO/hal_GPIO.c: 155:     {;MCAL_Layer/GPIO/hal_GPIO.c: 156:         ret = G
      +                          PIO_Pin_Direction_Intialize(_Pin_Config_);
  8222   003A66  C0F6  F0EB         	movff	GPIO_Pin_Intialize@_Pin_Config_,GPIO_Pin_Direction_Intialize@_Pin_Config_
  8223   003A6A  C0F7  F0EC         	movff	GPIO_Pin_Intialize@_Pin_Config_+1,GPIO_Pin_Direction_Intialize@_Pin_Config_+1
  8224   003A6E  EC4E  F014         	call	_GPIO_Pin_Direction_Intialize	;wreg free
  8225   003A72  C0EB  F0F8         	movff	?_GPIO_Pin_Direction_Intialize,GPIO_Pin_Intialize@ret
  8226   003A76  C0EC  F0F9         	movff	?_GPIO_Pin_Direction_Intialize+1,GPIO_Pin_Intialize@ret+1
  8227                           
  8228                           ;MCAL_Layer/GPIO/hal_GPIO.c: 157:         ret = GPIO_Pin_Write_Logic(_Pin_Config_ ,_Pin_
      +                          Config_->logic);
  8229   003A7A  C0F6  F0EB         	movff	GPIO_Pin_Intialize@_Pin_Config_,GPIO_Pin_Write_Logic@_Pin_Config_
  8230   003A7E  C0F7  F0EC         	movff	GPIO_Pin_Intialize@_Pin_Config_+1,GPIO_Pin_Write_Logic@_Pin_Config_+1
  8231   003A82  C0F6  FFD9         	movff	GPIO_Pin_Intialize@_Pin_Config_,fsr2l
  8232   003A86  C0F7  FFDA         	movff	GPIO_Pin_Intialize@_Pin_Config_+1,fsr2h
  8233   003A8A  0100               	movlb	0	; () banked
  8234   003A8C  0E00               	movlw	0
  8235   003A8E  BEDF               	btfsc	indf2,7,c
  8236   003A90  0E01               	movlw	1
  8237   003A92  6FED               	movwf	GPIO_Pin_Write_Logic@Logic& (0+255),b
  8238   003A94  ECA2  F015         	call	_GPIO_Pin_Write_Logic	;wreg free
  8239   003A98  C0EB  F0F8         	movff	?_GPIO_Pin_Write_Logic,GPIO_Pin_Intialize@ret
  8240   003A9C  C0EC  F0F9         	movff	?_GPIO_Pin_Write_Logic+1,GPIO_Pin_Intialize@ret+1
  8241   003AA0                     l9083:
  8242                           
  8243                           ;MCAL_Layer/GPIO/hal_GPIO.c: 159:     return ret;
  8244   003AA0  C0F8  F0F6         	movff	GPIO_Pin_Intialize@ret,?_GPIO_Pin_Intialize
  8245   003AA4  C0F9  F0F7         	movff	GPIO_Pin_Intialize@ret+1,?_GPIO_Pin_Intialize+1
  8246   003AA8  0012               	return		;funcret
  8247   003AAA                     __end_of_GPIO_Pin_Intialize:
  8248                           	callstack 0
  8249                           
  8250 ;; *************** function _SPI_Init *****************
  8251 ;; Defined at:
  8252 ;;		line 18 in file "MCAL_Layer/SPI/hal_spi.c"
  8253 ;; Parameters:    Size  Location     Type
  8254 ;;  _SPI_           2   17[BANK0 ] PTR const struct .
  8255 ;;		 -> spi_master(2), 
  8256 ;; Auto vars:     Size  Location     Type
  8257 ;;  ret             2    0        unsigned int 
  8258 ;; Return value:  Size  Location     Type
  8259 ;;                  2   17[BANK0 ] unsigned int 
  8260 ;; Registers used:
  8261 ;;		wreg, fsr2l, fsr2h, status,2, status,0, prodl, prodh, cstack
  8262 ;; Tracked objects:
  8263 ;;		On entry : 0/0
  8264 ;;		On exit  : 0/0
  8265 ;;		Unchanged: 0/0
  8266 ;; Data sizes:     COMRAM   BANK0   BANK1   BANK2   BANK3   BANK4   BANK5   BANK6   BANK7   BANK8   BANK9  BANK10  BANK1
      +1  BANK12  BANK13  BANK14  BANK15
  8267 ;;      Params:         0       2       0       0       0       0       0       0       0       0       0       0       
      +0       0       0       0       0
  8268 ;;      Locals:         0       0       0       0       0       0       0       0       0       0       0       0       
      +0       0       0       0       0
  8269 ;;      Temps:          0       0       1       0       0       0       0       0       0       0       0       0       
      +0       0       0       0       0
  8270 ;;      Totals:         0       2       1       0       0       0       0       0       0       0       0       0       
      +0       0       0       0       0
  8271 ;;Total ram usage:        3 bytes
  8272 ;; Hardware stack levels used: 1
  8273 ;; Hardware stack levels required when called: 10
  8274 ;; This function calls:
  8275 ;;		_MSSP_SPI_Msster_Mode_GPIO_PIN_Configurations
  8276 ;;		_MSSP_SPI_Slave_Mode_GPIO_PIN_Configurations
  8277 ;; This function is called by:
  8278 ;;		_intialization
  8279 ;; This function uses a non-reentrant model
  8280 ;;
  8281                           
  8282                           	psect	text15
  8283   0029F4                     __ptext15:
  8284                           	callstack 0
  8285   0029F4                     _SPI_Init:
  8286                           	callstack 19
  8287   0029F4                     
  8288                           ;MCAL_Layer/SPI/hal_spi.c: 21:     if(_SPI_ == ((void*)0))
  8289   0029F4  0100               	movlb	0	; () banked
  8290   0029F6  51FC               	movf	SPI_Init@_SPI_& (0+255),w,b
  8291   0029F8  11FD               	iorwf	(SPI_Init@_SPI_+1)& (0+255),w,b
  8292   0029FA  A4D8               	btfss	status,2,c
  8293   0029FC  EF02  F015         	goto	u7671
  8294   002A00  EF04  F015         	goto	u7670
  8295   002A04                     u7671:
  8296   002A04  EF06  F015         	goto	l1248
  8297   002A08                     u7670:
  8298   002A08                     
  8299                           ; BSR set to: 0
  8300                           ;MCAL_Layer/SPI/hal_spi.c: 24:     }
  8301   002A08  EFA1  F015         	goto	l1258
  8302   002A0C                     l1248:
  8303                           
  8304                           ; BSR set to: 0
  8305                           ;MCAL_Layer/SPI/hal_spi.c: 26:     {;MCAL_Layer/SPI/hal_spi.c: 27:         (SSPCON1bits.
      +                          SSPEN = 0);
  8306   002A0C  9AC6               	bcf	198,5,c	;volatile
  8307   002A0E                     
  8308                           ; BSR set to: 0
  8309                           ;MCAL_Layer/SPI/hal_spi.c: 29:         SSPCON1bits.SSPM = _SPI_->spi_serial_clk_mod_sele
      +                          ct;
  8310   002A0E  C0FC  FFD9         	movff	SPI_Init@_SPI_,fsr2l
  8311   002A12  C0FD  FFDA         	movff	SPI_Init@_SPI_+1,fsr2h
  8312   002A16  50DF               	movf	indf2,w,c
  8313   002A18  0101               	movlb	1	; () banked
  8314   002A1A  6F00               	movwf	??_SPI_Init& (0+255),b
  8315   002A1C  50C6               	movf	198,w,c	;volatile
  8316   002A1E  1900               	xorwf	??_SPI_Init& (0+255),w,b
  8317   002A20  0BF0               	andlw	-16
  8318   002A22  1900               	xorwf	??_SPI_Init& (0+255),w,b
  8319   002A24  6EC6               	movwf	198,c	;volatile
  8320   002A26                     
  8321                           ; BSR set to: 1
  8322                           ;MCAL_Layer/SPI/hal_spi.c: 31:         if(0 == _SPI_->spi_serial_clk_mod_select ||
  8323   002A26  C0FC  FFD9         	movff	SPI_Init@_SPI_,fsr2l
  8324   002A2A  C0FD  FFDA         	movff	SPI_Init@_SPI_+1,fsr2h
  8325   002A2E  50DF               	movf	indf2,w,c
  8326   002A30  B4D8               	btfsc	status,2,c
  8327   002A32  EF1D  F015         	goto	u7681
  8328   002A36  EF1F  F015         	goto	u7680
  8329   002A3A                     u7681:
  8330   002A3A  EF45  F015         	goto	l9361
  8331   002A3E                     u7680:
  8332   002A3E                     
  8333                           ; BSR set to: 1
  8334   002A3E  C0FC  FFD9         	movff	SPI_Init@_SPI_,fsr2l
  8335   002A42  C0FD  FFDA         	movff	SPI_Init@_SPI_+1,fsr2h
  8336   002A46  04DE               	decf	postinc2,w,c
  8337   002A48  B4D8               	btfsc	status,2,c
  8338   002A4A  EF29  F015         	goto	u7691
  8339   002A4E  EF2B  F015         	goto	u7690
  8340   002A52                     u7691:
  8341   002A52  EF45  F015         	goto	l9361
  8342   002A56                     u7690:
  8343   002A56                     
  8344                           ; BSR set to: 1
  8345   002A56  C0FC  FFD9         	movff	SPI_Init@_SPI_,fsr2l
  8346   002A5A  C0FD  FFDA         	movff	SPI_Init@_SPI_+1,fsr2h
  8347   002A5E  0E02               	movlw	2
  8348   002A60  18DE               	xorwf	postinc2,w,c
  8349   002A62  B4D8               	btfsc	status,2,c
  8350   002A64  EF36  F015         	goto	u7701
  8351   002A68  EF38  F015         	goto	u7700
  8352   002A6C                     u7701:
  8353   002A6C  EF45  F015         	goto	l9361
  8354   002A70                     u7700:
  8355   002A70                     
  8356                           ; BSR set to: 1
  8357   002A70  C0FC  FFD9         	movff	SPI_Init@_SPI_,fsr2l
  8358   002A74  C0FD  FFDA         	movff	SPI_Init@_SPI_+1,fsr2h
  8359   002A78  0E03               	movlw	3
  8360   002A7A  18DE               	xorwf	postinc2,w,c
  8361   002A7C  A4D8               	btfss	status,2,c
  8362   002A7E  EF43  F015         	goto	u7711
  8363   002A82  EF45  F015         	goto	u7710
  8364   002A86                     u7711:
  8365   002A86  EF49  F015         	goto	l9363
  8366   002A8A                     u7710:
  8367   002A8A                     l9361:
  8368                           
  8369                           ; BSR set to: 1
  8370                           ;MCAL_Layer/SPI/hal_spi.c: 35:         {;MCAL_Layer/SPI/hal_spi.c: 36:             MSSP_
      +                          SPI_Msster_Mode_GPIO_PIN_Configurations();
  8371   002A8A  EC90  F01E         	call	_MSSP_SPI_Msster_Mode_GPIO_PIN_Configurations	;wreg free
  8372                           
  8373                           ;MCAL_Layer/SPI/hal_spi.c: 37:         }
  8374   002A8E  EF69  F015         	goto	l9369
  8375   002A92                     l9363:
  8376                           
  8377                           ; BSR set to: 1
  8378   002A92  C0FC  FFD9         	movff	SPI_Init@_SPI_,fsr2l
  8379   002A96  C0FD  FFDA         	movff	SPI_Init@_SPI_+1,fsr2h
  8380   002A9A  0E04               	movlw	4
  8381   002A9C  18DE               	xorwf	postinc2,w,c
  8382   002A9E  B4D8               	btfsc	status,2,c
  8383   002AA0  EF54  F015         	goto	u7721
  8384   002AA4  EF56  F015         	goto	u7720
  8385   002AA8                     u7721:
  8386   002AA8  EF63  F015         	goto	l9367
  8387   002AAC                     u7720:
  8388   002AAC                     
  8389                           ; BSR set to: 1
  8390   002AAC  C0FC  FFD9         	movff	SPI_Init@_SPI_,fsr2l
  8391   002AB0  C0FD  FFDA         	movff	SPI_Init@_SPI_+1,fsr2h
  8392   002AB4  0E05               	movlw	5
  8393   002AB6  18DE               	xorwf	postinc2,w,c
  8394   002AB8  A4D8               	btfss	status,2,c
  8395   002ABA  EF61  F015         	goto	u7731
  8396   002ABE  EF63  F015         	goto	u7730
  8397   002AC2                     u7731:
  8398   002AC2  EF69  F015         	goto	l9369
  8399   002AC6                     u7730:
  8400   002AC6                     l9367:
  8401                           
  8402                           ; BSR set to: 1
  8403                           ;MCAL_Layer/SPI/hal_spi.c: 40:         {;MCAL_Layer/SPI/hal_spi.c: 41:             MSSP_
      +                          SPI_Slave_Mode_GPIO_PIN_Configurations(_SPI_);
  8404   002AC6  C0FC  F0F5         	movff	SPI_Init@_SPI_,MSSP_SPI_Slave_Mode_GPIO_PIN_Configurations@_SPI_
  8405   002ACA  C0FD  F0F6         	movff	SPI_Init@_SPI_+1,MSSP_SPI_Slave_Mode_GPIO_PIN_Configurations@_SPI_+1
  8406   002ACE  EC48  F01C         	call	_MSSP_SPI_Slave_Mode_GPIO_PIN_Configurations	;wreg free
  8407   002AD2                     l9369:
  8408                           
  8409                           ;MCAL_Layer/SPI/hal_spi.c: 44:         SSPCON1bits.CKP = _SPI_->spi_control.ClockPolarit
      +                          y;
  8410   002AD2  0100               	movlb	0	; () banked
  8411   002AD4  EE20 F001          	lfsr	2,1
  8412   002AD8  51FC               	movf	SPI_Init@_SPI_& (0+255),w,b
  8413   002ADA  26D9               	addwf	fsr2l,f,c
  8414   002ADC  51FD               	movf	(SPI_Init@_SPI_+1)& (0+255),w,b
  8415   002ADE  22DA               	addwfc	fsr2h,f,c
  8416   002AE0  50DF               	movf	223,w,c
  8417   002AE2  0B03               	andlw	3
  8418   002AE4  0101               	movlb	1	; () banked
  8419   002AE6  6F00               	movwf	??_SPI_Init& (0+255),b
  8420   002AE8  3B00               	swapf	??_SPI_Init& (0+255),f,b
  8421   002AEA  50C6               	movf	198,w,c	;volatile
  8422   002AEC  1900               	xorwf	??_SPI_Init& (0+255),w,b
  8423   002AEE  0BEF               	andlw	-17
  8424   002AF0  1900               	xorwf	??_SPI_Init& (0+255),w,b
  8425   002AF2  6EC6               	movwf	198,c	;volatile
  8426                           
  8427                           ;MCAL_Layer/SPI/hal_spi.c: 46:         SSPSTATbits.CKE = _SPI_->spi_control.ClockSelect;
  8428   002AF4  0100               	movlb	0	; () banked
  8429   002AF6  EE20 F001          	lfsr	2,1
  8430   002AFA  51FC               	movf	SPI_Init@_SPI_& (0+255),w,b
  8431   002AFC  26D9               	addwf	fsr2l,f,c
  8432   002AFE  51FD               	movf	(SPI_Init@_SPI_+1)& (0+255),w,b
  8433   002B00  22DA               	addwfc	fsr2h,f,c
  8434   002B02  38DF               	swapf	223,w,c
  8435   002B04  0B03               	andlw	3
  8436   002B06  0101               	movlb	1	; () banked
  8437   002B08  6F00               	movwf	??_SPI_Init& (0+255),b
  8438   002B0A  3B00               	swapf	??_SPI_Init& (0+255),f,b
  8439   002B0C  4700               	rlncf	??_SPI_Init& (0+255),f,b
  8440   002B0E  4700               	rlncf	??_SPI_Init& (0+255),f,b
  8441   002B10  50C7               	movf	199,w,c	;volatile
  8442   002B12  1900               	xorwf	??_SPI_Init& (0+255),w,b
  8443   002B14  0BBF               	andlw	-65
  8444   002B16  1900               	xorwf	??_SPI_Init& (0+255),w,b
  8445   002B18  6EC7               	movwf	199,c	;volatile
  8446                           
  8447                           ;MCAL_Layer/SPI/hal_spi.c: 48:         SSPSTATbits.SMP = _SPI_->spi_control.SampleSelect
      +                          ;
  8448   002B1A  0100               	movlb	0	; () banked
  8449   002B1C  EE20 F001          	lfsr	2,1
  8450   002B20  51FC               	movf	SPI_Init@_SPI_& (0+255),w,b
  8451   002B22  26D9               	addwf	fsr2l,f,c
  8452   002B24  51FD               	movf	(SPI_Init@_SPI_+1)& (0+255),w,b
  8453   002B26  22DA               	addwfc	fsr2h,f,c
  8454   002B28  30DF               	rrcf	223,w,c
  8455   002B2A  32E8               	rrcf	wreg,f,c
  8456   002B2C  0B03               	andlw	3
  8457   002B2E  0101               	movlb	1	; () banked
  8458   002B30  6F00               	movwf	??_SPI_Init& (0+255),b
  8459   002B32  3300               	rrcf	??_SPI_Init& (0+255),f,b
  8460   002B34  3300               	rrcf	??_SPI_Init& (0+255),f,b
  8461   002B36  50C7               	movf	199,w,c	;volatile
  8462   002B38  1900               	xorwf	??_SPI_Init& (0+255),w,b
  8463   002B3A  0B7F               	andlw	-129
  8464   002B3C  1900               	xorwf	??_SPI_Init& (0+255),w,b
  8465   002B3E  6EC7               	movwf	199,c	;volatile
  8466   002B40                     
  8467                           ; BSR set to: 1
  8468                           ;MCAL_Layer/SPI/hal_spi.c: 52:         (SSPCON1bits.SSPEN = 1);
  8469   002B40  8AC6               	bsf	198,5,c	;volatile
  8470   002B42                     l1258:
  8471   002B42  0012               	return		;funcret
  8472   002B44                     __end_of_SPI_Init:
  8473                           	callstack 0
  8474                           
  8475 ;; *************** function _MSSP_SPI_Slave_Mode_GPIO_PIN_Configurations *****************
  8476 ;; Defined at:
  8477 ;;		line 134 in file "MCAL_Layer/SPI/hal_spi.c"
  8478 ;; Parameters:    Size  Location     Type
  8479 ;;  _SPI_           2   10[BANK0 ] PTR const struct .
  8480 ;;		 -> spi_master(2), 
  8481 ;; Auto vars:     Size  Location     Type
  8482 ;;  ret             2    0        unsigned int 
  8483 ;;  SPI_SCK         1   16[BANK0 ] struct .
  8484 ;;  SPI_SS          1   15[BANK0 ] struct .
  8485 ;;  SPI_SDI         1   14[BANK0 ] struct .
  8486 ;;  SPI_SDO         1   13[BANK0 ] struct .
  8487 ;; Return value:  Size  Location     Type
  8488 ;;                  1    wreg      void 
  8489 ;; Registers used:
  8490 ;;		wreg, fsr2l, fsr2h, status,2, status,0, prodl, prodh, cstack
  8491 ;; Tracked objects:
  8492 ;;		On entry : 0/0
  8493 ;;		On exit  : 0/0
  8494 ;;		Unchanged: 0/0
  8495 ;; Data sizes:     COMRAM   BANK0   BANK1   BANK2   BANK3   BANK4   BANK5   BANK6   BANK7   BANK8   BANK9  BANK10  BANK1
      +1  BANK12  BANK13  BANK14  BANK15
  8496 ;;      Params:         0       2       0       0       0       0       0       0       0       0       0       0       
      +0       0       0       0       0
  8497 ;;      Locals:         0       4       0       0       0       0       0       0       0       0       0       0       
      +0       0       0       0       0
  8498 ;;      Temps:          0       1       0       0       0       0       0       0       0       0       0       0       
      +0       0       0       0       0
  8499 ;;      Totals:         0       7       0       0       0       0       0       0       0       0       0       0       
      +0       0       0       0       0
  8500 ;;Total ram usage:        7 bytes
  8501 ;; Hardware stack levels used: 1
  8502 ;; Hardware stack levels required when called: 9
  8503 ;; This function calls:
  8504 ;;		_GPIO_Pin_Direction_Intialize
  8505 ;; This function is called by:
  8506 ;;		_SPI_Init
  8507 ;; This function uses a non-reentrant model
  8508 ;;
  8509                           
  8510                           	psect	text16
  8511   003890                     __ptext16:
  8512                           	callstack 0
  8513   003890                     _MSSP_SPI_Slave_Mode_GPIO_PIN_Configurations:
  8514                           	callstack 19
  8515   003890                     
  8516                           ;MCAL_Layer/SPI/hal_spi.c: 137:     Pin_Config_t SPI_SDO = {.port = PortC_Index ,.pin = 
      +                          pin5 ,.direction = Direction_Outpt};
  8517   003890  C055  F0F8         	movff	MSSP_SPI_Slave_Mode_GPIO_PIN_Configurations@F2872,MSSP_SPI_Slave_Mode_GPIO_PIN_Co
      +                          nfigurations@SPI_SDO
  8518   003894                     
  8519                           ;MCAL_Layer/SPI/hal_spi.c: 138:     Pin_Config_t SPI_SDI = {.port = PortC_Index ,.pin = 
      +                          pin4 ,.direction = Direction_input};
  8520   003894  C054  F0F9         	movff	MSSP_SPI_Slave_Mode_GPIO_PIN_Configurations@F2874,MSSP_SPI_Slave_Mode_GPIO_PIN_Co
      +                          nfigurations@SPI_SDI
  8521   003898                     
  8522                           ;MCAL_Layer/SPI/hal_spi.c: 139:     Pin_Config_t SPI_SCK = {.port = PortC_Index ,.pin = 
      +                          pin3 ,.direction = Direction_input};
  8523   003898  C053  F0FB         	movff	MSSP_SPI_Slave_Mode_GPIO_PIN_Configurations@F2876,MSSP_SPI_Slave_Mode_GPIO_PIN_Co
      +                          nfigurations@SPI_SCK
  8524   00389C                     
  8525                           ;MCAL_Layer/SPI/hal_spi.c: 140:     Pin_Config_t SPI_SS = {.port = PortA_Index ,.pin = p
      +                          in5 ,.direction = Direction_input};
  8526   00389C  C052  F0FA         	movff	MSSP_SPI_Slave_Mode_GPIO_PIN_Configurations@F2878,MSSP_SPI_Slave_Mode_GPIO_PIN_Co
      +                          nfigurations@SPI_SS
  8527   0038A0  0EF8               	movlw	low MSSP_SPI_Slave_Mode_GPIO_PIN_Configurations@SPI_SDO
  8528   0038A2  0100               	movlb	0	; () banked
  8529   0038A4  6FEB               	movwf	GPIO_Pin_Direction_Intialize@_Pin_Config_& (0+255),b
  8530   0038A6  0E00               	movlw	high MSSP_SPI_Slave_Mode_GPIO_PIN_Configurations@SPI_SDO
  8531   0038A8  6FEC               	movwf	(GPIO_Pin_Direction_Intialize@_Pin_Config_+1)& (0+255),b
  8532   0038AA  EC4E  F014         	call	_GPIO_Pin_Direction_Intialize	;wreg free
  8533   0038AE  0EF9               	movlw	low MSSP_SPI_Slave_Mode_GPIO_PIN_Configurations@SPI_SDI
  8534   0038B0  0100               	movlb	0	; () banked
  8535   0038B2  6FEB               	movwf	GPIO_Pin_Direction_Intialize@_Pin_Config_& (0+255),b
  8536   0038B4  0E00               	movlw	high MSSP_SPI_Slave_Mode_GPIO_PIN_Configurations@SPI_SDI
  8537   0038B6  6FEC               	movwf	(GPIO_Pin_Direction_Intialize@_Pin_Config_+1)& (0+255),b
  8538   0038B8  EC4E  F014         	call	_GPIO_Pin_Direction_Intialize	;wreg free
  8539   0038BC  0EFB               	movlw	low MSSP_SPI_Slave_Mode_GPIO_PIN_Configurations@SPI_SCK
  8540   0038BE  0100               	movlb	0	; () banked
  8541   0038C0  6FEB               	movwf	GPIO_Pin_Direction_Intialize@_Pin_Config_& (0+255),b
  8542   0038C2  0E00               	movlw	high MSSP_SPI_Slave_Mode_GPIO_PIN_Configurations@SPI_SCK
  8543   0038C4  6FEC               	movwf	(GPIO_Pin_Direction_Intialize@_Pin_Config_+1)& (0+255),b
  8544   0038C6  EC4E  F014         	call	_GPIO_Pin_Direction_Intialize	;wreg free
  8545   0038CA  0EFB               	movlw	low MSSP_SPI_Slave_Mode_GPIO_PIN_Configurations@SPI_SCK
  8546   0038CC  0100               	movlb	0	; () banked
  8547   0038CE  6FEB               	movwf	GPIO_Pin_Direction_Intialize@_Pin_Config_& (0+255),b
  8548   0038D0  0E00               	movlw	high MSSP_SPI_Slave_Mode_GPIO_PIN_Configurations@SPI_SCK
  8549   0038D2  6FEC               	movwf	(GPIO_Pin_Direction_Intialize@_Pin_Config_+1)& (0+255),b
  8550   0038D4  EC4E  F014         	call	_GPIO_Pin_Direction_Intialize	;wreg free
  8551   0038D8                     
  8552                           ;MCAL_Layer/SPI/hal_spi.c: 147:      if(4 == _SPI_->spi_serial_clk_mod_select){
  8553   0038D8  C0F5  FFD9         	movff	MSSP_SPI_Slave_Mode_GPIO_PIN_Configurations@_SPI_,fsr2l
  8554   0038DC  C0F6  FFDA         	movff	MSSP_SPI_Slave_Mode_GPIO_PIN_Configurations@_SPI_+1,fsr2h
  8555   0038E0  0E04               	movlw	4
  8556   0038E2  18DE               	xorwf	postinc2,w,c
  8557   0038E4  A4D8               	btfss	status,2,c
  8558   0038E6  EF77  F01C         	goto	u7571
  8559   0038EA  EF79  F01C         	goto	u7570
  8560   0038EE                     u7571:
  8561   0038EE  EF80  F01C         	goto	l1312
  8562   0038F2                     u7570:
  8563   0038F2  0EFA               	movlw	low MSSP_SPI_Slave_Mode_GPIO_PIN_Configurations@SPI_SS
  8564   0038F4  0100               	movlb	0	; () banked
  8565   0038F6  6FEB               	movwf	GPIO_Pin_Direction_Intialize@_Pin_Config_& (0+255),b
  8566   0038F8  0E00               	movlw	high MSSP_SPI_Slave_Mode_GPIO_PIN_Configurations@SPI_SS
  8567   0038FA  6FEC               	movwf	(GPIO_Pin_Direction_Intialize@_Pin_Config_+1)& (0+255),b
  8568   0038FC  EC4E  F014         	call	_GPIO_Pin_Direction_Intialize	;wreg free
  8569   003900                     l1312:
  8570   003900  0012               	return		;funcret
  8571   003902                     __end_of_MSSP_SPI_Slave_Mode_GPIO_PIN_Configurations:
  8572                           	callstack 0
  8573                           
  8574 ;; *************** function _MSSP_SPI_Msster_Mode_GPIO_PIN_Configurations *****************
  8575 ;; Defined at:
  8576 ;;		line 122 in file "MCAL_Layer/SPI/hal_spi.c"
  8577 ;; Parameters:    Size  Location     Type
  8578 ;;		None
  8579 ;; Auto vars:     Size  Location     Type
  8580 ;;  ret             2    0        unsigned int 
  8581 ;;  SPI_SCK         1   12[BANK0 ] struct .
  8582 ;;  SPI_SDI         1   11[BANK0 ] struct .
  8583 ;;  SPI_SDO         1   10[BANK0 ] struct .
  8584 ;; Return value:  Size  Location     Type
  8585 ;;                  1    wreg      void 
  8586 ;; Registers used:
  8587 ;;		wreg, fsr2l, fsr2h, status,2, status,0, prodl, prodh, cstack
  8588 ;; Tracked objects:
  8589 ;;		On entry : 0/0
  8590 ;;		On exit  : 0/0
  8591 ;;		Unchanged: 0/0
  8592 ;; Data sizes:     COMRAM   BANK0   BANK1   BANK2   BANK3   BANK4   BANK5   BANK6   BANK7   BANK8   BANK9  BANK10  BANK1
      +1  BANK12  BANK13  BANK14  BANK15
  8593 ;;      Params:         0       0       0       0       0       0       0       0       0       0       0       0       
      +0       0       0       0       0
  8594 ;;      Locals:         0       3       0       0       0       0       0       0       0       0       0       0       
      +0       0       0       0       0
  8595 ;;      Temps:          0       0       0       0       0       0       0       0       0       0       0       0       
      +0       0       0       0       0
  8596 ;;      Totals:         0       3       0       0       0       0       0       0       0       0       0       0       
      +0       0       0       0       0
  8597 ;;Total ram usage:        3 bytes
  8598 ;; Hardware stack levels used: 1
  8599 ;; Hardware stack levels required when called: 9
  8600 ;; This function calls:
  8601 ;;		_GPIO_Pin_Direction_Intialize
  8602 ;; This function is called by:
  8603 ;;		_SPI_Init
  8604 ;; This function uses a non-reentrant model
  8605 ;;
  8606                           
  8607                           	psect	text17
  8608   003D20                     __ptext17:
  8609                           	callstack 0
  8610   003D20                     _MSSP_SPI_Msster_Mode_GPIO_PIN_Configurations:
  8611                           	callstack 19
  8612   003D20                     
  8613                           ;MCAL_Layer/SPI/hal_spi.c: 125:     Pin_Config_t SPI_SDO = {.port = PortC_Index ,.pin = 
      +                          pin5 ,.direction = Direction_Outpt};
  8614   003D20  C058  F0F5         	movff	MSSP_SPI_Msster_Mode_GPIO_PIN_Configurations@F2863,MSSP_SPI_Msster_Mode_GPIO_PIN_
      +                          Configurations@SPI_SDO
  8615   003D24                     
  8616                           ;MCAL_Layer/SPI/hal_spi.c: 126:     Pin_Config_t SPI_SDI = {.port = PortC_Index ,.pin = 
      +                          pin4 ,.direction = Direction_input};
  8617   003D24  C057  F0F6         	movff	MSSP_SPI_Msster_Mode_GPIO_PIN_Configurations@F2865,MSSP_SPI_Msster_Mode_GPIO_PIN_
      +                          Configurations@SPI_SDI
  8618   003D28                     
  8619                           ;MCAL_Layer/SPI/hal_spi.c: 127:     Pin_Config_t SPI_SCK = {.port = PortC_Index ,.pin = 
      +                          pin3 ,.direction = Direction_Outpt};
  8620   003D28  C056  F0F7         	movff	MSSP_SPI_Msster_Mode_GPIO_PIN_Configurations@F2867,MSSP_SPI_Msster_Mode_GPIO_PIN_
      +                          Configurations@SPI_SCK
  8621   003D2C  0EF5               	movlw	low MSSP_SPI_Msster_Mode_GPIO_PIN_Configurations@SPI_SDO
  8622   003D2E  0100               	movlb	0	; () banked
  8623   003D30  6FEB               	movwf	GPIO_Pin_Direction_Intialize@_Pin_Config_& (0+255),b
  8624   003D32  0E00               	movlw	high MSSP_SPI_Msster_Mode_GPIO_PIN_Configurations@SPI_SDO
  8625   003D34  6FEC               	movwf	(GPIO_Pin_Direction_Intialize@_Pin_Config_+1)& (0+255),b
  8626   003D36  EC4E  F014         	call	_GPIO_Pin_Direction_Intialize	;wreg free
  8627   003D3A  0EF6               	movlw	low MSSP_SPI_Msster_Mode_GPIO_PIN_Configurations@SPI_SDI
  8628   003D3C  0100               	movlb	0	; () banked
  8629   003D3E  6FEB               	movwf	GPIO_Pin_Direction_Intialize@_Pin_Config_& (0+255),b
  8630   003D40  0E00               	movlw	high MSSP_SPI_Msster_Mode_GPIO_PIN_Configurations@SPI_SDI
  8631   003D42  6FEC               	movwf	(GPIO_Pin_Direction_Intialize@_Pin_Config_+1)& (0+255),b
  8632   003D44  EC4E  F014         	call	_GPIO_Pin_Direction_Intialize	;wreg free
  8633   003D48  0EF7               	movlw	low MSSP_SPI_Msster_Mode_GPIO_PIN_Configurations@SPI_SCK
  8634   003D4A  0100               	movlb	0	; () banked
  8635   003D4C  6FEB               	movwf	GPIO_Pin_Direction_Intialize@_Pin_Config_& (0+255),b
  8636   003D4E  0E00               	movlw	high MSSP_SPI_Msster_Mode_GPIO_PIN_Configurations@SPI_SCK
  8637   003D50  6FEC               	movwf	(GPIO_Pin_Direction_Intialize@_Pin_Config_+1)& (0+255),b
  8638   003D52  EC4E  F014         	call	_GPIO_Pin_Direction_Intialize	;wreg free
  8639   003D56  0012               	return		;funcret
  8640   003D58                     __end_of_MSSP_SPI_Msster_Mode_GPIO_PIN_Configurations:
  8641                           	callstack 0
  8642                           
  8643 ;; *************** function _GPIO_Pin_Direction_Intialize *****************
  8644 ;; Defined at:
  8645 ;;		line 22 in file "MCAL_Layer/GPIO/hal_GPIO.c"
  8646 ;; Parameters:    Size  Location     Type
  8647 ;;  _Pin_Config_    2    0[BANK0 ] PTR const struct .
  8648 ;;		 -> MSSP_SPI_Slave_Mode_GPIO_PIN_Configurations@SPI_SS(1), MSSP_SPI_Slave_Mode_GPIO_PIN_Configurations@SPI_SCK(1), M
      +SSP_SPI_Slave_Mode_GPIO_PIN_Configurations@SPI_SDI(1), MSSP_SPI_Slave_Mode_GPIO_PIN_Configurations@SPI_SDO(1), 
  8649 ;;		 -> MSSP_SPI_Msster_Mode_GPIO_PIN_Configurations@SPI_SCK(1), MSSP_SPI_Msster_Mode_GPIO_PIN_Configurations@SPI_SDI(1)
      +, MSSP_SPI_Msster_Mode_GPIO_PIN_Configurations@SPI_SDO(1), lcd1.data_pin(4), 
  8650 ;;		 -> lcd1(6), key_pad1.Key_Pad_Coulmns(4), key_pad1.Key_Pad_Rows(4), key_pad1(8), 
  8651 ;;		 -> Relay_Intialize@_pin_config(1), Led_Intialize@_pin_config_(1), 
  8652 ;; Auto vars:     Size  Location     Type
  8653 ;;  ret             2    8[BANK0 ] unsigned int 
  8654 ;; Return value:  Size  Location     Type
  8655 ;;                  2    0[BANK0 ] unsigned int 
  8656 ;; Registers used:
  8657 ;;		wreg, fsr2l, fsr2h, status,2, status,0, prodl, prodh
  8658 ;; Tracked objects:
  8659 ;;		On entry : 0/0
  8660 ;;		On exit  : 0/0
  8661 ;;		Unchanged: 0/0
  8662 ;; Data sizes:     COMRAM   BANK0   BANK1   BANK2   BANK3   BANK4   BANK5   BANK6   BANK7   BANK8   BANK9  BANK10  BANK1
      +1  BANK12  BANK13  BANK14  BANK15
  8663 ;;      Params:         0       2       0       0       0       0       0       0       0       0       0       0       
      +0       0       0       0       0
  8664 ;;      Locals:         0       2       0       0       0       0       0       0       0       0       0       0       
      +0       0       0       0       0
  8665 ;;      Temps:          0       6       0       0       0       0       0       0       0       0       0       0       
      +0       0       0       0       0
  8666 ;;      Totals:         0      10       0       0       0       0       0       0       0       0       0       0       
      +0       0       0       0       0
  8667 ;;Total ram usage:       10 bytes
  8668 ;; Hardware stack levels used: 1
  8669 ;; Hardware stack levels required when called: 8
  8670 ;; This function calls:
  8671 ;;		Nothing
  8672 ;; This function is called by:
  8673 ;;		_GPIO_Pin_Intialize
  8674 ;;		_MSSP_SPI_Msster_Mode_GPIO_PIN_Configurations
  8675 ;;		_MSSP_SPI_Slave_Mode_GPIO_PIN_Configurations
  8676 ;;		_Button_Initialize
  8677 ;;		_Interrupt_INTX_Pin_Intiat
  8678 ;; This function uses a non-reentrant model
  8679 ;;
  8680                           
  8681                           	psect	text18
  8682   00289C                     __ptext18:
  8683                           	callstack 0
  8684   00289C                     _GPIO_Pin_Direction_Intialize:
  8685                           	callstack 18
  8686   00289C                     
  8687                           ;MCAL_Layer/GPIO/hal_GPIO.c: 22: Std_ReturnType GPIO_Pin_Direction_Intialize(const Pin_C
      +                          onfig_t *_Pin_Config_);MCAL_Layer/GPIO/hal_GPIO.c: 23: {;MCAL_Layer/GPIO/hal_GPIO.c: 24:
      +                               Std_ReturnType ret = (Std_ReturnType)0x01;
  8688   00289C  0E00               	movlw	0
  8689   00289E  0100               	movlb	0	; () banked
  8690   0028A0  6FF4               	movwf	(GPIO_Pin_Direction_Intialize@ret+1)& (0+255),b
  8691   0028A2  0E01               	movlw	1
  8692   0028A4  6FF3               	movwf	GPIO_Pin_Direction_Intialize@ret& (0+255),b
  8693   0028A6                     
  8694                           ; BSR set to: 0
  8695                           ;MCAL_Layer/GPIO/hal_GPIO.c: 25:     if(_Pin_Config_ == ((void*)0) || _Pin_Config_-> pin
      +                           > (uint8)8 -1)
  8696   0028A6  51EB               	movf	GPIO_Pin_Direction_Intialize@_Pin_Config_& (0+255),w,b
  8697   0028A8  11EC               	iorwf	(GPIO_Pin_Direction_Intialize@_Pin_Config_+1)& (0+255),w,b
  8698   0028AA  B4D8               	btfsc	status,2,c
  8699   0028AC  EF5A  F014         	goto	u7351
  8700   0028B0  EF5C  F014         	goto	u7350
  8701   0028B4                     u7351:
  8702   0028B4  EF6D  F014         	goto	l9021
  8703   0028B8                     u7350:
  8704   0028B8                     
  8705                           ; BSR set to: 0
  8706   0028B8  C0EB  FFD9         	movff	GPIO_Pin_Direction_Intialize@_Pin_Config_,fsr2l
  8707   0028BC  C0EC  FFDA         	movff	GPIO_Pin_Direction_Intialize@_Pin_Config_+1,fsr2h
  8708   0028C0  30DF               	rrcf	223,w,c
  8709   0028C2  32E8               	rrcf	wreg,f,c
  8710   0028C4  32E8               	rrcf	wreg,f,c
  8711   0028C6  0B07               	andlw	7
  8712   0028C8  6FED               	movwf	??_GPIO_Pin_Direction_Intialize& (0+255),b
  8713   0028CA  0E07               	movlw	7
  8714   0028CC  65ED               	cpfsgt	??_GPIO_Pin_Direction_Intialize& (0+255),b
  8715   0028CE  EF6B  F014         	goto	u7361
  8716   0028D2  EF6D  F014         	goto	u7360
  8717   0028D6                     u7361:
  8718   0028D6  EFD4  F014         	goto	l9029
  8719   0028DA                     u7360:
  8720   0028DA                     l9021:
  8721                           
  8722                           ; BSR set to: 0
  8723                           ;MCAL_Layer/GPIO/hal_GPIO.c: 26:     {;MCAL_Layer/GPIO/hal_GPIO.c: 27:         ret = (St
      +                          d_ReturnType)0x00 ;
  8724   0028DA  0E00               	movlw	0
  8725   0028DC  6FF4               	movwf	(GPIO_Pin_Direction_Intialize@ret+1)& (0+255),b
  8726   0028DE  0E00               	movlw	0
  8727   0028E0  6FF3               	movwf	GPIO_Pin_Direction_Intialize@ret& (0+255),b
  8728                           
  8729                           ;MCAL_Layer/GPIO/hal_GPIO.c: 28:     }
  8730   0028E2  EFF5  F014         	goto	l676
  8731   0028E6                     l9023:
  8732                           
  8733                           ; BSR set to: 0
  8734                           ;MCAL_Layer/GPIO/hal_GPIO.c: 34:                 (*Tris_Reg[_Pin_Config_->port]&= ~((uin
      +                          t8)1 <<_Pin_Config_->pin));
  8735   0028E6  C0EB  FFD9         	movff	GPIO_Pin_Direction_Intialize@_Pin_Config_,fsr2l
  8736   0028EA  C0EC  FFDA         	movff	GPIO_Pin_Direction_Intialize@_Pin_Config_+1,fsr2h
  8737   0028EE  30DF               	rrcf	223,w,c
  8738   0028F0  32E8               	rrcf	wreg,f,c
  8739   0028F2  32E8               	rrcf	wreg,f,c
  8740   0028F4  0B07               	andlw	7
  8741   0028F6  6FED               	movwf	??_GPIO_Pin_Direction_Intialize& (0+255),b
  8742   0028F8  0E01               	movlw	1
  8743   0028FA  6FEE               	movwf	(??_GPIO_Pin_Direction_Intialize+1)& (0+255),b
  8744   0028FC  2BED               	incf	??_GPIO_Pin_Direction_Intialize& (0+255),f,b
  8745   0028FE  EF83  F014         	goto	u7374
  8746   002902                     u7375:
  8747   002902  90D8               	bcf	status,0,c
  8748   002904  37EE               	rlcf	(??_GPIO_Pin_Direction_Intialize+1)& (0+255),f,b
  8749   002906                     u7374:
  8750   002906  2FED               	decfsz	??_GPIO_Pin_Direction_Intialize& (0+255),f,b
  8751   002908  EF81  F014         	goto	u7375
  8752   00290C  0100               	movlb	0	; () banked
  8753   00290E  51EE               	movf	(??_GPIO_Pin_Direction_Intialize+1)& (0+255),w,b
  8754   002910  0AFF               	xorlw	255
  8755   002912  6FEF               	movwf	(??_GPIO_Pin_Direction_Intialize+2)& (0+255),b
  8756   002914  C0EB  FFD9         	movff	GPIO_Pin_Direction_Intialize@_Pin_Config_,fsr2l
  8757   002918  C0EC  FFDA         	movff	GPIO_Pin_Direction_Intialize@_Pin_Config_+1,fsr2h
  8758   00291C  50DF               	movf	223,w,c
  8759   00291E  0B07               	andlw	7
  8760   002920  6FF0               	movwf	(??_GPIO_Pin_Direction_Intialize+3)& (0+255),b
  8761   002922  51F0               	movf	(??_GPIO_Pin_Direction_Intialize+3)& (0+255),w,b
  8762   002924  0D02               	mullw	2
  8763   002926  0E94               	movlw	low _Tris_Reg
  8764   002928  24F3               	addwf	243,w,c
  8765   00292A  6ED9               	movwf	fsr2l,c
  8766   00292C  0E00               	movlw	high _Tris_Reg
  8767   00292E  20F4               	addwfc	prodh,w,c
  8768   002930  6EDA               	movwf	fsr2h,c
  8769   002932  CFDE F0F1          	movff	postinc2,??_GPIO_Pin_Direction_Intialize+4
  8770   002936  CFDD F0F2          	movff	postdec2,??_GPIO_Pin_Direction_Intialize+5
  8771   00293A  C0F1  FFD9         	movff	??_GPIO_Pin_Direction_Intialize+4,fsr2l
  8772   00293E  C0F2  FFDA         	movff	??_GPIO_Pin_Direction_Intialize+5,fsr2h
  8773   002942  51EF               	movf	(??_GPIO_Pin_Direction_Intialize+2)& (0+255),w,b
  8774   002944  16DF               	andwf	indf2,f,c
  8775                           
  8776                           ;MCAL_Layer/GPIO/hal_GPIO.c: 35:                 break;
  8777   002946  EFF5  F014         	goto	l676
  8778   00294A                     l9025:
  8779                           
  8780                           ; BSR set to: 0
  8781                           ;MCAL_Layer/GPIO/hal_GPIO.c: 37:                 (*Tris_Reg[_Pin_Config_->port]|=((uint8
      +                          )1 <<_Pin_Config_->pin));
  8782   00294A  C0EB  FFD9         	movff	GPIO_Pin_Direction_Intialize@_Pin_Config_,fsr2l
  8783   00294E  C0EC  FFDA         	movff	GPIO_Pin_Direction_Intialize@_Pin_Config_+1,fsr2h
  8784   002952  30DF               	rrcf	223,w,c
  8785   002954  32E8               	rrcf	wreg,f,c
  8786   002956  32E8               	rrcf	wreg,f,c
  8787   002958  0B07               	andlw	7
  8788   00295A  6FED               	movwf	??_GPIO_Pin_Direction_Intialize& (0+255),b
  8789   00295C  0E01               	movlw	1
  8790   00295E  6FEE               	movwf	(??_GPIO_Pin_Direction_Intialize+1)& (0+255),b
  8791   002960  2BED               	incf	??_GPIO_Pin_Direction_Intialize& (0+255),f,b
  8792   002962  EFB5  F014         	goto	u7384
  8793   002966                     u7385:
  8794   002966  90D8               	bcf	status,0,c
  8795   002968  37EE               	rlcf	(??_GPIO_Pin_Direction_Intialize+1)& (0+255),f,b
  8796   00296A                     u7384:
  8797   00296A  2FED               	decfsz	??_GPIO_Pin_Direction_Intialize& (0+255),f,b
  8798   00296C  EFB3  F014         	goto	u7385
  8799   002970  C0EB  FFD9         	movff	GPIO_Pin_Direction_Intialize@_Pin_Config_,fsr2l
  8800   002974  C0EC  FFDA         	movff	GPIO_Pin_Direction_Intialize@_Pin_Config_+1,fsr2h
  8801   002978  50DF               	movf	223,w,c
  8802   00297A  0B07               	andlw	7
  8803   00297C  0100               	movlb	0	; () banked
  8804   00297E  6FEF               	movwf	(??_GPIO_Pin_Direction_Intialize+2)& (0+255),b
  8805   002980  51EF               	movf	(??_GPIO_Pin_Direction_Intialize+2)& (0+255),w,b
  8806   002982  0D02               	mullw	2
  8807   002984  0E94               	movlw	low _Tris_Reg
  8808   002986  24F3               	addwf	243,w,c
  8809   002988  6ED9               	movwf	fsr2l,c
  8810   00298A  0E00               	movlw	high _Tris_Reg
  8811   00298C  20F4               	addwfc	prodh,w,c
  8812   00298E  6EDA               	movwf	fsr2h,c
  8813   002990  CFDE F0F0          	movff	postinc2,??_GPIO_Pin_Direction_Intialize+3
  8814   002994  CFDD F0F1          	movff	postdec2,??_GPIO_Pin_Direction_Intialize+4
  8815   002998  C0F0  FFD9         	movff	??_GPIO_Pin_Direction_Intialize+3,fsr2l
  8816   00299C  C0F1  FFDA         	movff	??_GPIO_Pin_Direction_Intialize+4,fsr2h
  8817   0029A0  51EE               	movf	(??_GPIO_Pin_Direction_Intialize+1)& (0+255),w,b
  8818   0029A2  12DF               	iorwf	indf2,f,c
  8819                           
  8820                           ;MCAL_Layer/GPIO/hal_GPIO.c: 38:                 break;
  8821   0029A4  EFF5  F014         	goto	l676
  8822   0029A8                     l9029:
  8823                           
  8824                           ; BSR set to: 0
  8825   0029A8  C0EB  FFD9         	movff	GPIO_Pin_Direction_Intialize@_Pin_Config_,fsr2l
  8826   0029AC  C0EC  FFDA         	movff	GPIO_Pin_Direction_Intialize@_Pin_Config_+1,fsr2h
  8827   0029B0  BCDF               	btfsc	indf2,6,c
  8828   0029B2  EFDD  F014         	goto	u7391
  8829   0029B6  EFE0  F014         	goto	u7390
  8830   0029BA                     u7391:
  8831   0029BA  0E01               	movlw	1
  8832   0029BC  EFE1  F014         	goto	u7400
  8833   0029C0                     u7390:
  8834   0029C0  0E00               	movlw	0
  8835   0029C2                     u7400:
  8836   0029C2  6FED               	movwf	??_GPIO_Pin_Direction_Intialize& (0+255),b
  8837   0029C4  6BEE               	clrf	(??_GPIO_Pin_Direction_Intialize+1)& (0+255),b
  8838                           
  8839                           ; Switch on 2 bytes has been partitioned into a top level switch of size 1, and 1 sub-sw
      +                          itches
  8840                           ; Switch size 1, requested type "simple"
  8841                           ; Number of cases is 1, Range of values is 0 to 0
  8842                           ; switch strategies available:
  8843                           ; Name         Instructions Cycles
  8844                           ; simple_byte            4     3 (average)
  8845                           ;	Chosen strategy is simple_byte
  8846   0029C6  51EE               	movf	(??_GPIO_Pin_Direction_Intialize+1)& (0+255),w,b
  8847   0029C8  0A00               	xorlw	0	; case 0
  8848   0029CA  B4D8               	btfsc	status,2,c
  8849   0029CC  EFEA  F014         	goto	l11433
  8850   0029D0  EF6D  F014         	goto	l9021
  8851   0029D4                     l11433:
  8852                           
  8853                           ; BSR set to: 0
  8854                           ; Switch size 1, requested type "simple"
  8855                           ; Number of cases is 2, Range of values is 0 to 1
  8856                           ; switch strategies available:
  8857                           ; Name         Instructions Cycles
  8858                           ; simple_byte            7     4 (average)
  8859                           ;	Chosen strategy is simple_byte
  8860   0029D4  51ED               	movf	??_GPIO_Pin_Direction_Intialize& (0+255),w,b
  8861   0029D6  0A00               	xorlw	0	; case 0
  8862   0029D8  B4D8               	btfsc	status,2,c
  8863   0029DA  EF73  F014         	goto	l9023
  8864   0029DE  0A01               	xorlw	1	; case 1
  8865   0029E0  B4D8               	btfsc	status,2,c
  8866   0029E2  EFA5  F014         	goto	l9025
  8867   0029E6  EF6D  F014         	goto	l9021
  8868   0029EA                     l676:
  8869                           
  8870                           ; BSR set to: 0
  8871                           ;MCAL_Layer/GPIO/hal_GPIO.c: 42:     return ret;
  8872   0029EA  C0F3  F0EB         	movff	GPIO_Pin_Direction_Intialize@ret,?_GPIO_Pin_Direction_Intialize
  8873   0029EE  C0F4  F0EC         	movff	GPIO_Pin_Direction_Intialize@ret+1,?_GPIO_Pin_Direction_Intialize+1
  8874   0029F2                     
  8875                           ; BSR set to: 0
  8876   0029F2  0012               	return		;funcret
  8877   0029F4                     __end_of_GPIO_Pin_Direction_Intialize:
  8878                           	callstack 0
  8879                           
  8880 ;; *************** function _Timer0_Intialization *****************
  8881 ;; Defined at:
  8882 ;;		line 18 in file "MCAL_Layer/Timer0/mcal_timer0.c"
  8883 ;; Parameters:    Size  Location     Type
  8884 ;;  timer0_         2    3[BANK0 ] PTR const struct .
  8885 ;;		 -> timer0(6), 
  8886 ;; Auto vars:     Size  Location     Type
  8887 ;;  ret             2    7[BANK0 ] unsigned int 
  8888 ;; Return value:  Size  Location     Type
  8889 ;;                  2    3[BANK0 ] unsigned int 
  8890 ;; Registers used:
  8891 ;;		wreg, fsr2l, fsr2h, status,2, status,0, cstack
  8892 ;; Tracked objects:
  8893 ;;		On entry : 0/0
  8894 ;;		On exit  : 0/0
  8895 ;;		Unchanged: 0/0
  8896 ;; Data sizes:     COMRAM   BANK0   BANK1   BANK2   BANK3   BANK4   BANK5   BANK6   BANK7   BANK8   BANK9  BANK10  BANK1
      +1  BANK12  BANK13  BANK14  BANK15
  8897 ;;      Params:         0       2       0       0       0       0       0       0       0       0       0       0       
      +0       0       0       0       0
  8898 ;;      Locals:         0       2       0       0       0       0       0       0       0       0       0       0       
      +0       0       0       0       0
  8899 ;;      Temps:          0       2       0       0       0       0       0       0       0       0       0       0       
      +0       0       0       0       0
  8900 ;;      Totals:         0       6       0       0       0       0       0       0       0       0       0       0       
      +0       0       0       0       0
  8901 ;;Total ram usage:        6 bytes
  8902 ;; Hardware stack levels used: 1
  8903 ;; Hardware stack levels required when called: 9
  8904 ;; This function calls:
  8905 ;;		_Timer0_Bit_Mode_Select
  8906 ;;		_Timer0_Mode_Select
  8907 ;;		_Timer0_Prescaler_Config
  8908 ;; This function is called by:
  8909 ;;		_main
  8910 ;; This function uses a non-reentrant model
  8911 ;;
  8912                           
  8913                           	psect	text19
  8914   00314C                     __ptext19:
  8915                           	callstack 0
  8916   00314C                     _Timer0_Intialization:
  8917                           	callstack 21
  8918   00314C                     
  8919                           ;MCAL_Layer/Timer0/mcal_timer0.c: 18: Std_ReturnType Timer0_Intialization(const Timer0_c
      +                          onf_t *timer0_);MCAL_Layer/Timer0/mcal_timer0.c: 19: {;MCAL_Layer/Timer0/mcal_timer0.c: 
      +                          20:     Std_ReturnType ret = (Std_ReturnType)0x01 ;
  8920   00314C  0E00               	movlw	0
  8921   00314E  0100               	movlb	0	; () banked
  8922   003150  6FF3               	movwf	(Timer0_Intialization@ret+1)& (0+255),b
  8923   003152  0E01               	movlw	1
  8924   003154  6FF2               	movwf	Timer0_Intialization@ret& (0+255),b
  8925   003156                     
  8926                           ; BSR set to: 0
  8927                           ;MCAL_Layer/Timer0/mcal_timer0.c: 21:     if(((void*)0) == timer0_ )
  8928   003156  51EE               	movf	Timer0_Intialization@timer0_& (0+255),w,b
  8929   003158  11EF               	iorwf	(Timer0_Intialization@timer0_+1)& (0+255),w,b
  8930   00315A  A4D8               	btfss	status,2,c
  8931   00315C  EFB2  F018         	goto	u8031
  8932   003160  EFB4  F018         	goto	u8030
  8933   003164                     u8031:
  8934   003164  EFBA  F018         	goto	l1339
  8935   003168                     u8030:
  8936   003168                     
  8937                           ; BSR set to: 0
  8938                           ;MCAL_Layer/Timer0/mcal_timer0.c: 22:     {;MCAL_Layer/Timer0/mcal_timer0.c: 23:        
      +                           ret = (Std_ReturnType)0x00;
  8939   003168  0E00               	movlw	0
  8940   00316A  6FF3               	movwf	(Timer0_Intialization@ret+1)& (0+255),b
  8941   00316C  0E00               	movlw	0
  8942   00316E  6FF2               	movwf	Timer0_Intialization@ret& (0+255),b
  8943                           
  8944                           ;MCAL_Layer/Timer0/mcal_timer0.c: 24:     }
  8945   003170  EFFC  F018         	goto	l9625
  8946   003174                     l1339:
  8947                           
  8948                           ; BSR set to: 0
  8949                           ;MCAL_Layer/Timer0/mcal_timer0.c: 26:     {;MCAL_Layer/Timer0/mcal_timer0.c: 28:        
      +                           (T0CONbits.TMR0ON = 0);
  8950   003174  9ED5               	bcf	213,7,c	;volatile
  8951   003176                     
  8952                           ; BSR set to: 0
  8953                           ;MCAL_Layer/Timer0/mcal_timer0.c: 30:         Timer0_Prescaler_Config(timer0_);
  8954   003176  C0EE  F0EB         	movff	Timer0_Intialization@timer0_,Timer0_Prescaler_Config@timer0_
  8955   00317A  C0EF  F0EC         	movff	Timer0_Intialization@timer0_+1,Timer0_Prescaler_Config@timer0_+1
  8956   00317E  EC83  F01D         	call	_Timer0_Prescaler_Config	;wreg free
  8957                           
  8958                           ;MCAL_Layer/Timer0/mcal_timer0.c: 32:         Timer0_Mode_Select(timer0_);
  8959   003182  C0EE  F0EB         	movff	Timer0_Intialization@timer0_,Timer0_Mode_Select@timer0_
  8960   003186  C0EF  F0EC         	movff	Timer0_Intialization@timer0_+1,Timer0_Mode_Select@timer0_+1
  8961   00318A  EC48  F018         	call	_Timer0_Mode_Select	;wreg free
  8962                           
  8963                           ;MCAL_Layer/Timer0/mcal_timer0.c: 34:         Timer0_Bit_Mode_Select(timer0_);
  8964   00318E  C0EE  F0EB         	movff	Timer0_Intialization@timer0_,Timer0_Bit_Mode_Select@timer0_
  8965   003192  C0EF  F0EC         	movff	Timer0_Intialization@timer0_+1,Timer0_Bit_Mode_Select@timer0_+1
  8966   003196  EC53  F01E         	call	_Timer0_Bit_Mode_Select	;wreg free
  8967   00319A                     
  8968                           ;MCAL_Layer/Timer0/mcal_timer0.c: 36:         TMR0H = ((timer0_->TIMER0_PRE_LOAD_VALUE)>
      +                          >8);
  8969   00319A  0100               	movlb	0	; () banked
  8970   00319C  EE20 F003          	lfsr	2,3
  8971   0031A0  51EE               	movf	Timer0_Intialization@timer0_& (0+255),w,b
  8972   0031A2  26D9               	addwf	fsr2l,f,c
  8973   0031A4  51EF               	movf	(Timer0_Intialization@timer0_+1)& (0+255),w,b
  8974   0031A6  22DA               	addwfc	fsr2h,f,c
  8975   0031A8  CFDE F0F0          	movff	postinc2,??_Timer0_Intialization
  8976   0031AC  CFDD F0F1          	movff	postdec2,??_Timer0_Intialization+1
  8977   0031B0  C0F1  F0F0         	movff	??_Timer0_Intialization+1,??_Timer0_Intialization
  8978   0031B4  6BF1               	clrf	(??_Timer0_Intialization+1)& (0+255),b
  8979   0031B6  51F0               	movf	??_Timer0_Intialization& (0+255),w,b
  8980   0031B8  6ED7               	movwf	215,c	;volatile
  8981   0031BA                     
  8982                           ; BSR set to: 0
  8983                           ;MCAL_Layer/Timer0/mcal_timer0.c: 37:         TMR0L = (uint8)(timer0_->TIMER0_PRE_LOAD_V
      +                          ALUE);
  8984   0031BA  EE20 F003          	lfsr	2,3
  8985   0031BE  51EE               	movf	Timer0_Intialization@timer0_& (0+255),w,b
  8986   0031C0  26D9               	addwf	fsr2l,f,c
  8987   0031C2  51EF               	movf	(Timer0_Intialization@timer0_+1)& (0+255),w,b
  8988   0031C4  22DA               	addwfc	fsr2h,f,c
  8989   0031C6  50DF               	movf	indf2,w,c
  8990   0031C8  6ED6               	movwf	214,c	;volatile
  8991   0031CA                     
  8992                           ; BSR set to: 0
  8993                           ;MCAL_Layer/Timer0/mcal_timer0.c: 38:         pre_load = timer0_->TIMER0_PRE_LOAD_VALUE;
  8994   0031CA  EE20 F003          	lfsr	2,3
  8995   0031CE  51EE               	movf	Timer0_Intialization@timer0_& (0+255),w,b
  8996   0031D0  26D9               	addwf	fsr2l,f,c
  8997   0031D2  51EF               	movf	(Timer0_Intialization@timer0_+1)& (0+255),w,b
  8998   0031D4  22DA               	addwfc	fsr2h,f,c
  8999   0031D6  CFDE F039          	movff	postinc2,_pre_load	;volatile
  9000   0031DA  CFDD F03A          	movff	postdec2,_pre_load+1	;volatile
  9001   0031DE                     
  9002                           ; BSR set to: 0
  9003                           ;MCAL_Layer/Timer0/mcal_timer0.c: 42:         (INTCONbits.TMR0IE = 1);
  9004   0031DE  8AF2               	bsf	242,5,c	;volatile
  9005   0031E0                     
  9006                           ; BSR set to: 0
  9007                           ;MCAL_Layer/Timer0/mcal_timer0.c: 44:         (INTCONbits.TMR0IF = 0);
  9008   0031E0  94F2               	bcf	242,2,c	;volatile
  9009   0031E2                     
  9010                           ; BSR set to: 0
  9011                           ;MCAL_Layer/Timer0/mcal_timer0.c: 46:         TIMER0_IntterruptHandeler = timer0_->TIMER
      +                          0_IntterruptHandeler;
  9012   0031E2  C0EE  FFD9         	movff	Timer0_Intialization@timer0_,fsr2l
  9013   0031E6  C0EF  FFDA         	movff	Timer0_Intialization@timer0_+1,fsr2h
  9014   0031EA  CFDE F03B          	movff	postinc2,_TIMER0_IntterruptHandeler
  9015   0031EE  CFDD F03C          	movff	postdec2,_TIMER0_IntterruptHandeler+1
  9016   0031F2                     
  9017                           ; BSR set to: 0
  9018                           ;MCAL_Layer/Timer0/mcal_timer0.c: 60:         (INTCONbits.GIE = 1);
  9019   0031F2  8EF2               	bsf	242,7,c	;volatile
  9020   0031F4                     
  9021                           ; BSR set to: 0
  9022                           ;MCAL_Layer/Timer0/mcal_timer0.c: 61:         (INTCONbits.PEIE = 1);
  9023   0031F4  8CF2               	bsf	242,6,c	;volatile
  9024   0031F6                     
  9025                           ; BSR set to: 0
  9026                           ;MCAL_Layer/Timer0/mcal_timer0.c: 65:         (T0CONbits.TMR0ON = 1);
  9027   0031F6  8ED5               	bsf	213,7,c	;volatile
  9028   0031F8                     l9625:
  9029                           
  9030                           ; BSR set to: 0
  9031                           ;MCAL_Layer/Timer0/mcal_timer0.c: 67:     return ret;
  9032   0031F8  C0F2  F0EE         	movff	Timer0_Intialization@ret,?_Timer0_Intialization
  9033   0031FC  C0F3  F0EF         	movff	Timer0_Intialization@ret+1,?_Timer0_Intialization+1
  9034   003200                     
  9035                           ; BSR set to: 0
  9036   003200  0012               	return		;funcret
  9037   003202                     __end_of_Timer0_Intialization:
  9038                           	callstack 0
  9039                           
  9040 ;; *************** function _Timer0_Prescaler_Config *****************
  9041 ;; Defined at:
  9042 ;;		line 125 in file "MCAL_Layer/Timer0/mcal_timer0.c"
  9043 ;; Parameters:    Size  Location     Type
  9044 ;;  timer0_         2    0[BANK0 ] PTR const struct .
  9045 ;;		 -> timer0(6), 
  9046 ;; Auto vars:     Size  Location     Type
  9047 ;;		None
  9048 ;; Return value:  Size  Location     Type
  9049 ;;                  1    wreg      void 
  9050 ;; Registers used:
  9051 ;;		wreg, fsr2l, fsr2h, status,2, status,0
  9052 ;; Tracked objects:
  9053 ;;		On entry : 0/0
  9054 ;;		On exit  : 0/0
  9055 ;;		Unchanged: 0/0
  9056 ;; Data sizes:     COMRAM   BANK0   BANK1   BANK2   BANK3   BANK4   BANK5   BANK6   BANK7   BANK8   BANK9  BANK10  BANK1
      +1  BANK12  BANK13  BANK14  BANK15
  9057 ;;      Params:         0       2       0       0       0       0       0       0       0       0       0       0       
      +0       0       0       0       0
  9058 ;;      Locals:         0       0       0       0       0       0       0       0       0       0       0       0       
      +0       0       0       0       0
  9059 ;;      Temps:          0       1       0       0       0       0       0       0       0       0       0       0       
      +0       0       0       0       0
  9060 ;;      Totals:         0       3       0       0       0       0       0       0       0       0       0       0       
      +0       0       0       0       0
  9061 ;;Total ram usage:        3 bytes
  9062 ;; Hardware stack levels used: 1
  9063 ;; Hardware stack levels required when called: 8
  9064 ;; This function calls:
  9065 ;;		Nothing
  9066 ;; This function is called by:
  9067 ;;		_Timer0_Intialization
  9068 ;; This function uses a non-reentrant model
  9069 ;;
  9070                           
  9071                           	psect	text20
  9072   003B06                     __ptext20:
  9073                           	callstack 0
  9074   003B06                     _Timer0_Prescaler_Config:
  9075                           	callstack 21
  9076   003B06                     
  9077                           ;MCAL_Layer/Timer0/mcal_timer0.c: 125: static void Timer0_Prescaler_Config(const Timer0_
      +                          conf_t *timer0_);MCAL_Layer/Timer0/mcal_timer0.c: 126: {;MCAL_Layer/Timer0/mcal_timer0.c
      +                          : 127:     if(0 == timer0_->TIMER0_PRESCALER_STATUS)
  9078   003B06  0100               	movlb	0	; () banked
  9079   003B08  EE20 F005          	lfsr	2,5
  9080   003B0C  51EB               	movf	Timer0_Prescaler_Config@timer0_& (0+255),w,b
  9081   003B0E  26D9               	addwf	fsr2l,f,c
  9082   003B10  51EC               	movf	(Timer0_Prescaler_Config@timer0_+1)& (0+255),w,b
  9083   003B12  22DA               	addwfc	fsr2h,f,c
  9084   003B14  B0DF               	btfsc	indf2,0,c
  9085   003B16  EF8F  F01D         	goto	u7741
  9086   003B1A  EF91  F01D         	goto	u7740
  9087   003B1E                     u7741:
  9088   003B1E  EFA1  F01D         	goto	l9379
  9089   003B22                     u7740:
  9090   003B22                     
  9091                           ; BSR set to: 0
  9092                           ;MCAL_Layer/Timer0/mcal_timer0.c: 128:     {;MCAL_Layer/Timer0/mcal_timer0.c: 129:      
      +                             (T0CONbits.PSA = 0);
  9093   003B22  96D5               	bcf	213,3,c	;volatile
  9094   003B24                     
  9095                           ; BSR set to: 0
  9096                           ;MCAL_Layer/Timer0/mcal_timer0.c: 130:         T0CONbits.T0PS = timer0_->Prescaler_Selec
      +                          t;
  9097   003B24  EE20 F002          	lfsr	2,2
  9098   003B28  51EB               	movf	Timer0_Prescaler_Config@timer0_& (0+255),w,b
  9099   003B2A  26D9               	addwf	fsr2l,f,c
  9100   003B2C  51EC               	movf	(Timer0_Prescaler_Config@timer0_+1)& (0+255),w,b
  9101   003B2E  22DA               	addwfc	fsr2h,f,c
  9102   003B30  50DF               	movf	indf2,w,c
  9103   003B32  6FED               	movwf	??_Timer0_Prescaler_Config& (0+255),b
  9104   003B34  50D5               	movf	213,w,c	;volatile
  9105   003B36  19ED               	xorwf	??_Timer0_Prescaler_Config& (0+255),w,b
  9106   003B38  0BF8               	andlw	-8
  9107   003B3A  19ED               	xorwf	??_Timer0_Prescaler_Config& (0+255),w,b
  9108   003B3C  6ED5               	movwf	213,c	;volatile
  9109                           
  9110                           ;MCAL_Layer/Timer0/mcal_timer0.c: 131:     }
  9111   003B3E  EFAF  F01D         	goto	l1363
  9112   003B42                     l9379:
  9113                           
  9114                           ; BSR set to: 0
  9115   003B42  EE20 F005          	lfsr	2,5
  9116   003B46  51EB               	movf	Timer0_Prescaler_Config@timer0_& (0+255),w,b
  9117   003B48  26D9               	addwf	fsr2l,f,c
  9118   003B4A  51EC               	movf	(Timer0_Prescaler_Config@timer0_+1)& (0+255),w,b
  9119   003B4C  22DA               	addwfc	fsr2h,f,c
  9120   003B4E  A0DF               	btfss	indf2,0,c
  9121   003B50  EFAC  F01D         	goto	u7751
  9122   003B54  EFAE  F01D         	goto	u7750
  9123   003B58                     u7751:
  9124   003B58  EFAF  F01D         	goto	l1363
  9125   003B5C                     u7750:
  9126   003B5C                     
  9127                           ; BSR set to: 0
  9128                           ;MCAL_Layer/Timer0/mcal_timer0.c: 133:     {;MCAL_Layer/Timer0/mcal_timer0.c: 134:      
      +                             (T0CONbits.PSA = 1);
  9129   003B5C  86D5               	bsf	213,3,c	;volatile
  9130   003B5E                     l1363:
  9131                           
  9132                           ; BSR set to: 0
  9133   003B5E  0012               	return		;funcret
  9134   003B60                     __end_of_Timer0_Prescaler_Config:
  9135                           	callstack 0
  9136                           
  9137 ;; *************** function _Timer0_Mode_Select *****************
  9138 ;; Defined at:
  9139 ;;		line 139 in file "MCAL_Layer/Timer0/mcal_timer0.c"
  9140 ;; Parameters:    Size  Location     Type
  9141 ;;  timer0_         2    0[BANK0 ] PTR const struct .
  9142 ;;		 -> timer0(6), 
  9143 ;; Auto vars:     Size  Location     Type
  9144 ;;		None
  9145 ;; Return value:  Size  Location     Type
  9146 ;;                  1    wreg      void 
  9147 ;; Registers used:
  9148 ;;		wreg, fsr2l, fsr2h, status,2, status,0
  9149 ;; Tracked objects:
  9150 ;;		On entry : 0/0
  9151 ;;		On exit  : 0/0
  9152 ;;		Unchanged: 0/0
  9153 ;; Data sizes:     COMRAM   BANK0   BANK1   BANK2   BANK3   BANK4   BANK5   BANK6   BANK7   BANK8   BANK9  BANK10  BANK1
      +1  BANK12  BANK13  BANK14  BANK15
  9154 ;;      Params:         0       2       0       0       0       0       0       0       0       0       0       0       
      +0       0       0       0       0
  9155 ;;      Locals:         0       0       0       0       0       0       0       0       0       0       0       0       
      +0       0       0       0       0
  9156 ;;      Temps:          0       0       0       0       0       0       0       0       0       0       0       0       
      +0       0       0       0       0
  9157 ;;      Totals:         0       2       0       0       0       0       0       0       0       0       0       0       
      +0       0       0       0       0
  9158 ;;Total ram usage:        2 bytes
  9159 ;; Hardware stack levels used: 1
  9160 ;; Hardware stack levels required when called: 8
  9161 ;; This function calls:
  9162 ;;		Nothing
  9163 ;; This function is called by:
  9164 ;;		_Timer0_Intialization
  9165 ;; This function uses a non-reentrant model
  9166 ;;
  9167                           
  9168                           	psect	text21
  9169   003090                     __ptext21:
  9170                           	callstack 0
  9171   003090                     _Timer0_Mode_Select:
  9172                           	callstack 21
  9173   003090                     
  9174                           ;MCAL_Layer/Timer0/mcal_timer0.c: 139: static void Timer0_Mode_Select(const Timer0_conf_
      +                          t *timer0_);MCAL_Layer/Timer0/mcal_timer0.c: 140: {;MCAL_Layer/Timer0/mcal_timer0.c: 141
      +                          :     if(0 == timer0_->Timer0_Mode)
  9175   003090  0100               	movlb	0	; () banked
  9176   003092  EE20 F005          	lfsr	2,5
  9177   003096  51EB               	movf	Timer0_Mode_Select@timer0_& (0+255),w,b
  9178   003098  26D9               	addwf	fsr2l,f,c
  9179   00309A  51EC               	movf	(Timer0_Mode_Select@timer0_+1)& (0+255),w,b
  9180   00309C  22DA               	addwfc	fsr2h,f,c
  9181   00309E  B4DF               	btfsc	indf2,2,c
  9182   0030A0  EF54  F018         	goto	u7761
  9183   0030A4  EF56  F018         	goto	u7760
  9184   0030A8                     u7761:
  9185   0030A8  EF79  F018         	goto	l9395
  9186   0030AC                     u7760:
  9187   0030AC                     
  9188                           ; BSR set to: 0
  9189                           ;MCAL_Layer/Timer0/mcal_timer0.c: 142:     {;MCAL_Layer/Timer0/mcal_timer0.c: 143:      
      +                             (T0CONbits.T0CS = 0);
  9190   0030AC  9AD5               	bcf	213,5,c	;volatile
  9191   0030AE                     
  9192                           ; BSR set to: 0
  9193                           ;MCAL_Layer/Timer0/mcal_timer0.c: 144:         if (1 == timer0_->Timer0_Source_Edge) {
  9194   0030AE  EE20 F005          	lfsr	2,5
  9195   0030B2  51EB               	movf	Timer0_Mode_Select@timer0_& (0+255),w,b
  9196   0030B4  26D9               	addwf	fsr2l,f,c
  9197   0030B6  51EC               	movf	(Timer0_Mode_Select@timer0_+1)& (0+255),w,b
  9198   0030B8  22DA               	addwfc	fsr2h,f,c
  9199   0030BA  A2DF               	btfss	indf2,1,c
  9200   0030BC  EF62  F018         	goto	u7771
  9201   0030C0  EF64  F018         	goto	u7770
  9202   0030C4                     u7771:
  9203   0030C4  EF67  F018         	goto	l9391
  9204   0030C8                     u7770:
  9205   0030C8                     
  9206                           ; BSR set to: 0
  9207                           ;MCAL_Layer/Timer0/mcal_timer0.c: 145:             (T0CONbits.T0SE = 1);
  9208   0030C8  88D5               	bsf	213,4,c	;volatile
  9209                           
  9210                           ;MCAL_Layer/Timer0/mcal_timer0.c: 146:         } else if (0 == timer0_->Timer0_Source_Ed
      +                          ge) {
  9211   0030CA  EFA5  F018         	goto	l1378
  9212   0030CE                     l9391:
  9213                           
  9214                           ; BSR set to: 0
  9215   0030CE  EE20 F005          	lfsr	2,5
  9216   0030D2  51EB               	movf	Timer0_Mode_Select@timer0_& (0+255),w,b
  9217   0030D4  26D9               	addwf	fsr2l,f,c
  9218   0030D6  51EC               	movf	(Timer0_Mode_Select@timer0_+1)& (0+255),w,b
  9219   0030D8  22DA               	addwfc	fsr2h,f,c
  9220   0030DA  B2DF               	btfsc	indf2,1,c
  9221   0030DC  EF72  F018         	goto	u7781
  9222   0030E0  EF74  F018         	goto	u7780
  9223   0030E4                     u7781:
  9224   0030E4  EF77  F018         	goto	l1368
  9225   0030E8                     u7780:
  9226   0030E8                     
  9227                           ; BSR set to: 0
  9228                           ;MCAL_Layer/Timer0/mcal_timer0.c: 147:             (T0CONbits.T0SE = 0);
  9229   0030E8  98D5               	bcf	213,4,c	;volatile
  9230                           
  9231                           ;MCAL_Layer/Timer0/mcal_timer0.c: 148:         } else {
  9232   0030EA  EFA5  F018         	goto	l1378
  9233   0030EE                     l1368:
  9234                           
  9235                           ; BSR set to: 0
  9236                           ;MCAL_Layer/Timer0/mcal_timer0.c: 151:     }
  9237   0030EE  EFA5  F018         	goto	l1378
  9238   0030F2                     l9395:
  9239                           
  9240                           ; BSR set to: 0
  9241   0030F2  EE20 F005          	lfsr	2,5
  9242   0030F6  51EB               	movf	Timer0_Mode_Select@timer0_& (0+255),w,b
  9243   0030F8  26D9               	addwf	fsr2l,f,c
  9244   0030FA  51EC               	movf	(Timer0_Mode_Select@timer0_+1)& (0+255),w,b
  9245   0030FC  22DA               	addwfc	fsr2h,f,c
  9246   0030FE  A4DF               	btfss	indf2,2,c
  9247   003100  EF84  F018         	goto	u7791
  9248   003104  EF86  F018         	goto	u7790
  9249   003108                     u7791:
  9250   003108  EFA5  F018         	goto	l1378
  9251   00310C                     u7790:
  9252   00310C                     
  9253                           ; BSR set to: 0
  9254                           ;MCAL_Layer/Timer0/mcal_timer0.c: 153:     {;MCAL_Layer/Timer0/mcal_timer0.c: 154:      
      +                             (T0CONbits.T0CS = 1);
  9255   00310C  8AD5               	bsf	213,5,c	;volatile
  9256   00310E                     
  9257                           ; BSR set to: 0
  9258                           ;MCAL_Layer/Timer0/mcal_timer0.c: 155:         if (1 == timer0_->Timer0_Source_Edge) {
  9259   00310E  EE20 F005          	lfsr	2,5
  9260   003112  51EB               	movf	Timer0_Mode_Select@timer0_& (0+255),w,b
  9261   003114  26D9               	addwf	fsr2l,f,c
  9262   003116  51EC               	movf	(Timer0_Mode_Select@timer0_+1)& (0+255),w,b
  9263   003118  22DA               	addwfc	fsr2h,f,c
  9264   00311A  A2DF               	btfss	indf2,1,c
  9265   00311C  EF92  F018         	goto	u7801
  9266   003120  EF94  F018         	goto	u7800
  9267   003124                     u7801:
  9268   003124  EF97  F018         	goto	l9403
  9269   003128                     u7800:
  9270   003128                     
  9271                           ; BSR set to: 0
  9272                           ;MCAL_Layer/Timer0/mcal_timer0.c: 156:             (T0CONbits.T0SE = 1);
  9273   003128  88D5               	bsf	213,4,c	;volatile
  9274                           
  9275                           ;MCAL_Layer/Timer0/mcal_timer0.c: 157:         } else if (0 == timer0_->Timer0_Source_Ed
      +                          ge) {
  9276   00312A  EFA5  F018         	goto	l1378
  9277   00312E                     l9403:
  9278                           
  9279                           ; BSR set to: 0
  9280   00312E  EE20 F005          	lfsr	2,5
  9281   003132  51EB               	movf	Timer0_Mode_Select@timer0_& (0+255),w,b
  9282   003134  26D9               	addwf	fsr2l,f,c
  9283   003136  51EC               	movf	(Timer0_Mode_Select@timer0_+1)& (0+255),w,b
  9284   003138  22DA               	addwfc	fsr2h,f,c
  9285   00313A  B2DF               	btfsc	indf2,1,c
  9286   00313C  EFA2  F018         	goto	u7811
  9287   003140  EFA4  F018         	goto	u7810
  9288   003144                     u7811:
  9289   003144  EF77  F018         	goto	l1368
  9290   003148                     u7810:
  9291   003148                     
  9292                           ; BSR set to: 0
  9293                           ;MCAL_Layer/Timer0/mcal_timer0.c: 158:             (T0CONbits.T0SE = 0);
  9294   003148  98D5               	bcf	213,4,c	;volatile
  9295   00314A                     l1378:
  9296                           
  9297                           ; BSR set to: 0
  9298   00314A  0012               	return		;funcret
  9299   00314C                     __end_of_Timer0_Mode_Select:
  9300                           	callstack 0
  9301                           
  9302 ;; *************** function _Timer0_Bit_Mode_Select *****************
  9303 ;; Defined at:
  9304 ;;		line 167 in file "MCAL_Layer/Timer0/mcal_timer0.c"
  9305 ;; Parameters:    Size  Location     Type
  9306 ;;  timer0_         2    0[BANK0 ] PTR const struct .
  9307 ;;		 -> timer0(6), 
  9308 ;; Auto vars:     Size  Location     Type
  9309 ;;		None
  9310 ;; Return value:  Size  Location     Type
  9311 ;;                  1    wreg      void 
  9312 ;; Registers used:
  9313 ;;		wreg, fsr2l, fsr2h, status,2, status,0
  9314 ;; Tracked objects:
  9315 ;;		On entry : 0/0
  9316 ;;		On exit  : 0/0
  9317 ;;		Unchanged: 0/0
  9318 ;; Data sizes:     COMRAM   BANK0   BANK1   BANK2   BANK3   BANK4   BANK5   BANK6   BANK7   BANK8   BANK9  BANK10  BANK1
      +1  BANK12  BANK13  BANK14  BANK15
  9319 ;;      Params:         0       2       0       0       0       0       0       0       0       0       0       0       
      +0       0       0       0       0
  9320 ;;      Locals:         0       0       0       0       0       0       0       0       0       0       0       0       
      +0       0       0       0       0
  9321 ;;      Temps:          0       0       0       0       0       0       0       0       0       0       0       0       
      +0       0       0       0       0
  9322 ;;      Totals:         0       2       0       0       0       0       0       0       0       0       0       0       
      +0       0       0       0       0
  9323 ;;Total ram usage:        2 bytes
  9324 ;; Hardware stack levels used: 1
  9325 ;; Hardware stack levels required when called: 8
  9326 ;; This function calls:
  9327 ;;		Nothing
  9328 ;; This function is called by:
  9329 ;;		_Timer0_Intialization
  9330 ;; This function uses a non-reentrant model
  9331 ;;
  9332                           
  9333                           	psect	text22
  9334   003CA6                     __ptext22:
  9335                           	callstack 0
  9336   003CA6                     _Timer0_Bit_Mode_Select:
  9337                           	callstack 21
  9338   003CA6                     
  9339                           ;MCAL_Layer/Timer0/mcal_timer0.c: 167: static void Timer0_Bit_Mode_Select(const Timer0_c
      +                          onf_t *timer0_);MCAL_Layer/Timer0/mcal_timer0.c: 168: {;MCAL_Layer/Timer0/mcal_timer0.c:
      +                           169:     if(0 == timer0_->Timer0_SELECT_BIT_Mode)
  9340   003CA6  0100               	movlb	0	; () banked
  9341   003CA8  EE20 F005          	lfsr	2,5
  9342   003CAC  51EB               	movf	Timer0_Bit_Mode_Select@timer0_& (0+255),w,b
  9343   003CAE  26D9               	addwf	fsr2l,f,c
  9344   003CB0  51EC               	movf	(Timer0_Bit_Mode_Select@timer0_+1)& (0+255),w,b
  9345   003CB2  22DA               	addwfc	fsr2h,f,c
  9346   003CB4  B6DF               	btfsc	indf2,3,c
  9347   003CB6  EF5F  F01E         	goto	u7821
  9348   003CBA  EF61  F01E         	goto	u7820
  9349   003CBE                     u7821:
  9350   003CBE  EF64  F01E         	goto	l9411
  9351   003CC2                     u7820:
  9352   003CC2                     
  9353                           ; BSR set to: 0
  9354                           ;MCAL_Layer/Timer0/mcal_timer0.c: 170:     {;MCAL_Layer/Timer0/mcal_timer0.c: 171:      
      +                             (T0CONbits.T08BIT = 1);
  9355   003CC2  8CD5               	bsf	213,6,c	;volatile
  9356                           
  9357                           ;MCAL_Layer/Timer0/mcal_timer0.c: 172:     }
  9358   003CC4  EF72  F01E         	goto	l1385
  9359   003CC8                     l9411:
  9360                           
  9361                           ; BSR set to: 0
  9362   003CC8  EE20 F005          	lfsr	2,5
  9363   003CCC  51EB               	movf	Timer0_Bit_Mode_Select@timer0_& (0+255),w,b
  9364   003CCE  26D9               	addwf	fsr2l,f,c
  9365   003CD0  51EC               	movf	(Timer0_Bit_Mode_Select@timer0_+1)& (0+255),w,b
  9366   003CD2  22DA               	addwfc	fsr2h,f,c
  9367   003CD4  A6DF               	btfss	indf2,3,c
  9368   003CD6  EF6F  F01E         	goto	u7831
  9369   003CDA  EF71  F01E         	goto	u7830
  9370   003CDE                     u7831:
  9371   003CDE  EF72  F01E         	goto	l1385
  9372   003CE2                     u7830:
  9373   003CE2                     
  9374                           ; BSR set to: 0
  9375                           ;MCAL_Layer/Timer0/mcal_timer0.c: 174:     {;MCAL_Layer/Timer0/mcal_timer0.c: 175:      
      +                             (T0CONbits.T08BIT = 0);
  9376   003CE2  9CD5               	bcf	213,6,c	;volatile
  9377   003CE4                     l1385:
  9378                           
  9379                           ; BSR set to: 0
  9380   003CE4  0012               	return		;funcret
  9381   003CE6                     __end_of_Timer0_Bit_Mode_Select:
  9382                           	callstack 0
  9383                           
  9384 ;; *************** function _SPI_Send_Byte *****************
  9385 ;; Defined at:
  9386 ;;		line 74 in file "MCAL_Layer/SPI/hal_spi.c"
  9387 ;; Parameters:    Size  Location     Type
  9388 ;;  _data           1    wreg     const unsigned char 
  9389 ;; Auto vars:     Size  Location     Type
  9390 ;;  _data           1    2[BANK0 ] const unsigned char 
  9391 ;;  ret             2    0        unsigned int 
  9392 ;; Return value:  Size  Location     Type
  9393 ;;                  2    0[BANK0 ] unsigned int 
  9394 ;; Registers used:
  9395 ;;		wreg, status,2
  9396 ;; Tracked objects:
  9397 ;;		On entry : 0/0
  9398 ;;		On exit  : 0/0
  9399 ;;		Unchanged: 0/0
  9400 ;; Data sizes:     COMRAM   BANK0   BANK1   BANK2   BANK3   BANK4   BANK5   BANK6   BANK7   BANK8   BANK9  BANK10  BANK1
      +1  BANK12  BANK13  BANK14  BANK15
  9401 ;;      Params:         0       2       0       0       0       0       0       0       0       0       0       0       
      +0       0       0       0       0
  9402 ;;      Locals:         0       1       0       0       0       0       0       0       0       0       0       0       
      +0       0       0       0       0
  9403 ;;      Temps:          0       0       0       0       0       0       0       0       0       0       0       0       
      +0       0       0       0       0
  9404 ;;      Totals:         0       3       0       0       0       0       0       0       0       0       0       0       
      +0       0       0       0       0
  9405 ;;Total ram usage:        3 bytes
  9406 ;; Hardware stack levels used: 1
  9407 ;; Hardware stack levels required when called: 8
  9408 ;; This function calls:
  9409 ;;		Nothing
  9410 ;; This function is called by:
  9411 ;;		_main
  9412 ;;		_SPI_SendString
  9413 ;; This function uses a non-reentrant model
  9414 ;;
  9415                           
  9416                           	psect	text23
  9417   003E10                     __ptext23:
  9418                           	callstack 0
  9419   003E10                     _SPI_Send_Byte:
  9420                           	callstack 22
  9421                           
  9422                           ; BSR set to: 0
  9423                           ;incstack = 0
  9424                           ;SPI_Send_Byte@_data stored from wreg
  9425   003E10  0100               	movlb	0	; () banked
  9426   003E12  6FED               	movwf	SPI_Send_Byte@_data& (0+255),b
  9427   003E14                     
  9428                           ;MCAL_Layer/SPI/hal_spi.c: 77:     SSPBUF = _data;
  9429   003E14  C0ED  FFC9         	movff	SPI_Send_Byte@_data,4041	;volatile
  9430   003E18                     l1266:
  9431   003E18  A69E               	btfss	158,3,c	;volatile
  9432   003E1A  EF11  F01F         	goto	u8021
  9433   003E1E  EF13  F01F         	goto	u8020
  9434   003E22                     u8021:
  9435   003E22  EF0C  F01F         	goto	l1266
  9436   003E26                     u8020:
  9437   003E26                     
  9438                           ;MCAL_Layer/SPI/hal_spi.c: 79:     PIR1bits.SSPIF = 0;
  9439   003E26  969E               	bcf	158,3,c	;volatile
  9440   003E28  0012               	return		;funcret
  9441   003E2A                     __end_of_SPI_Send_Byte:
  9442                           	callstack 0
  9443                           
  9444 ;; *************** function _Led_Turn_On *****************
  9445 ;; Defined at:
  9446 ;;		line 45 in file "ECU_Layer/LED/ecu_Led.c"
  9447 ;; Parameters:    Size  Location     Type
  9448 ;;  Led             2   11[BANK0 ] PTR const struct .
  9449 ;;		 -> led_Admin(1), led_Guest(1), led_Block(1), 
  9450 ;; Auto vars:     Size  Location     Type
  9451 ;;  _pin_config_    1   16[BANK0 ] struct .
  9452 ;;  ret             2   14[BANK0 ] unsigned int 
  9453 ;; Return value:  Size  Location     Type
  9454 ;;                  2   11[BANK0 ] unsigned int 
  9455 ;; Registers used:
  9456 ;;		wreg, fsr2l, fsr2h, status,2, status,0, prodl, prodh, cstack
  9457 ;; Tracked objects:
  9458 ;;		On entry : 0/0
  9459 ;;		On exit  : 0/0
  9460 ;;		Unchanged: 0/0
  9461 ;; Data sizes:     COMRAM   BANK0   BANK1   BANK2   BANK3   BANK4   BANK5   BANK6   BANK7   BANK8   BANK9  BANK10  BANK1
      +1  BANK12  BANK13  BANK14  BANK15
  9462 ;;      Params:         0       2       0       0       0       0       0       0       0       0       0       0       
      +0       0       0       0       0
  9463 ;;      Locals:         0       3       0       0       0       0       0       0       0       0       0       0       
      +0       0       0       0       0
  9464 ;;      Temps:          0       1       0       0       0       0       0       0       0       0       0       0       
      +0       0       0       0       0
  9465 ;;      Totals:         0       6       0       0       0       0       0       0       0       0       0       0       
      +0       0       0       0       0
  9466 ;;Total ram usage:        6 bytes
  9467 ;; Hardware stack levels used: 1
  9468 ;; Hardware stack levels required when called: 9
  9469 ;; This function calls:
  9470 ;;		_GPIO_Pin_Write_Logic
  9471 ;; This function is called by:
  9472 ;;		_main
  9473 ;; This function uses a non-reentrant model
  9474 ;;
  9475                           
  9476                           	psect	text24
  9477   003478                     __ptext24:
  9478                           	callstack 0
  9479   003478                     _Led_Turn_On:
  9480                           	callstack 21
  9481   003478                     
  9482                           ;ECU_Layer/LED/ecu_Led.c: 48:     if(((void*)0) == Led)
  9483   003478  0100               	movlb	0	; () banked
  9484   00347A  51F6               	movf	Led_Turn_On@Led& (0+255),w,b
  9485   00347C  11F7               	iorwf	(Led_Turn_On@Led+1)& (0+255),w,b
  9486   00347E  A4D8               	btfss	status,2,c
  9487   003480  EF44  F01A         	goto	u7941
  9488   003484  EF46  F01A         	goto	u7940
  9489   003488                     u7941:
  9490   003488  EF4C  F01A         	goto	l203
  9491   00348C                     u7940:
  9492   00348C                     
  9493                           ; BSR set to: 0
  9494                           ;ECU_Layer/LED/ecu_Led.c: 49:     {;ECU_Layer/LED/ecu_Led.c: 50:         ret = (Std_Retu
      +                          rnType)0x00;
  9495   00348C  0E00               	movlw	0
  9496   00348E  6FFA               	movwf	(Led_Turn_On@ret+1)& (0+255),b
  9497   003490  0E00               	movlw	0
  9498   003492  6FF9               	movwf	Led_Turn_On@ret& (0+255),b
  9499                           
  9500                           ;ECU_Layer/LED/ecu_Led.c: 51:     }
  9501   003494  EF82  F01A         	goto	l9525
  9502   003498                     l203:
  9503                           
  9504                           ; BSR set to: 0
  9505                           ;ECU_Layer/LED/ecu_Led.c: 53:     {;ECU_Layer/LED/ecu_Led.c: 54:         Pin_Config_t _p
      +                          in_config_ =
  9506   003498  C04F  F0FB         	movff	Led_Turn_On@F2825,Led_Turn_On@_pin_config_
  9507   00349C                     
  9508                           ; BSR set to: 0
  9509   00349C  C0F6  FFD9         	movff	Led_Turn_On@Led,fsr2l
  9510   0034A0  C0F7  FFDA         	movff	Led_Turn_On@Led+1,fsr2h
  9511   0034A4  50DF               	movf	223,w,c
  9512   0034A6  0B07               	andlw	7
  9513   0034A8  6FF8               	movwf	??_Led_Turn_On& (0+255),b
  9514   0034AA  51FB               	movf	Led_Turn_On@_pin_config_& (0+255),w,b
  9515   0034AC  19F8               	xorwf	??_Led_Turn_On& (0+255),w,b
  9516   0034AE  0BF8               	andlw	-8
  9517   0034B0  19F8               	xorwf	??_Led_Turn_On& (0+255),w,b
  9518   0034B2  6FFB               	movwf	Led_Turn_On@_pin_config_& (0+255),b
  9519   0034B4  C0F6  FFD9         	movff	Led_Turn_On@Led,fsr2l
  9520   0034B8  C0F7  FFDA         	movff	Led_Turn_On@Led+1,fsr2h
  9521   0034BC  30DF               	rrcf	223,w,c
  9522   0034BE  32E8               	rrcf	wreg,f,c
  9523   0034C0  32E8               	rrcf	wreg,f,c
  9524   0034C2  0B07               	andlw	7
  9525   0034C4  6FF8               	movwf	??_Led_Turn_On& (0+255),b
  9526   0034C6  47F8               	rlncf	??_Led_Turn_On& (0+255),f,b
  9527   0034C8  47F8               	rlncf	??_Led_Turn_On& (0+255),f,b
  9528   0034CA  47F8               	rlncf	??_Led_Turn_On& (0+255),f,b
  9529   0034CC  51FB               	movf	Led_Turn_On@_pin_config_& (0+255),w,b
  9530   0034CE  19F8               	xorwf	??_Led_Turn_On& (0+255),w,b
  9531   0034D0  0BC7               	andlw	-57
  9532   0034D2  19F8               	xorwf	??_Led_Turn_On& (0+255),w,b
  9533   0034D4  6FFB               	movwf	Led_Turn_On@_pin_config_& (0+255),b
  9534   0034D6                     
  9535                           ; BSR set to: 0
  9536   0034D6  9DFB               	bcf	Led_Turn_On@_pin_config_& (0+255),6,b
  9537   0034D8                     
  9538                           ; BSR set to: 0
  9539   0034D8  C0F6  FFD9         	movff	Led_Turn_On@Led,fsr2l
  9540   0034DC  C0F7  FFDA         	movff	Led_Turn_On@Led+1,fsr2h
  9541   0034E0  ACDF               	btfss	indf2,6,c
  9542   0034E2  D002               	bra	u7955
  9543   0034E4  8FFB               	bsf	Led_Turn_On@_pin_config_& (0+255),7,b
  9544   0034E6  D002               	bra	u7957
  9545   0034E8                     u7955:
  9546   0034E8  0100               	movlb	0	; () banked
  9547   0034EA  9FFB               	bcf	Led_Turn_On@_pin_config_& (0+255),7,b
  9548   0034EC                     u7957:
  9549   0034EC                     
  9550                           ; BSR set to: 0
  9551                           ;ECU_Layer/LED/ecu_Led.c: 61:         ret = GPIO_Pin_Write_Logic(&_pin_config_ ,Logic_Hi
      +                          gh);
  9552   0034EC  0EFB               	movlw	low Led_Turn_On@_pin_config_
  9553   0034EE  6FEB               	movwf	GPIO_Pin_Write_Logic@_Pin_Config_& (0+255),b
  9554   0034F0  0E00               	movlw	high Led_Turn_On@_pin_config_
  9555   0034F2  6FEC               	movwf	(GPIO_Pin_Write_Logic@_Pin_Config_+1)& (0+255),b
  9556   0034F4  0E01               	movlw	1
  9557   0034F6  6FED               	movwf	GPIO_Pin_Write_Logic@Logic& (0+255),b
  9558   0034F8  ECA2  F015         	call	_GPIO_Pin_Write_Logic	;wreg free
  9559   0034FC  C0EB  F0F9         	movff	?_GPIO_Pin_Write_Logic,Led_Turn_On@ret
  9560   003500  C0EC  F0FA         	movff	?_GPIO_Pin_Write_Logic+1,Led_Turn_On@ret+1
  9561   003504                     l9525:
  9562                           
  9563                           ;ECU_Layer/LED/ecu_Led.c: 63:     return ret;
  9564   003504  C0F9  F0F6         	movff	Led_Turn_On@ret,?_Led_Turn_On
  9565   003508  C0FA  F0F7         	movff	Led_Turn_On@ret+1,?_Led_Turn_On+1
  9566   00350C  0012               	return		;funcret
  9567   00350E                     __end_of_Led_Turn_On:
  9568                           	callstack 0
  9569                           
  9570 ;; *************** function _Key_Pad_Get_Value *****************
  9571 ;; Defined at:
  9572 ;;		line 36 in file "ECU_Layer/Key_Pad/ecu_key_pad.c"
  9573 ;; Parameters:    Size  Location     Type
  9574 ;;  _key_pad        2   12[BANK0 ] PTR const struct .
  9575 ;;		 -> key_pad1(8), 
  9576 ;;  value           2   14[BANK0 ] PTR unsigned char 
  9577 ;;		 -> key_status(1), 
  9578 ;; Auto vars:     Size  Location     Type
  9579 ;;  coulmns         1    4[BANK1 ] unsigned char 
  9580 ;;  rows            1    3[BANK1 ] unsigned char 
  9581 ;;  coulmns_logi    1    2[BANK1 ] enum E2744
  9582 ;;  ret             2    0[BANK1 ] unsigned int 
  9583 ;; Return value:  Size  Location     Type
  9584 ;;                  2   12[BANK0 ] unsigned int 
  9585 ;; Registers used:
  9586 ;;		wreg, fsr2l, fsr2h, status,2, status,0, tblptrl, tblptrh, tblptru, prodl, prodh, cstack
  9587 ;; Tracked objects:
  9588 ;;		On entry : 0/0
  9589 ;;		On exit  : 0/0
  9590 ;;		Unchanged: 0/0
  9591 ;; Data sizes:     COMRAM   BANK0   BANK1   BANK2   BANK3   BANK4   BANK5   BANK6   BANK7   BANK8   BANK9  BANK10  BANK1
      +1  BANK12  BANK13  BANK14  BANK15
  9592 ;;      Params:         0       4       0       0       0       0       0       0       0       0       0       0       
      +0       0       0       0       0
  9593 ;;      Locals:         0       0       5       0       0       0       0       0       0       0       0       0       
      +0       0       0       0       0
  9594 ;;      Temps:          0       2       0       0       0       0       0       0       0       0       0       0       
      +0       0       0       0       0
  9595 ;;      Totals:         0       6       5       0       0       0       0       0       0       0       0       0       
      +0       0       0       0       0
  9596 ;;Total ram usage:       11 bytes
  9597 ;; Hardware stack levels used: 1
  9598 ;; Hardware stack levels required when called: 9
  9599 ;; This function calls:
  9600 ;;		_GPIO_Pin_Read_Logic
  9601 ;;		_GPIO_Pin_Write_Logic
  9602 ;; This function is called by:
  9603 ;;		_main
  9604 ;; This function uses a non-reentrant model
  9605 ;;
  9606                           
  9607                           	psect	text25
  9608   002DD6                     __ptext25:
  9609                           	callstack 0
  9610   002DD6                     _Key_Pad_Get_Value:
  9611                           	callstack 21
  9612   002DD6                     
  9613                           ;ECU_Layer/Key_Pad/ecu_key_pad.c: 39:     if(_key_pad == ((void*)0))
  9614   002DD6  0100               	movlb	0	; () banked
  9615   002DD8  51F7               	movf	Key_Pad_Get_Value@_key_pad& (0+255),w,b
  9616   002DDA  11F8               	iorwf	(Key_Pad_Get_Value@_key_pad+1)& (0+255),w,b
  9617   002DDC  A4D8               	btfss	status,2,c
  9618   002DDE  EFF3  F016         	goto	u7891
  9619   002DE2  EFF5  F016         	goto	u7890
  9620   002DE6                     u7891:
  9621   002DE6  EFFC  F016         	goto	l9465
  9622   002DEA                     u7890:
  9623   002DEA                     
  9624                           ; BSR set to: 0
  9625                           ;ECU_Layer/Key_Pad/ecu_key_pad.c: 40:     {;ECU_Layer/Key_Pad/ecu_key_pad.c: 41:        
      +                           ret = (Std_ReturnType)0x00 ;
  9626   002DEA  0E00               	movlw	0
  9627   002DEC  0101               	movlb	1	; () banked
  9628   002DEE  6F01               	movwf	(Key_Pad_Get_Value@ret+1)& (0+255),b
  9629   002DF0  0E00               	movlw	0
  9630   002DF2  6F00               	movwf	Key_Pad_Get_Value@ret& (0+255),b
  9631                           
  9632                           ;ECU_Layer/Key_Pad/ecu_key_pad.c: 42:     }
  9633   002DF4  EF7A  F017         	goto	l9507
  9634   002DF8                     l9465:
  9635                           
  9636                           ; BSR set to: 0
  9637                           ;ECU_Layer/Key_Pad/ecu_key_pad.c: 44:     {;ECU_Layer/Key_Pad/ecu_key_pad.c: 45:        
      +                           Logic_t coulmns_logic = Logic_Low;
  9638   002DF8  0E00               	movlw	0
  9639   002DFA  0101               	movlb	1	; () banked
  9640   002DFC  6F02               	movwf	Key_Pad_Get_Value@coulmns_logic& (0+255),b
  9641                           
  9642                           ;ECU_Layer/Key_Pad/ecu_key_pad.c: 46:         uint8 rows =0 ,coulmns = 0 ;
  9643   002DFE  0E00               	movlw	0
  9644   002E00  6F03               	movwf	Key_Pad_Get_Value@rows& (0+255),b
  9645                           
  9646                           ;ECU_Layer/Key_Pad/ecu_key_pad.c: 47:         for(rows =0 ;rows < 4 ;rows++)
  9647   002E02  0E00               	movlw	0
  9648   002E04  6F03               	movwf	Key_Pad_Get_Value@rows& (0+255),b
  9649   002E06                     l9471:
  9650                           
  9651                           ; BSR set to: 1
  9652                           ;ECU_Layer/Key_Pad/ecu_key_pad.c: 48:         {;ECU_Layer/Key_Pad/ecu_key_pad.c: 49:    
      +                                   for(coulmns =0 ;coulmns < 4 ;coulmns++)
  9653   002E06  0E00               	movlw	0
  9654   002E08  6F04               	movwf	Key_Pad_Get_Value@coulmns& (0+255),b
  9655   002E0A                     l9477:
  9656                           
  9657                           ; BSR set to: 1
  9658   002E0A  5104               	movf	Key_Pad_Get_Value@coulmns& (0+255),w,b
  9659   002E0C  0100               	movlb	0	; () banked
  9660   002E0E  25F7               	addwf	Key_Pad_Get_Value@_key_pad& (0+255),w,b
  9661   002E10  6FEB               	movwf	GPIO_Pin_Write_Logic@_Pin_Config_& (0+255),b
  9662   002E12  0101               	movlb	1	; () banked
  9663   002E14  0E00               	movlw	0
  9664   002E16  0100               	movlb	0	; () banked
  9665   002E18  21F8               	addwfc	(Key_Pad_Get_Value@_key_pad+1)& (0+255),w,b
  9666   002E1A  6FEC               	movwf	(GPIO_Pin_Write_Logic@_Pin_Config_+1)& (0+255),b
  9667   002E1C  0E00               	movlw	0
  9668   002E1E  6FED               	movwf	GPIO_Pin_Write_Logic@Logic& (0+255),b
  9669   002E20  ECA2  F015         	call	_GPIO_Pin_Write_Logic	;wreg free
  9670   002E24                     
  9671                           ;ECU_Layer/Key_Pad/ecu_key_pad.c: 52:             }
  9672   002E24  0101               	movlb	1	; () banked
  9673   002E26  2B04               	incf	Key_Pad_Get_Value@coulmns& (0+255),f,b
  9674   002E28                     
  9675                           ; BSR set to: 1
  9676   002E28  0E03               	movlw	3
  9677   002E2A  6504               	cpfsgt	Key_Pad_Get_Value@coulmns& (0+255),b
  9678   002E2C  EF1A  F017         	goto	u7901
  9679   002E30  EF1C  F017         	goto	u7900
  9680   002E34                     u7901:
  9681   002E34  EF05  F017         	goto	l9477
  9682   002E38                     u7900:
  9683   002E38                     
  9684                           ; BSR set to: 1
  9685   002E38  5103               	movf	Key_Pad_Get_Value@rows& (0+255),w,b
  9686   002E3A  0100               	movlb	0	; () banked
  9687   002E3C  25F7               	addwf	Key_Pad_Get_Value@_key_pad& (0+255),w,b
  9688   002E3E  6FEB               	movwf	GPIO_Pin_Write_Logic@_Pin_Config_& (0+255),b
  9689   002E40  0101               	movlb	1	; () banked
  9690   002E42  0E00               	movlw	0
  9691   002E44  0100               	movlb	0	; () banked
  9692   002E46  21F8               	addwfc	(Key_Pad_Get_Value@_key_pad+1)& (0+255),w,b
  9693   002E48  6FEC               	movwf	(GPIO_Pin_Write_Logic@_Pin_Config_+1)& (0+255),b
  9694   002E4A  0E01               	movlw	1
  9695   002E4C  6FED               	movwf	GPIO_Pin_Write_Logic@Logic& (0+255),b
  9696   002E4E  ECA2  F015         	call	_GPIO_Pin_Write_Logic	;wreg free
  9697   002E52                     
  9698                           ;ECU_Layer/Key_Pad/ecu_key_pad.c: 55:             for(coulmns =0 ;coulmns < 4 ;coulmns++
      +                          )
  9699   002E52  0E00               	movlw	0
  9700   002E54  0101               	movlb	1	; () banked
  9701   002E56  6F04               	movwf	Key_Pad_Get_Value@coulmns& (0+255),b
  9702   002E58                     l9491:
  9703                           
  9704                           ; BSR set to: 1
  9705   002E58  5104               	movf	Key_Pad_Get_Value@coulmns& (0+255),w,b
  9706   002E5A  0100               	movlb	0	; () banked
  9707   002E5C  25F7               	addwf	Key_Pad_Get_Value@_key_pad& (0+255),w,b
  9708   002E5E  6FFB               	movwf	??_Key_Pad_Get_Value& (0+255),b
  9709   002E60  0E00               	movlw	0
  9710   002E62  21F8               	addwfc	(Key_Pad_Get_Value@_key_pad+1)& (0+255),w,b
  9711   002E64  6FFC               	movwf	(??_Key_Pad_Get_Value+1)& (0+255),b
  9712   002E66  0E04               	movlw	4
  9713   002E68  25FB               	addwf	??_Key_Pad_Get_Value& (0+255),w,b
  9714   002E6A  6FEB               	movwf	GPIO_Pin_Read_Logic@_Pin_Config_& (0+255),b
  9715   002E6C  0E00               	movlw	0
  9716   002E6E  21FC               	addwfc	(??_Key_Pad_Get_Value+1)& (0+255),w,b
  9717   002E70  6FEC               	movwf	(GPIO_Pin_Read_Logic@_Pin_Config_+1)& (0+255),b
  9718   002E72  0E02               	movlw	low Key_Pad_Get_Value@coulmns_logic
  9719   002E74  6FED               	movwf	GPIO_Pin_Read_Logic@Logic& (0+255),b
  9720   002E76  0E01               	movlw	high Key_Pad_Get_Value@coulmns_logic
  9721   002E78  6FEE               	movwf	(GPIO_Pin_Read_Logic@Logic+1)& (0+255),b
  9722   002E7A  EC7F  F017         	call	_GPIO_Pin_Read_Logic	;wreg free
  9723   002E7E                     
  9724                           ;ECU_Layer/Key_Pad/ecu_key_pad.c: 58:                 if(coulmns_logic !=Logic_Low)
  9725   002E7E  0101               	movlb	1	; () banked
  9726   002E80  5102               	movf	Key_Pad_Get_Value@coulmns_logic& (0+255),w,b
  9727   002E82  B4D8               	btfsc	status,2,c
  9728   002E84  EF46  F017         	goto	u7911
  9729   002E88  EF48  F017         	goto	u7910
  9730   002E8C                     u7911:
  9731   002E8C  EF63  F017         	goto	l9497
  9732   002E90                     u7910:
  9733   002E90                     
  9734                           ; BSR set to: 1
  9735                           ;ECU_Layer/Key_Pad/ecu_key_pad.c: 59:                 {;ECU_Layer/Key_Pad/ecu_key_pad.c:
      +                           60:                    *value = Key_Pad_Array[rows][coulmns] ;
  9736   002E90  5103               	movf	Key_Pad_Get_Value@rows& (0+255),w,b
  9737   002E92  0D04               	mullw	4
  9738   002E94  0E15               	movlw	low _Key_Pad_Array
  9739   002E96  24F3               	addwf	243,w,c
  9740   002E98  0100               	movlb	0	; () banked
  9741   002E9A  6FFB               	movwf	??_Key_Pad_Get_Value& (0+255),b
  9742   002E9C  0EFE               	movlw	high _Key_Pad_Array
  9743   002E9E  20F4               	addwfc	prodh,w,c
  9744   002EA0  6FFC               	movwf	(??_Key_Pad_Get_Value+1)& (0+255),b
  9745   002EA2  0101               	movlb	1	; () banked
  9746   002EA4  5104               	movf	Key_Pad_Get_Value@coulmns& (0+255),w,b
  9747   002EA6  0100               	movlb	0	; () banked
  9748   002EA8  27FB               	addwf	??_Key_Pad_Get_Value& (0+255),f,b
  9749   002EAA  0E00               	movlw	0
  9750   002EAC  23FC               	addwfc	(??_Key_Pad_Get_Value+1)& (0+255),f,b
  9751   002EAE  C0FB  FFF6         	movff	??_Key_Pad_Get_Value,tblptrl
  9752   002EB2  C0FC  FFF7         	movff	??_Key_Pad_Get_Value+1,tblptrh
  9753   002EB6                     	if	1	;Program memory is < 0x10000, tblptru is always zero
  9754   002EB6  6AF8               	clrf	tblptru,c
  9755   002EB8                     	endif
  9756   002EB8                     	if	0	;tblptru may be non-zero
  9757   002EB8                     	endif
  9758   002EB8  C0F9  FFD9         	movff	Key_Pad_Get_Value@value,fsr2l
  9759   002EBC  C0FA  FFDA         	movff	Key_Pad_Get_Value@value+1,fsr2h
  9760   002EC0  0008               	tblrd		*
  9761   002EC2  CFF5 FFDF          	movff	tablat,indf2
  9762   002EC6                     l9497:
  9763                           
  9764                           ;ECU_Layer/Key_Pad/ecu_key_pad.c: 62:             }
  9765   002EC6  0101               	movlb	1	; () banked
  9766   002EC8  2B04               	incf	Key_Pad_Get_Value@coulmns& (0+255),f,b
  9767   002ECA                     
  9768                           ; BSR set to: 1
  9769   002ECA  0E03               	movlw	3
  9770   002ECC  6504               	cpfsgt	Key_Pad_Get_Value@coulmns& (0+255),b
  9771   002ECE  EF6B  F017         	goto	u7921
  9772   002ED2  EF6D  F017         	goto	u7920
  9773   002ED6                     u7921:
  9774   002ED6  EF2C  F017         	goto	l9491
  9775   002EDA                     u7920:
  9776   002EDA                     
  9777                           ; BSR set to: 1
  9778                           ;ECU_Layer/Key_Pad/ecu_key_pad.c: 63:         }
  9779   002EDA  2B03               	incf	Key_Pad_Get_Value@rows& (0+255),f,b
  9780   002EDC                     
  9781                           ; BSR set to: 1
  9782   002EDC  0E03               	movlw	3
  9783   002EDE  6503               	cpfsgt	Key_Pad_Get_Value@rows& (0+255),b
  9784   002EE0  EF74  F017         	goto	u7931
  9785   002EE4  EF76  F017         	goto	u7930
  9786   002EE8                     u7931:
  9787   002EE8  EF03  F017         	goto	l9471
  9788   002EEC                     u7930:
  9789   002EEC                     
  9790                           ; BSR set to: 1
  9791                           ;ECU_Layer/Key_Pad/ecu_key_pad.c: 64:         ret = (Std_ReturnType)0x01 ;
  9792   002EEC  0E00               	movlw	0
  9793   002EEE  6F01               	movwf	(Key_Pad_Get_Value@ret+1)& (0+255),b
  9794   002EF0  0E01               	movlw	1
  9795   002EF2  6F00               	movwf	Key_Pad_Get_Value@ret& (0+255),b
  9796   002EF4                     l9507:
  9797                           
  9798                           ; BSR set to: 1
  9799                           ;ECU_Layer/Key_Pad/ecu_key_pad.c: 66:     return ret;
  9800   002EF4  C100  F0F7         	movff	Key_Pad_Get_Value@ret,?_Key_Pad_Get_Value
  9801   002EF8  C101  F0F8         	movff	Key_Pad_Get_Value@ret+1,?_Key_Pad_Get_Value+1
  9802   002EFC                     
  9803                           ; BSR set to: 1
  9804   002EFC  0012               	return		;funcret
  9805   002EFE                     __end_of_Key_Pad_Get_Value:
  9806                           	callstack 0
  9807                           
  9808 ;; *************** function _GPIO_Pin_Write_Logic *****************
  9809 ;; Defined at:
  9810 ;;		line 75 in file "MCAL_Layer/GPIO/hal_GPIO.c"
  9811 ;; Parameters:    Size  Location     Type
  9812 ;;  _Pin_Config_    2    0[BANK0 ] PTR const struct .
  9813 ;;		 -> lcd1.data_pin(4), lcd1(6), key_pad1.Key_Pad_Coulmns(4), key_pad1.Key_Pad_Rows(4), 
  9814 ;;		 -> key_pad1(8), Relay_Turn_Off@_pin_config(1), Relay_Turn_On@_pin_config(1), Relay_Intialize@_pin_config(1), 
  9815 ;;		 -> Led_Turn_Off@_pin_config_(1), Led_Turn_On@_pin_config_(1), Led_Intialize@_pin_config_(1), 
  9816 ;;  Logic           1    2[BANK0 ] enum E2744
  9817 ;; Auto vars:     Size  Location     Type
  9818 ;;  ret             2    9[BANK0 ] unsigned int 
  9819 ;; Return value:  Size  Location     Type
  9820 ;;                  2    0[BANK0 ] unsigned int 
  9821 ;; Registers used:
  9822 ;;		wreg, fsr2l, fsr2h, status,2, status,0, prodl, prodh
  9823 ;; Tracked objects:
  9824 ;;		On entry : 0/0
  9825 ;;		On exit  : 0/0
  9826 ;;		Unchanged: 0/0
  9827 ;; Data sizes:     COMRAM   BANK0   BANK1   BANK2   BANK3   BANK4   BANK5   BANK6   BANK7   BANK8   BANK9  BANK10  BANK1
      +1  BANK12  BANK13  BANK14  BANK15
  9828 ;;      Params:         0       3       0       0       0       0       0       0       0       0       0       0       
      +0       0       0       0       0
  9829 ;;      Locals:         0       2       0       0       0       0       0       0       0       0       0       0       
      +0       0       0       0       0
  9830 ;;      Temps:          0       6       0       0       0       0       0       0       0       0       0       0       
      +0       0       0       0       0
  9831 ;;      Totals:         0      11       0       0       0       0       0       0       0       0       0       0       
      +0       0       0       0       0
  9832 ;;Total ram usage:       11 bytes
  9833 ;; Hardware stack levels used: 1
  9834 ;; Hardware stack levels required when called: 8
  9835 ;; This function calls:
  9836 ;;		Nothing
  9837 ;; This function is called by:
  9838 ;;		_lcd_send_command
  9839 ;;		_lcd_send_char_data
  9840 ;;		_lcd_send_4_bit_data
  9841 ;;		_lcd_send_enable
  9842 ;;		_Key_Pad_Get_Value
  9843 ;;		_Led_Turn_On
  9844 ;;		_GPIO_Pin_Intialize
  9845 ;;		_Dc_Motor_Turn_Right
  9846 ;;		_Dc_Motor_Turn_Left
  9847 ;;		_Dc_Motor_Stop
  9848 ;;		_Led_Turn_Off
  9849 ;;		_Relay_Turn_On
  9850 ;;		_Relay_Turn_Off
  9851 ;;		_Segment_Write_Number
  9852 ;; This function uses a non-reentrant model
  9853 ;;
  9854                           
  9855                           	psect	text26
  9856   002B44                     __ptext26:
  9857                           	callstack 0
  9858   002B44                     _GPIO_Pin_Write_Logic:
  9859                           	callstack 20
  9860   002B44                     
  9861                           ;MCAL_Layer/GPIO/hal_GPIO.c: 75: Std_ReturnType GPIO_Pin_Write_Logic(const Pin_Config_t 
      +                          *_Pin_Config_ ,Logic_t Logic);MCAL_Layer/GPIO/hal_GPIO.c: 76: {;MCAL_Layer/GPIO/hal_GPIO
      +                          .c: 77:         Std_ReturnType ret = (Std_ReturnType)0x00;
  9862   002B44  0E00               	movlw	0
  9863   002B46  0100               	movlb	0	; () banked
  9864   002B48  6FF5               	movwf	(GPIO_Pin_Write_Logic@ret+1)& (0+255),b
  9865   002B4A  0E00               	movlw	0
  9866   002B4C  6FF4               	movwf	GPIO_Pin_Write_Logic@ret& (0+255),b
  9867   002B4E                     
  9868                           ; BSR set to: 0
  9869                           ;MCAL_Layer/GPIO/hal_GPIO.c: 78:     if(_Pin_Config_ == ((void*)0) || _Pin_Config_-> pin
      +                           > (uint8)8 -1)
  9870   002B4E  51EB               	movf	GPIO_Pin_Write_Logic@_Pin_Config_& (0+255),w,b
  9871   002B50  11EC               	iorwf	(GPIO_Pin_Write_Logic@_Pin_Config_+1)& (0+255),w,b
  9872   002B52  B4D8               	btfsc	status,2,c
  9873   002B54  EFAE  F015         	goto	u7291
  9874   002B58  EFB0  F015         	goto	u7290
  9875   002B5C                     u7291:
  9876   002B5C  EFC1  F015         	goto	l8985
  9877   002B60                     u7290:
  9878   002B60                     
  9879                           ; BSR set to: 0
  9880   002B60  C0EB  FFD9         	movff	GPIO_Pin_Write_Logic@_Pin_Config_,fsr2l
  9881   002B64  C0EC  FFDA         	movff	GPIO_Pin_Write_Logic@_Pin_Config_+1,fsr2h
  9882   002B68  30DF               	rrcf	223,w,c
  9883   002B6A  32E8               	rrcf	wreg,f,c
  9884   002B6C  32E8               	rrcf	wreg,f,c
  9885   002B6E  0B07               	andlw	7
  9886   002B70  6FEE               	movwf	??_GPIO_Pin_Write_Logic& (0+255),b
  9887   002B72  0E07               	movlw	7
  9888   002B74  65EE               	cpfsgt	??_GPIO_Pin_Write_Logic& (0+255),b
  9889   002B76  EFBF  F015         	goto	u7301
  9890   002B7A  EFC1  F015         	goto	u7300
  9891   002B7E                     u7301:
  9892   002B7E  EF2E  F016         	goto	l8993
  9893   002B82                     u7300:
  9894   002B82                     l8985:
  9895                           
  9896                           ; BSR set to: 0
  9897                           ;MCAL_Layer/GPIO/hal_GPIO.c: 79:     {;MCAL_Layer/GPIO/hal_GPIO.c: 80:         ret = (St
      +                          d_ReturnType)0x01 ;
  9898   002B82  0E00               	movlw	0
  9899   002B84  6FF5               	movwf	(GPIO_Pin_Write_Logic@ret+1)& (0+255),b
  9900   002B86  0E01               	movlw	1
  9901   002B88  6FF4               	movwf	GPIO_Pin_Write_Logic@ret& (0+255),b
  9902                           
  9903                           ;MCAL_Layer/GPIO/hal_GPIO.c: 81:     }
  9904   002B8A  EF43  F016         	goto	l695
  9905   002B8E                     l8987:
  9906                           
  9907                           ; BSR set to: 0
  9908                           ;MCAL_Layer/GPIO/hal_GPIO.c: 87:                 (*Lat_Reg[_Pin_Config_->port]&= ~((uint
      +                          8)1 <<_Pin_Config_->pin));
  9909   002B8E  C0EB  FFD9         	movff	GPIO_Pin_Write_Logic@_Pin_Config_,fsr2l
  9910   002B92  C0EC  FFDA         	movff	GPIO_Pin_Write_Logic@_Pin_Config_+1,fsr2h
  9911   002B96  30DF               	rrcf	223,w,c
  9912   002B98  32E8               	rrcf	wreg,f,c
  9913   002B9A  32E8               	rrcf	wreg,f,c
  9914   002B9C  0B07               	andlw	7
  9915   002B9E  6FEE               	movwf	??_GPIO_Pin_Write_Logic& (0+255),b
  9916   002BA0  0E01               	movlw	1
  9917   002BA2  6FEF               	movwf	(??_GPIO_Pin_Write_Logic+1)& (0+255),b
  9918   002BA4  2BEE               	incf	??_GPIO_Pin_Write_Logic& (0+255),f,b
  9919   002BA6  EFD7  F015         	goto	u7314
  9920   002BAA                     u7315:
  9921   002BAA  90D8               	bcf	status,0,c
  9922   002BAC  37EF               	rlcf	(??_GPIO_Pin_Write_Logic+1)& (0+255),f,b
  9923   002BAE                     u7314:
  9924   002BAE  2FEE               	decfsz	??_GPIO_Pin_Write_Logic& (0+255),f,b
  9925   002BB0  EFD5  F015         	goto	u7315
  9926   002BB4  0100               	movlb	0	; () banked
  9927   002BB6  51EF               	movf	(??_GPIO_Pin_Write_Logic+1)& (0+255),w,b
  9928   002BB8  0AFF               	xorlw	255
  9929   002BBA  6FF0               	movwf	(??_GPIO_Pin_Write_Logic+2)& (0+255),b
  9930   002BBC  C0EB  FFD9         	movff	GPIO_Pin_Write_Logic@_Pin_Config_,fsr2l
  9931   002BC0  C0EC  FFDA         	movff	GPIO_Pin_Write_Logic@_Pin_Config_+1,fsr2h
  9932   002BC4  50DF               	movf	223,w,c
  9933   002BC6  0B07               	andlw	7
  9934   002BC8  6FF1               	movwf	(??_GPIO_Pin_Write_Logic+3)& (0+255),b
  9935   002BCA  51F1               	movf	(??_GPIO_Pin_Write_Logic+3)& (0+255),w,b
  9936   002BCC  0D02               	mullw	2
  9937   002BCE  0E8A               	movlw	low _Lat_Reg
  9938   002BD0  24F3               	addwf	243,w,c
  9939   002BD2  6ED9               	movwf	fsr2l,c
  9940   002BD4  0E00               	movlw	high _Lat_Reg
  9941   002BD6  20F4               	addwfc	prodh,w,c
  9942   002BD8  6EDA               	movwf	fsr2h,c
  9943   002BDA  CFDE F0F2          	movff	postinc2,??_GPIO_Pin_Write_Logic+4
  9944   002BDE  CFDD F0F3          	movff	postdec2,??_GPIO_Pin_Write_Logic+5
  9945   002BE2  C0F2  FFD9         	movff	??_GPIO_Pin_Write_Logic+4,fsr2l
  9946   002BE6  C0F3  FFDA         	movff	??_GPIO_Pin_Write_Logic+5,fsr2h
  9947   002BEA  51F0               	movf	(??_GPIO_Pin_Write_Logic+2)& (0+255),w,b
  9948   002BEC  16DF               	andwf	indf2,f,c
  9949                           
  9950                           ;MCAL_Layer/GPIO/hal_GPIO.c: 88:                 break;
  9951   002BEE  EF43  F016         	goto	l695
  9952   002BF2                     l8989:
  9953                           
  9954                           ; BSR set to: 0
  9955                           ;MCAL_Layer/GPIO/hal_GPIO.c: 90:                 (*Lat_Reg[_Pin_Config_->port]|=((uint8)
      +                          1 <<_Pin_Config_->pin));
  9956   002BF2  C0EB  FFD9         	movff	GPIO_Pin_Write_Logic@_Pin_Config_,fsr2l
  9957   002BF6  C0EC  FFDA         	movff	GPIO_Pin_Write_Logic@_Pin_Config_+1,fsr2h
  9958   002BFA  30DF               	rrcf	223,w,c
  9959   002BFC  32E8               	rrcf	wreg,f,c
  9960   002BFE  32E8               	rrcf	wreg,f,c
  9961   002C00  0B07               	andlw	7
  9962   002C02  6FEE               	movwf	??_GPIO_Pin_Write_Logic& (0+255),b
  9963   002C04  0E01               	movlw	1
  9964   002C06  6FEF               	movwf	(??_GPIO_Pin_Write_Logic+1)& (0+255),b
  9965   002C08  2BEE               	incf	??_GPIO_Pin_Write_Logic& (0+255),f,b
  9966   002C0A  EF09  F016         	goto	u7324
  9967   002C0E                     u7325:
  9968   002C0E  90D8               	bcf	status,0,c
  9969   002C10  37EF               	rlcf	(??_GPIO_Pin_Write_Logic+1)& (0+255),f,b
  9970   002C12                     u7324:
  9971   002C12  2FEE               	decfsz	??_GPIO_Pin_Write_Logic& (0+255),f,b
  9972   002C14  EF07  F016         	goto	u7325
  9973   002C18  C0EB  FFD9         	movff	GPIO_Pin_Write_Logic@_Pin_Config_,fsr2l
  9974   002C1C  C0EC  FFDA         	movff	GPIO_Pin_Write_Logic@_Pin_Config_+1,fsr2h
  9975   002C20  50DF               	movf	223,w,c
  9976   002C22  0B07               	andlw	7
  9977   002C24  0100               	movlb	0	; () banked
  9978   002C26  6FF0               	movwf	(??_GPIO_Pin_Write_Logic+2)& (0+255),b
  9979   002C28  51F0               	movf	(??_GPIO_Pin_Write_Logic+2)& (0+255),w,b
  9980   002C2A  0D02               	mullw	2
  9981   002C2C  0E8A               	movlw	low _Lat_Reg
  9982   002C2E  24F3               	addwf	243,w,c
  9983   002C30  6ED9               	movwf	fsr2l,c
  9984   002C32  0E00               	movlw	high _Lat_Reg
  9985   002C34  20F4               	addwfc	prodh,w,c
  9986   002C36  6EDA               	movwf	fsr2h,c
  9987   002C38  CFDE F0F1          	movff	postinc2,??_GPIO_Pin_Write_Logic+3
  9988   002C3C  CFDD F0F2          	movff	postdec2,??_GPIO_Pin_Write_Logic+4
  9989   002C40  C0F1  FFD9         	movff	??_GPIO_Pin_Write_Logic+3,fsr2l
  9990   002C44  C0F2  FFDA         	movff	??_GPIO_Pin_Write_Logic+4,fsr2h
  9991   002C48  51EF               	movf	(??_GPIO_Pin_Write_Logic+1)& (0+255),w,b
  9992   002C4A  12DF               	iorwf	indf2,f,c
  9993                           
  9994                           ;MCAL_Layer/GPIO/hal_GPIO.c: 91:                 break;
  9995   002C4C  EF43  F016         	goto	l695
  9996   002C50                     l8991:
  9997                           
  9998                           ; BSR set to: 0
  9999   002C50  0E00               	movlw	0
 10000   002C52  6FF5               	movwf	(GPIO_Pin_Write_Logic@ret+1)& (0+255),b
 10001   002C54  0E00               	movlw	0
 10002   002C56  6FF4               	movwf	GPIO_Pin_Write_Logic@ret& (0+255),b
 10003                           
 10004                           ;MCAL_Layer/GPIO/hal_GPIO.c: 93:         }
 10005   002C58  EF43  F016         	goto	l695
 10006   002C5C                     l8993:
 10007                           
 10008                           ; BSR set to: 0
 10009   002C5C  51ED               	movf	GPIO_Pin_Write_Logic@Logic& (0+255),w,b
 10010   002C5E  6FEE               	movwf	??_GPIO_Pin_Write_Logic& (0+255),b
 10011   002C60  6BEF               	clrf	(??_GPIO_Pin_Write_Logic+1)& (0+255),b
 10012                           
 10013                           ; Switch on 2 bytes has been partitioned into a top level switch of size 1, and 1 sub-sw
      +                          itches
 10014                           ; Switch size 1, requested type "simple"
 10015                           ; Number of cases is 1, Range of values is 0 to 0
 10016                           ; switch strategies available:
 10017                           ; Name         Instructions Cycles
 10018                           ; simple_byte            4     3 (average)
 10019                           ;	Chosen strategy is simple_byte
 10020   002C62  51EF               	movf	(??_GPIO_Pin_Write_Logic+1)& (0+255),w,b
 10021   002C64  0A00               	xorlw	0	; case 0
 10022   002C66  B4D8               	btfsc	status,2,c
 10023   002C68  EF38  F016         	goto	l11435
 10024   002C6C  EF28  F016         	goto	l8991
 10025   002C70                     l11435:
 10026                           
 10027                           ; BSR set to: 0
 10028                           ; Switch size 1, requested type "simple"
 10029                           ; Number of cases is 2, Range of values is 0 to 1
 10030                           ; switch strategies available:
 10031                           ; Name         Instructions Cycles
 10032                           ; simple_byte            7     4 (average)
 10033                           ;	Chosen strategy is simple_byte
 10034   002C70  51EE               	movf	??_GPIO_Pin_Write_Logic& (0+255),w,b
 10035   002C72  0A00               	xorlw	0	; case 0
 10036   002C74  B4D8               	btfsc	status,2,c
 10037   002C76  EFC7  F015         	goto	l8987
 10038   002C7A  0A01               	xorlw	1	; case 1
 10039   002C7C  B4D8               	btfsc	status,2,c
 10040   002C7E  EFF9  F015         	goto	l8989
 10041   002C82  EF28  F016         	goto	l8991
 10042   002C86                     l695:
 10043                           
 10044                           ; BSR set to: 0
 10045                           ;MCAL_Layer/GPIO/hal_GPIO.c: 95:     return ret;
 10046   002C86  C0F4  F0EB         	movff	GPIO_Pin_Write_Logic@ret,?_GPIO_Pin_Write_Logic
 10047   002C8A  C0F5  F0EC         	movff	GPIO_Pin_Write_Logic@ret+1,?_GPIO_Pin_Write_Logic+1
 10048   002C8E                     
 10049                           ; BSR set to: 0
 10050   002C8E  0012               	return		;funcret
 10051   002C90                     __end_of_GPIO_Pin_Write_Logic:
 10052                           	callstack 0
 10053                           
 10054 ;; *************** function _GPIO_Pin_Read_Logic *****************
 10055 ;; Defined at:
 10056 ;;		line 106 in file "MCAL_Layer/GPIO/hal_GPIO.c"
 10057 ;; Parameters:    Size  Location     Type
 10058 ;;  _Pin_Config_    2    0[BANK0 ] PTR const struct .
 10059 ;;		 -> key_pad1.Key_Pad_Coulmns(4), key_pad1(8), 
 10060 ;;  Logic           2    2[BANK0 ] PTR enum E2744
 10061 ;;		 -> Key_Pad_Get_Value@coulmns_logic(1), Button_Read_Status@logic(1), 
 10062 ;; Auto vars:     Size  Location     Type
 10063 ;;  ret             2   10[BANK0 ] unsigned int 
 10064 ;; Return value:  Size  Location     Type
 10065 ;;                  2    0[BANK0 ] unsigned int 
 10066 ;; Registers used:
 10067 ;;		wreg, fsr2l, fsr2h, status,2, status,0, prodl, prodh
 10068 ;; Tracked objects:
 10069 ;;		On entry : 0/0
 10070 ;;		On exit  : 0/0
 10071 ;;		Unchanged: 0/0
 10072 ;; Data sizes:     COMRAM   BANK0   BANK1   BANK2   BANK3   BANK4   BANK5   BANK6   BANK7   BANK8   BANK9  BANK10  BANK1
      +1  BANK12  BANK13  BANK14  BANK15
 10073 ;;      Params:         0       4       0       0       0       0       0       0       0       0       0       0       
      +0       0       0       0       0
 10074 ;;      Locals:         0       2       0       0       0       0       0       0       0       0       0       0       
      +0       0       0       0       0
 10075 ;;      Temps:          0       6       0       0       0       0       0       0       0       0       0       0       
      +0       0       0       0       0
 10076 ;;      Totals:         0      12       0       0       0       0       0       0       0       0       0       0       
      +0       0       0       0       0
 10077 ;;Total ram usage:       12 bytes
 10078 ;; Hardware stack levels used: 1
 10079 ;; Hardware stack levels required when called: 8
 10080 ;; This function calls:
 10081 ;;		Nothing
 10082 ;; This function is called by:
 10083 ;;		_Key_Pad_Get_Value
 10084 ;;		_Button_Read_Status
 10085 ;; This function uses a non-reentrant model
 10086 ;;
 10087                           
 10088                           	psect	text27
 10089   002EFE                     __ptext27:
 10090                           	callstack 0
 10091   002EFE                     _GPIO_Pin_Read_Logic:
 10092                           	callstack 21
 10093   002EFE                     
 10094                           ;MCAL_Layer/GPIO/hal_GPIO.c: 106: Std_ReturnType GPIO_Pin_Read_Logic(const Pin_Config_t 
      +                          *_Pin_Config_ ,Logic_t *Logic);MCAL_Layer/GPIO/hal_GPIO.c: 107: {;MCAL_Layer/GPIO/hal_GP
      +                          IO.c: 108:     Std_ReturnType ret = (Std_ReturnType)0x01;
 10095   002EFE  0E00               	movlw	0
 10096   002F00  0100               	movlb	0	; () banked
 10097   002F02  6FF6               	movwf	(GPIO_Pin_Read_Logic@ret+1)& (0+255),b
 10098   002F04  0E01               	movlw	1
 10099   002F06  6FF5               	movwf	GPIO_Pin_Read_Logic@ret& (0+255),b
 10100   002F08                     
 10101                           ; BSR set to: 0
 10102                           ;MCAL_Layer/GPIO/hal_GPIO.c: 109:     if(_Pin_Config_ == ((void*)0) || Logic == ((void*)
      +                          0) || _Pin_Config_-> pin > (uint8)8 -1)
 10103   002F08  51EB               	movf	GPIO_Pin_Read_Logic@_Pin_Config_& (0+255),w,b
 10104   002F0A  11EC               	iorwf	(GPIO_Pin_Read_Logic@_Pin_Config_+1)& (0+255),w,b
 10105   002F0C  B4D8               	btfsc	status,2,c
 10106   002F0E  EF8B  F017         	goto	u7601
 10107   002F12  EF8D  F017         	goto	u7600
 10108   002F16                     u7601:
 10109   002F16  EFA7  F017         	goto	l9291
 10110   002F1A                     u7600:
 10111   002F1A                     
 10112                           ; BSR set to: 0
 10113   002F1A  51ED               	movf	GPIO_Pin_Read_Logic@Logic& (0+255),w,b
 10114   002F1C  11EE               	iorwf	(GPIO_Pin_Read_Logic@Logic+1)& (0+255),w,b
 10115   002F1E  B4D8               	btfsc	status,2,c
 10116   002F20  EF94  F017         	goto	u7611
 10117   002F24  EF96  F017         	goto	u7610
 10118   002F28                     u7611:
 10119   002F28  EFA7  F017         	goto	l9291
 10120   002F2C                     u7610:
 10121   002F2C                     
 10122                           ; BSR set to: 0
 10123   002F2C  C0EB  FFD9         	movff	GPIO_Pin_Read_Logic@_Pin_Config_,fsr2l
 10124   002F30  C0EC  FFDA         	movff	GPIO_Pin_Read_Logic@_Pin_Config_+1,fsr2h
 10125   002F34  30DF               	rrcf	223,w,c
 10126   002F36  32E8               	rrcf	wreg,f,c
 10127   002F38  32E8               	rrcf	wreg,f,c
 10128   002F3A  0B07               	andlw	7
 10129   002F3C  6FEF               	movwf	??_GPIO_Pin_Read_Logic& (0+255),b
 10130   002F3E  0E07               	movlw	7
 10131   002F40  65EF               	cpfsgt	??_GPIO_Pin_Read_Logic& (0+255),b
 10132   002F42  EFA5  F017         	goto	u7621
 10133   002F46  EFA7  F017         	goto	u7620
 10134   002F4A                     u7621:
 10135   002F4A  EFAD  F017         	goto	l9293
 10136   002F4E                     u7620:
 10137   002F4E                     l9291:
 10138                           
 10139                           ; BSR set to: 0
 10140                           ;MCAL_Layer/GPIO/hal_GPIO.c: 110:     {;MCAL_Layer/GPIO/hal_GPIO.c: 111:         ret = (
      +                          Std_ReturnType)0x00 ;
 10141   002F4E  0E00               	movlw	0
 10142   002F50  6FF6               	movwf	(GPIO_Pin_Read_Logic@ret+1)& (0+255),b
 10143   002F52  0E00               	movlw	0
 10144   002F54  6FF5               	movwf	GPIO_Pin_Read_Logic@ret& (0+255),b
 10145                           
 10146                           ;MCAL_Layer/GPIO/hal_GPIO.c: 112:     }
 10147   002F56  EFE1  F017         	goto	l9295
 10148   002F5A                     l9293:
 10149                           
 10150                           ; BSR set to: 0
 10151                           ;MCAL_Layer/GPIO/hal_GPIO.c: 114:     {;MCAL_Layer/GPIO/hal_GPIO.c: 115:         *Logic 
      +                          = (*Port_Reg[_Pin_Config_->port]&((uint8)1 << _Pin_Config_->pin));
 10152   002F5A  C0EB  FFD9         	movff	GPIO_Pin_Read_Logic@_Pin_Config_,fsr2l
 10153   002F5E  C0EC  FFDA         	movff	GPIO_Pin_Read_Logic@_Pin_Config_+1,fsr2h
 10154   002F62  50DF               	movf	223,w,c
 10155   002F64  0B07               	andlw	7
 10156   002F66  6FEF               	movwf	??_GPIO_Pin_Read_Logic& (0+255),b
 10157   002F68  51EF               	movf	??_GPIO_Pin_Read_Logic& (0+255),w,b
 10158   002F6A  0D02               	mullw	2
 10159   002F6C  0E80               	movlw	low _Port_Reg
 10160   002F6E  24F3               	addwf	243,w,c
 10161   002F70  6ED9               	movwf	fsr2l,c
 10162   002F72  0E00               	movlw	high _Port_Reg
 10163   002F74  20F4               	addwfc	prodh,w,c
 10164   002F76  6EDA               	movwf	fsr2h,c
 10165   002F78  CFDE F0F0          	movff	postinc2,??_GPIO_Pin_Read_Logic+1
 10166   002F7C  CFDD F0F1          	movff	postdec2,??_GPIO_Pin_Read_Logic+2
 10167   002F80  C0F0  FFD9         	movff	??_GPIO_Pin_Read_Logic+1,fsr2l
 10168   002F84  C0F1  FFDA         	movff	??_GPIO_Pin_Read_Logic+2,fsr2h
 10169   002F88  50DF               	movf	indf2,w,c
 10170   002F8A  6FF2               	movwf	(??_GPIO_Pin_Read_Logic+3)& (0+255),b
 10171   002F8C  C0EB  FFD9         	movff	GPIO_Pin_Read_Logic@_Pin_Config_,fsr2l
 10172   002F90  C0EC  FFDA         	movff	GPIO_Pin_Read_Logic@_Pin_Config_+1,fsr2h
 10173   002F94  30DF               	rrcf	223,w,c
 10174   002F96  32E8               	rrcf	wreg,f,c
 10175   002F98  32E8               	rrcf	wreg,f,c
 10176   002F9A  0B07               	andlw	7
 10177   002F9C  6FF3               	movwf	(??_GPIO_Pin_Read_Logic+4)& (0+255),b
 10178   002F9E  0E01               	movlw	1
 10179   002FA0  6FF4               	movwf	(??_GPIO_Pin_Read_Logic+5)& (0+255),b
 10180   002FA2  2BF3               	incf	(??_GPIO_Pin_Read_Logic+4)& (0+255),f,b
 10181   002FA4  EFD6  F017         	goto	u7634
 10182   002FA8                     u7635:
 10183   002FA8  90D8               	bcf	status,0,c
 10184   002FAA  37F4               	rlcf	(??_GPIO_Pin_Read_Logic+5)& (0+255),f,b
 10185   002FAC                     u7634:
 10186   002FAC  2FF3               	decfsz	(??_GPIO_Pin_Read_Logic+4)& (0+255),f,b
 10187   002FAE  EFD4  F017         	goto	u7635
 10188   002FB2  0100               	movlb	0	; () banked
 10189   002FB4  51F4               	movf	(??_GPIO_Pin_Read_Logic+5)& (0+255),w,b
 10190   002FB6  15F2               	andwf	(??_GPIO_Pin_Read_Logic+3)& (0+255),w,b
 10191   002FB8  C0ED  FFD9         	movff	GPIO_Pin_Read_Logic@Logic,fsr2l
 10192   002FBC  C0EE  FFDA         	movff	GPIO_Pin_Read_Logic@Logic+1,fsr2h
 10193   002FC0  6EDF               	movwf	indf2,c
 10194   002FC2                     l9295:
 10195                           
 10196                           ; BSR set to: 0
 10197                           ;MCAL_Layer/GPIO/hal_GPIO.c: 117:     return ret;
 10198   002FC2  C0F5  F0EB         	movff	GPIO_Pin_Read_Logic@ret,?_GPIO_Pin_Read_Logic
 10199   002FC6  C0F6  F0EC         	movff	GPIO_Pin_Read_Logic@ret+1,?_GPIO_Pin_Read_Logic+1
 10200   002FCA                     
 10201                           ; BSR set to: 0
 10202   002FCA  0012               	return		;funcret
 10203   002FCC                     __end_of_GPIO_Pin_Read_Logic:
 10204                           	callstack 0
 10205                           
 10206 ;; *************** function _EEPROM_Data_WriteByte *****************
 10207 ;; Defined at:
 10208 ;;		line 11 in file "MCAL_Layer/EEPROM/mcal_eeprom.c"
 10209 ;; Parameters:    Size  Location     Type
 10210 ;;  bAdd            2    0[BANK0 ] unsigned short 
 10211 ;;  bData           1    2[BANK0 ] unsigned char 
 10212 ;; Auto vars:     Size  Location     Type
 10213 ;;  Global_int_s    1    3[BANK0 ] unsigned char 
 10214 ;;  ret             2    4[BANK0 ] unsigned int 
 10215 ;; Return value:  Size  Location     Type
 10216 ;;                  2    0[BANK0 ] unsigned int 
 10217 ;; Registers used:
 10218 ;;		wreg, status,2, status,0
 10219 ;; Tracked objects:
 10220 ;;		On entry : 0/0
 10221 ;;		On exit  : 0/0
 10222 ;;		Unchanged: 0/0
 10223 ;; Data sizes:     COMRAM   BANK0   BANK1   BANK2   BANK3   BANK4   BANK5   BANK6   BANK7   BANK8   BANK9  BANK10  BANK1
      +1  BANK12  BANK13  BANK14  BANK15
 10224 ;;      Params:         0       3       0       0       0       0       0       0       0       0       0       0       
      +0       0       0       0       0
 10225 ;;      Locals:         0       3       0       0       0       0       0       0       0       0       0       0       
      +0       0       0       0       0
 10226 ;;      Temps:          0       0       0       0       0       0       0       0       0       0       0       0       
      +0       0       0       0       0
 10227 ;;      Totals:         0       6       0       0       0       0       0       0       0       0       0       0       
      +0       0       0       0       0
 10228 ;;Total ram usage:        6 bytes
 10229 ;; Hardware stack levels used: 1
 10230 ;; Hardware stack levels required when called: 8
 10231 ;; This function calls:
 10232 ;;		Nothing
 10233 ;; This function is called by:
 10234 ;;		_main
 10235 ;; This function uses a non-reentrant model
 10236 ;;
 10237                           
 10238                           	psect	text28
 10239   00381A                     __ptext28:
 10240                           	callstack 0
 10241   00381A                     _EEPROM_Data_WriteByte:
 10242                           	callstack 22
 10243   00381A                     
 10244                           ;MCAL_Layer/EEPROM/mcal_eeprom.c: 11: Std_ReturnType EEPROM_Data_WriteByte(uint16 bAdd ,
      +                          uint8 bData);MCAL_Layer/EEPROM/mcal_eeprom.c: 12: {;MCAL_Layer/EEPROM/mcal_eeprom.c: 13:
      +                               Std_ReturnType ret = (Std_ReturnType)0x01;
 10245   00381A  0E00               	movlw	0
 10246   00381C  0100               	movlb	0	; () banked
 10247   00381E  6FF0               	movwf	(EEPROM_Data_WriteByte@ret+1)& (0+255),b
 10248   003820  0E01               	movlw	1
 10249   003822  6FEF               	movwf	EEPROM_Data_WriteByte@ret& (0+255),b
 10250   003824                     
 10251                           ; BSR set to: 0
 10252                           ;MCAL_Layer/EEPROM/mcal_eeprom.c: 14:     if(bAdd < 0x000 || bAdd > 0x3ff)
 10253   003824  0E04               	movlw	4
 10254   003826  5DEC               	subwf	(EEPROM_Data_WriteByte@bAdd+1)& (0+255),w,b
 10255   003828  A0D8               	btfss	status,0,c
 10256   00382A  EF19  F01C         	goto	u7961
 10257   00382E  EF1B  F01C         	goto	u7960
 10258   003832                     u7961:
 10259   003832  EF21  F01C         	goto	l9535
 10260   003836                     u7960:
 10261   003836                     
 10262                           ; BSR set to: 0
 10263                           ;MCAL_Layer/EEPROM/mcal_eeprom.c: 15:     {;MCAL_Layer/EEPROM/mcal_eeprom.c: 16:        
      +                           ret = (Std_ReturnType)0x00;
 10264   003836  0E00               	movlw	0
 10265   003838  6FF0               	movwf	(EEPROM_Data_WriteByte@ret+1)& (0+255),b
 10266   00383A  0E00               	movlw	0
 10267   00383C  6FEF               	movwf	EEPROM_Data_WriteByte@ret& (0+255),b
 10268                           
 10269                           ;MCAL_Layer/EEPROM/mcal_eeprom.c: 17:     }
 10270   00383E  EF43  F01C         	goto	l625
 10271   003842                     l9535:
 10272                           
 10273                           ; BSR set to: 0
 10274                           ;MCAL_Layer/EEPROM/mcal_eeprom.c: 19:     {;MCAL_Layer/EEPROM/mcal_eeprom.c: 21:        
      +                           uint8 Global_int_status = INTCONbits.GIE;
 10275   003842  0E00               	movlw	0
 10276   003844  BEF2               	btfsc	242,7,c	;volatile
 10277   003846  0E01               	movlw	1
 10278   003848  6FEE               	movwf	EEPROM_Data_WriteByte@Global_int_status& (0+255),b
 10279   00384A                     
 10280                           ; BSR set to: 0
 10281                           ;MCAL_Layer/EEPROM/mcal_eeprom.c: 23:         EEADRH = (uint8) ((bAdd >> 8) & 0x03);
 10282   00384A  51EC               	movf	(EEPROM_Data_WriteByte@bAdd+1)& (0+255),w,b
 10283   00384C  0B03               	andlw	3
 10284   00384E  6EAA               	movwf	170,c	;volatile
 10285   003850                     
 10286                           ; BSR set to: 0
 10287                           ;MCAL_Layer/EEPROM/mcal_eeprom.c: 24:         EEADR = (uint8) (bAdd & 0xFF);
 10288   003850  C0EB  FFA9         	movff	EEPROM_Data_WriteByte@bAdd,4009	;volatile
 10289   003854                     
 10290                           ; BSR set to: 0
 10291                           ;MCAL_Layer/EEPROM/mcal_eeprom.c: 26:         EEDATA = bData;
 10292   003854  C0ED  FFA8         	movff	EEPROM_Data_WriteByte@bData,4008	;volatile
 10293   003858                     
 10294                           ; BSR set to: 0
 10295                           ;MCAL_Layer/EEPROM/mcal_eeprom.c: 28:         EECON1bits.EEPGD = 0;
 10296   003858  9EA6               	bcf	166,7,c	;volsfr
 10297   00385A                     
 10298                           ; BSR set to: 0
 10299                           ;MCAL_Layer/EEPROM/mcal_eeprom.c: 30:         EECON1bits.CFGS = 0;
 10300   00385A  9CA6               	bcf	166,6,c	;volsfr
 10301   00385C                     
 10302                           ; BSR set to: 0
 10303                           ;MCAL_Layer/EEPROM/mcal_eeprom.c: 32:         EECON1bits.WREN = 1;
 10304   00385C  84A6               	bsf	166,2,c	;volsfr
 10305   00385E                     
 10306                           ; BSR set to: 0
 10307                           ;MCAL_Layer/EEPROM/mcal_eeprom.c: 34:         (INTCONbits.GIE = 0);
 10308   00385E  9EF2               	bcf	242,7,c	;volatile
 10309   003860                     
 10310                           ; BSR set to: 0
 10311                           ;MCAL_Layer/EEPROM/mcal_eeprom.c: 36:         EECON2 = 0x55;
 10312   003860  0E55               	movlw	85
 10313   003862  6EA7               	movwf	167,c	;volsfr
 10314   003864                     
 10315                           ; BSR set to: 0
 10316                           ;MCAL_Layer/EEPROM/mcal_eeprom.c: 37:         EECON2 = 0xAA;
 10317   003864  0EAA               	movlw	170
 10318   003866  6EA7               	movwf	167,c	;volsfr
 10319   003868                     
 10320                           ; BSR set to: 0
 10321                           ;MCAL_Layer/EEPROM/mcal_eeprom.c: 39:         EECON1bits.WR = 1;
 10322   003868  82A6               	bsf	166,1,c	;volsfr
 10323   00386A                     l626:
 10324   00386A  B2A6               	btfsc	166,1,c	;volsfr
 10325   00386C  EF3A  F01C         	goto	u7971
 10326   003870  EF3C  F01C         	goto	u7970
 10327   003874                     u7971:
 10328   003874  EF35  F01C         	goto	l626
 10329   003878                     u7970:
 10330   003878                     
 10331                           ;MCAL_Layer/EEPROM/mcal_eeprom.c: 43:         EECON1bits.WREN = 0;
 10332   003878  94A6               	bcf	166,2,c	;volsfr
 10333                           
 10334                           ;MCAL_Layer/EEPROM/mcal_eeprom.c: 45:         INTCONbits.GIE = Global_int_status;
 10335   00387A  0100               	movlb	0	; () banked
 10336   00387C  B1EE               	btfsc	EEPROM_Data_WriteByte@Global_int_status& (0+255),0,b
 10337   00387E  D002               	bra	u7985
 10338   003880  9EF2               	bcf	242,7,c	;volatile
 10339   003882  D001               	bra	u7986
 10340   003884                     u7985:
 10341   003884  8EF2               	bsf	242,7,c	;volatile
 10342   003886                     u7986:
 10343   003886                     l625:
 10344                           
 10345                           ;MCAL_Layer/EEPROM/mcal_eeprom.c: 48:     return ret;
 10346   003886  C0EF  F0EB         	movff	EEPROM_Data_WriteByte@ret,?_EEPROM_Data_WriteByte
 10347   00388A  C0F0  F0EC         	movff	EEPROM_Data_WriteByte@ret+1,?_EEPROM_Data_WriteByte+1
 10348   00388E  0012               	return		;funcret
 10349   003890                     __end_of_EEPROM_Data_WriteByte:
 10350                           	callstack 0
 10351                           
 10352 ;; *************** function _EEPROM_Data_ReadByte *****************
 10353 ;; Defined at:
 10354 ;;		line 51 in file "MCAL_Layer/EEPROM/mcal_eeprom.c"
 10355 ;; Parameters:    Size  Location     Type
 10356 ;;  bAdd            2    0[BANK0 ] unsigned short 
 10357 ;;  bData           2    2[BANK0 ] PTR unsigned char 
 10358 ;;		 -> eeprom_digit_read(1), Guest_pass_status(1), Admin_pass_status(1), 
 10359 ;; Auto vars:     Size  Location     Type
 10360 ;;  ret             2    4[BANK0 ] unsigned int 
 10361 ;; Return value:  Size  Location     Type
 10362 ;;                  2    0[BANK0 ] unsigned int 
 10363 ;; Registers used:
 10364 ;;		wreg, fsr2l, fsr2h, status,2, status,0
 10365 ;; Tracked objects:
 10366 ;;		On entry : 0/0
 10367 ;;		On exit  : 0/0
 10368 ;;		Unchanged: 0/0
 10369 ;; Data sizes:     COMRAM   BANK0   BANK1   BANK2   BANK3   BANK4   BANK5   BANK6   BANK7   BANK8   BANK9  BANK10  BANK1
      +1  BANK12  BANK13  BANK14  BANK15
 10370 ;;      Params:         0       4       0       0       0       0       0       0       0       0       0       0       
      +0       0       0       0       0
 10371 ;;      Locals:         0       2       0       0       0       0       0       0       0       0       0       0       
      +0       0       0       0       0
 10372 ;;      Temps:          0       0       0       0       0       0       0       0       0       0       0       0       
      +0       0       0       0       0
 10373 ;;      Totals:         0       6       0       0       0       0       0       0       0       0       0       0       
      +0       0       0       0       0
 10374 ;;Total ram usage:        6 bytes
 10375 ;; Hardware stack levels used: 1
 10376 ;; Hardware stack levels required when called: 8
 10377 ;; This function calls:
 10378 ;;		Nothing
 10379 ;; This function is called by:
 10380 ;;		_main
 10381 ;; This function uses a non-reentrant model
 10382 ;;
 10383                           
 10384                           	psect	text29
 10385   003C0C                     __ptext29:
 10386                           	callstack 0
 10387   003C0C                     _EEPROM_Data_ReadByte:
 10388                           	callstack 22
 10389   003C0C                     
 10390                           ;MCAL_Layer/EEPROM/mcal_eeprom.c: 51: Std_ReturnType EEPROM_Data_ReadByte(uint16 bAdd ,u
      +                          int8 *bData);MCAL_Layer/EEPROM/mcal_eeprom.c: 52: {;MCAL_Layer/EEPROM/mcal_eeprom.c: 53:
      +                               Std_ReturnType ret = (Std_ReturnType)0x01;
 10391   003C0C  0E00               	movlw	0
 10392   003C0E  0100               	movlb	0	; () banked
 10393   003C10  6FF0               	movwf	(EEPROM_Data_ReadByte@ret+1)& (0+255),b
 10394   003C12  0E01               	movlw	1
 10395   003C14  6FEF               	movwf	EEPROM_Data_ReadByte@ret& (0+255),b
 10396   003C16                     
 10397                           ; BSR set to: 0
 10398                           ;MCAL_Layer/EEPROM/mcal_eeprom.c: 54:     if(((void*)0) == bData)
 10399   003C16  51ED               	movf	EEPROM_Data_ReadByte@bData& (0+255),w,b
 10400   003C18  11EE               	iorwf	(EEPROM_Data_ReadByte@bData+1)& (0+255),w,b
 10401   003C1A  A4D8               	btfss	status,2,c
 10402   003C1C  EF12  F01E         	goto	u7991
 10403   003C20  EF14  F01E         	goto	u7990
 10404   003C24                     u7991:
 10405   003C24  EF1A  F01E         	goto	l9563
 10406   003C28                     u7990:
 10407   003C28                     
 10408                           ; BSR set to: 0
 10409                           ;MCAL_Layer/EEPROM/mcal_eeprom.c: 55:     {;MCAL_Layer/EEPROM/mcal_eeprom.c: 56:        
      +                           ret = (Std_ReturnType)0x00;
 10410   003C28  0E00               	movlw	0
 10411   003C2A  6FF0               	movwf	(EEPROM_Data_ReadByte@ret+1)& (0+255),b
 10412   003C2C  0E00               	movlw	0
 10413   003C2E  6FEF               	movwf	EEPROM_Data_ReadByte@ret& (0+255),b
 10414                           
 10415                           ;MCAL_Layer/EEPROM/mcal_eeprom.c: 57:     }
 10416   003C30  EF2A  F01E         	goto	l9579
 10417   003C34                     l9563:
 10418                           
 10419                           ; BSR set to: 0
 10420                           ;MCAL_Layer/EEPROM/mcal_eeprom.c: 59:     {;MCAL_Layer/EEPROM/mcal_eeprom.c: 61:        
      +                           EEADRH = (uint8) ((bAdd >> 8) & 0x03);
 10421   003C34  51EC               	movf	(EEPROM_Data_ReadByte@bAdd+1)& (0+255),w,b
 10422   003C36  0B03               	andlw	3
 10423   003C38  6EAA               	movwf	170,c	;volatile
 10424   003C3A                     
 10425                           ; BSR set to: 0
 10426                           ;MCAL_Layer/EEPROM/mcal_eeprom.c: 62:         EEADR = (uint8) (bAdd & 0xFF);
 10427   003C3A  C0EB  FFA9         	movff	EEPROM_Data_ReadByte@bAdd,4009	;volatile
 10428   003C3E                     
 10429                           ; BSR set to: 0
 10430                           ;MCAL_Layer/EEPROM/mcal_eeprom.c: 64:         EECON1bits.EEPGD = 0;
 10431   003C3E  9EA6               	bcf	166,7,c	;volsfr
 10432   003C40                     
 10433                           ; BSR set to: 0
 10434                           ;MCAL_Layer/EEPROM/mcal_eeprom.c: 66:         EECON1bits.CFGS = 0;
 10435   003C40  9CA6               	bcf	166,6,c	;volsfr
 10436   003C42                     
 10437                           ; BSR set to: 0
 10438                           ;MCAL_Layer/EEPROM/mcal_eeprom.c: 68:         EECON1bits.RD = 1;
 10439   003C42  80A6               	bsf	166,0,c	;volsfr
 10440   003C44                     
 10441                           ; BSR set to: 0
 10442                           ;MCAL_Layer/EEPROM/mcal_eeprom.c: 70:         __nop();
 10443   003C44  F000               	nop	
 10444   003C46                     
 10445                           ;MCAL_Layer/EEPROM/mcal_eeprom.c: 71:         __nop();
 10446   003C46  F000               	nop	
 10447   003C48                     
 10448                           ;MCAL_Layer/EEPROM/mcal_eeprom.c: 73:         *bData = EEDATA;
 10449   003C48  C0ED  FFD9         	movff	EEPROM_Data_ReadByte@bData,fsr2l
 10450   003C4C  C0EE  FFDA         	movff	EEPROM_Data_ReadByte@bData+1,fsr2h
 10451   003C50  CFA8 FFDF          	movff	4008,indf2	;volatile
 10452   003C54                     l9579:
 10453                           
 10454                           ;MCAL_Layer/EEPROM/mcal_eeprom.c: 76:     return ret;
 10455   003C54  C0EF  F0EB         	movff	EEPROM_Data_ReadByte@ret,?_EEPROM_Data_ReadByte
 10456   003C58  C0F0  F0EC         	movff	EEPROM_Data_ReadByte@ret+1,?_EEPROM_Data_ReadByte+1
 10457   003C5C  0012               	return		;funcret
 10458   003C5E                     __end_of_EEPROM_Data_ReadByte:
 10459                           	callstack 0
 10460                           
 10461 ;; *************** function _InterruptManagerHigh *****************
 10462 ;; Defined at:
 10463 ;;		line 41 in file "MCAL_Layer/Interrupt/mcal_interrupt_manager.c"
 10464 ;; Parameters:    Size  Location     Type
 10465 ;;		None
 10466 ;; Auto vars:     Size  Location     Type
 10467 ;;		None
 10468 ;; Return value:  Size  Location     Type
 10469 ;;                  1    wreg      void 
 10470 ;; Registers used:
 10471 ;;		wreg, fsr2l, fsr2h, status,2, status,0, pcl, pclath, pclatu, tosl, tblptrl, tblptrh, tblptru, prodl, prodh, cstack
 10472 ;; Tracked objects:
 10473 ;;		On entry : 0/0
 10474 ;;		On exit  : 0/0
 10475 ;;		Unchanged: 0/0
 10476 ;; Data sizes:     COMRAM   BANK0   BANK1   BANK2   BANK3   BANK4   BANK5   BANK6   BANK7   BANK8   BANK9  BANK10  BANK1
      +1  BANK12  BANK13  BANK14  BANK15
 10477 ;;      Params:         0       0       0       0       0       0       0       0       0       0       0       0       
      +0       0       0       0       0
 10478 ;;      Locals:         0       0       0       0       0       0       0       0       0       0       0       0       
      +0       0       0       0       0
 10479 ;;      Temps:         10       0       0       0       0       0       0       0       0       0       0       0       
      +0       0       0       0       0
 10480 ;;      Totals:        10       0       0       0       0       0       0       0       0       0       0       0       
      +0       0       0       0       0
 10481 ;;Total ram usage:       10 bytes
 10482 ;; Hardware stack levels used: 1
 10483 ;; Hardware stack levels required when called: 7
 10484 ;; This function calls:
 10485 ;;		_ADC_ISR
 10486 ;;		_CCP1_ISR
 10487 ;;		_CCP2_ISR
 10488 ;;		_ECCP_ISR
 10489 ;;		_INT0_ISR
 10490 ;;		_INT1_ISR
 10491 ;;		_INT2_ISR
 10492 ;;		_MSSP_I2C_BC_ISR
 10493 ;;		_MSSP_I2C_ISR
 10494 ;;		_RB4_ISR
 10495 ;;		_RB5_ISR
 10496 ;;		_RB6_ISR
 10497 ;;		_RB7_ISR
 10498 ;;		_SPI_ISR
 10499 ;;		_TIMER0_ISR
 10500 ;;		_TIMER1_ISR
 10501 ;;		_TIMER2_ISR
 10502 ;;		_TIMER3_ISR
 10503 ;;		_USART_RX_ISR
 10504 ;;		_USART_TX_ISR
 10505 ;; This function is called by:
 10506 ;;		Interrupt level 2
 10507 ;; This function uses a non-reentrant model
 10508 ;;
 10509                           
 10510                           	psect	intcode
 10511   000008                     __pintcode:
 10512                           	callstack 0
 10513   000008                     _InterruptManagerHigh:
 10514                           	callstack 17
 10515                           
 10516                           ;incstack = 0
 10517   000008  8265               	bsf	int$flags,1,c	;set compiler interrupt flag (level 2)
 10518   00000A  ED61  F011         	call	int_func,f	;refresh shadow registers
 10519                           
 10520                           	psect	intcode_body
 10521   0022C2                     __pintcode_body:
 10522                           	callstack 17
 10523   0022C2                     int_func:
 10524                           	callstack 17
 10525   0022C2  0006               	pop		; remove dummy address from shadow register refresh
 10526   0022C4  CFFA F029          	movff	pclath,??_InterruptManagerHigh
 10527   0022C8  CFFB F02A          	movff	pclatu,??_InterruptManagerHigh+1
 10528   0022CC  CFD9 F02B          	movff	fsr2l,??_InterruptManagerHigh+2
 10529   0022D0  CFDA F02C          	movff	fsr2h,??_InterruptManagerHigh+3
 10530   0022D4  CFF3 F02D          	movff	prodl,??_InterruptManagerHigh+4
 10531   0022D8  CFF4 F02E          	movff	prodh,??_InterruptManagerHigh+5
 10532   0022DC  CFF6 F02F          	movff	tblptrl,??_InterruptManagerHigh+6
 10533   0022E0  CFF7 F030          	movff	tblptrh,??_InterruptManagerHigh+7
 10534   0022E4  CFF8 F031          	movff	tblptru,??_InterruptManagerHigh+8
 10535   0022E8  CFF5 F032          	movff	tablat,??_InterruptManagerHigh+9
 10536   0022EC                     
 10537                           ;MCAL_Layer/Interrupt/mcal_interrupt_manager.c: 43:     if((1 == INTCONbits.INT0IE) && (
      +                          1 == INTCONbits.INT0IF))
 10538   0022EC  A8F2               	btfss	242,4,c	;volatile
 10539   0022EE  EF7B  F011         	goto	i2u835_41
 10540   0022F2  EF7D  F011         	goto	i2u835_40
 10541   0022F6                     i2u835_41:
 10542   0022F6  EF86  F011         	goto	i2l1199
 10543   0022FA                     i2u835_40:
 10544   0022FA  A2F2               	btfss	242,1,c	;volatile
 10545   0022FC  EF82  F011         	goto	i2u836_41
 10546   002300  EF84  F011         	goto	i2u836_40
 10547   002304                     i2u836_41:
 10548   002304  EF86  F011         	goto	i2l1199
 10549   002308                     i2u836_40:
 10550   002308                     
 10551                           ;MCAL_Layer/Interrupt/mcal_interrupt_manager.c: 44:     {;MCAL_Layer/Interrupt/mcal_inte
      +                          rrupt_manager.c: 45:        INT0_ISR();
 10552   002308  EC6C  F01F         	call	_INT0_ISR	;wreg free
 10553   00230C                     i2l1199:
 10554                           
 10555                           ;MCAL_Layer/Interrupt/mcal_interrupt_manager.c: 48:     if((1 == INTCON3bits.INT1IE) && 
      +                          (1 == INTCON3bits.INT1IF))
 10556   00230C  A6F0               	btfss	240,3,c	;volatile
 10557   00230E  EF8B  F011         	goto	i2u837_41
 10558   002312  EF8D  F011         	goto	i2u837_40
 10559   002316                     i2u837_41:
 10560   002316  EF96  F011         	goto	i2l1201
 10561   00231A                     i2u837_40:
 10562   00231A  A0F0               	btfss	240,0,c	;volatile
 10563   00231C  EF92  F011         	goto	i2u838_41
 10564   002320  EF94  F011         	goto	i2u838_40
 10565   002324                     i2u838_41:
 10566   002324  EF96  F011         	goto	i2l1201
 10567   002328                     i2u838_40:
 10568   002328                     
 10569                           ;MCAL_Layer/Interrupt/mcal_interrupt_manager.c: 49:     {;MCAL_Layer/Interrupt/mcal_inte
      +                          rrupt_manager.c: 50:        INT1_ISR();
 10570   002328  EC6A  F01F         	call	_INT1_ISR	;wreg free
 10571   00232C                     i2l1201:
 10572                           
 10573                           ;MCAL_Layer/Interrupt/mcal_interrupt_manager.c: 53:     if((1 == INTCON3bits.INT2IE) && 
      +                          (1 == INTCON3bits.INT2IF))
 10574   00232C  A8F0               	btfss	240,4,c	;volatile
 10575   00232E  EF9B  F011         	goto	i2u839_41
 10576   002332  EF9D  F011         	goto	i2u839_40
 10577   002336                     i2u839_41:
 10578   002336  EFA6  F011         	goto	i2l1203
 10579   00233A                     i2u839_40:
 10580   00233A  A2F0               	btfss	240,1,c	;volatile
 10581   00233C  EFA2  F011         	goto	i2u840_41
 10582   002340  EFA4  F011         	goto	i2u840_40
 10583   002344                     i2u840_41:
 10584   002344  EFA6  F011         	goto	i2l1203
 10585   002348                     i2u840_40:
 10586   002348                     
 10587                           ;MCAL_Layer/Interrupt/mcal_interrupt_manager.c: 54:     {;MCAL_Layer/Interrupt/mcal_inte
      +                          rrupt_manager.c: 55:        INT2_ISR();
 10588   002348  EC68  F01F         	call	_INT2_ISR	;wreg free
 10589   00234C                     i2l1203:
 10590                           
 10591                           ;MCAL_Layer/Interrupt/mcal_interrupt_manager.c: 60:     if((1 == INTCONbits.RBIE) && (1 
      +                          == INTCONbits.RBIF)
 10592   00234C  A6F2               	btfss	242,3,c	;volatile
 10593   00234E  EFAB  F011         	goto	i2u841_41
 10594   002352  EFAD  F011         	goto	i2u841_40
 10595   002356                     i2u841_41:
 10596   002356  EFC8  F011         	goto	i2l1205
 10597   00235A                     i2u841_40:
 10598   00235A  A0F2               	btfss	242,0,c	;volatile
 10599   00235C  EFB2  F011         	goto	i2u842_41
 10600   002360  EFB4  F011         	goto	i2u842_40
 10601   002364                     i2u842_41:
 10602   002364  EFC8  F011         	goto	i2l1205
 10603   002368                     i2u842_40:
 10604   002368  A881               	btfss	129,4,c	;volatile
 10605   00236A  EFB9  F011         	goto	i2u843_41
 10606   00236E  EFBB  F011         	goto	i2u843_40
 10607   002372                     i2u843_41:
 10608   002372  EFC8  F011         	goto	i2l1205
 10609   002376                     i2u843_40:
 10610   002376  045C               	decf	_RB4_flag^0,w,c	;volatile
 10611   002378  A4D8               	btfss	status,2,c
 10612   00237A  EFC1  F011         	goto	i2u844_41
 10613   00237E  EFC3  F011         	goto	i2u844_40
 10614   002382                     i2u844_41:
 10615   002382  EFC8  F011         	goto	i2l1205
 10616   002386                     i2u844_40:
 10617   002386                     
 10618                           ;MCAL_Layer/Interrupt/mcal_interrupt_manager.c: 62:     {;MCAL_Layer/Interrupt/mcal_inte
      +                          rrupt_manager.c: 63:         RB4_flag = 0;
 10619   002386  0E00               	movlw	0
 10620   002388  6E5C               	movwf	_RB4_flag^0,c	;volatile
 10621   00238A                     
 10622                           ;MCAL_Layer/Interrupt/mcal_interrupt_manager.c: 64:        RB4_ISR(0);
 10623   00238A  0E00               	movlw	0
 10624   00238C  EC3C  F01F         	call	_RB4_ISR
 10625   002390                     i2l1205:
 10626                           
 10627                           ;MCAL_Layer/Interrupt/mcal_interrupt_manager.c: 67:     if((1 == INTCONbits.RBIE) && (1 
      +                          == INTCONbits.RBIF)
 10628   002390  A6F2               	btfss	242,3,c	;volatile
 10629   002392  EFCD  F011         	goto	i2u845_41
 10630   002396  EFCF  F011         	goto	i2u845_40
 10631   00239A                     i2u845_41:
 10632   00239A  EFEA  F011         	goto	i2l1207
 10633   00239E                     i2u845_40:
 10634   00239E  A0F2               	btfss	242,0,c	;volatile
 10635   0023A0  EFD4  F011         	goto	i2u846_41
 10636   0023A4  EFD6  F011         	goto	i2u846_40
 10637   0023A8                     i2u846_41:
 10638   0023A8  EFEA  F011         	goto	i2l1207
 10639   0023AC                     i2u846_40:
 10640   0023AC  BA81               	btfsc	129,5,c	;volatile
 10641   0023AE  EFDB  F011         	goto	i2u847_41
 10642   0023B2  EFDD  F011         	goto	i2u847_40
 10643   0023B6                     i2u847_41:
 10644   0023B6  EFEA  F011         	goto	i2l1207
 10645   0023BA                     i2u847_40:
 10646   0023BA  505C               	movf	_RB4_flag^0,w,c	;volatile
 10647   0023BC  A4D8               	btfss	status,2,c
 10648   0023BE  EFE3  F011         	goto	i2u848_41
 10649   0023C2  EFE5  F011         	goto	i2u848_40
 10650   0023C6                     i2u848_41:
 10651   0023C6  EFEA  F011         	goto	i2l1207
 10652   0023CA                     i2u848_40:
 10653   0023CA                     
 10654                           ;MCAL_Layer/Interrupt/mcal_interrupt_manager.c: 69:     {;MCAL_Layer/Interrupt/mcal_inte
      +                          rrupt_manager.c: 70:         RB4_flag = 1;
 10655   0023CA  0E01               	movlw	1
 10656   0023CC  6E5C               	movwf	_RB4_flag^0,c	;volatile
 10657   0023CE                     
 10658                           ;MCAL_Layer/Interrupt/mcal_interrupt_manager.c: 71:        RB4_ISR(1);
 10659   0023CE  0E01               	movlw	1
 10660   0023D0  EC3C  F01F         	call	_RB4_ISR
 10661   0023D4                     i2l1207:
 10662                           
 10663                           ;MCAL_Layer/Interrupt/mcal_interrupt_manager.c: 74:      if((1 == INTCONbits.RBIE) && (1
      +                           == INTCONbits.RBIF)
 10664   0023D4  A6F2               	btfss	242,3,c	;volatile
 10665   0023D6  EFEF  F011         	goto	i2u849_41
 10666   0023DA  EFF1  F011         	goto	i2u849_40
 10667   0023DE                     i2u849_41:
 10668   0023DE  EF0C  F012         	goto	i2l1209
 10669   0023E2                     i2u849_40:
 10670   0023E2  A0F2               	btfss	242,0,c	;volatile
 10671   0023E4  EFF6  F011         	goto	i2u850_41
 10672   0023E8  EFF8  F011         	goto	i2u850_40
 10673   0023EC                     i2u850_41:
 10674   0023EC  EF0C  F012         	goto	i2l1209
 10675   0023F0                     i2u850_40:
 10676   0023F0  AA81               	btfss	129,5,c	;volatile
 10677   0023F2  EFFD  F011         	goto	i2u851_41
 10678   0023F6  EFFF  F011         	goto	i2u851_40
 10679   0023FA                     i2u851_41:
 10680   0023FA  EF0C  F012         	goto	i2l1209
 10681   0023FE                     i2u851_40:
 10682   0023FE  045B               	decf	_RB5_flag^0,w,c	;volatile
 10683   002400  A4D8               	btfss	status,2,c
 10684   002402  EF05  F012         	goto	i2u852_41
 10685   002406  EF07  F012         	goto	i2u852_40
 10686   00240A                     i2u852_41:
 10687   00240A  EF0C  F012         	goto	i2l1209
 10688   00240E                     i2u852_40:
 10689   00240E                     
 10690                           ;MCAL_Layer/Interrupt/mcal_interrupt_manager.c: 76:     {;MCAL_Layer/Interrupt/mcal_inte
      +                          rrupt_manager.c: 77:          RB5_flag = 0;
 10691   00240E  0E00               	movlw	0
 10692   002410  6E5B               	movwf	_RB5_flag^0,c	;volatile
 10693   002412                     
 10694                           ;MCAL_Layer/Interrupt/mcal_interrupt_manager.c: 78:        RB5_ISR(0);
 10695   002412  0E00               	movlw	0
 10696   002414  EC2F  F01F         	call	_RB5_ISR
 10697   002418                     i2l1209:
 10698                           
 10699                           ;MCAL_Layer/Interrupt/mcal_interrupt_manager.c: 81:     if((1 == INTCONbits.RBIE) && (1 
      +                          == INTCONbits.RBIF)
 10700   002418  A6F2               	btfss	242,3,c	;volatile
 10701   00241A  EF11  F012         	goto	i2u853_41
 10702   00241E  EF13  F012         	goto	i2u853_40
 10703   002422                     i2u853_41:
 10704   002422  EF2E  F012         	goto	i2l1211
 10705   002426                     i2u853_40:
 10706   002426  A0F2               	btfss	242,0,c	;volatile
 10707   002428  EF18  F012         	goto	i2u854_41
 10708   00242C  EF1A  F012         	goto	i2u854_40
 10709   002430                     i2u854_41:
 10710   002430  EF2E  F012         	goto	i2l1211
 10711   002434                     i2u854_40:
 10712   002434  BA81               	btfsc	129,5,c	;volatile
 10713   002436  EF1F  F012         	goto	i2u855_41
 10714   00243A  EF21  F012         	goto	i2u855_40
 10715   00243E                     i2u855_41:
 10716   00243E  EF2E  F012         	goto	i2l1211
 10717   002442                     i2u855_40:
 10718   002442  505B               	movf	_RB5_flag^0,w,c	;volatile
 10719   002444  A4D8               	btfss	status,2,c
 10720   002446  EF27  F012         	goto	i2u856_41
 10721   00244A  EF29  F012         	goto	i2u856_40
 10722   00244E                     i2u856_41:
 10723   00244E  EF2E  F012         	goto	i2l1211
 10724   002452                     i2u856_40:
 10725   002452                     
 10726                           ;MCAL_Layer/Interrupt/mcal_interrupt_manager.c: 83:     {;MCAL_Layer/Interrupt/mcal_inte
      +                          rrupt_manager.c: 84:         RB5_flag = 1;
 10727   002452  0E01               	movlw	1
 10728   002454  6E5B               	movwf	_RB5_flag^0,c	;volatile
 10729   002456                     
 10730                           ;MCAL_Layer/Interrupt/mcal_interrupt_manager.c: 85:        RB5_ISR(1);
 10731   002456  0E01               	movlw	1
 10732   002458  EC2F  F01F         	call	_RB5_ISR
 10733   00245C                     i2l1211:
 10734                           
 10735                           ;MCAL_Layer/Interrupt/mcal_interrupt_manager.c: 88:    if((1 == INTCONbits.RBIE) && (1 =
      +                          = INTCONbits.RBIF)
 10736   00245C  A6F2               	btfss	242,3,c	;volatile
 10737   00245E  EF33  F012         	goto	i2u857_41
 10738   002462  EF35  F012         	goto	i2u857_40
 10739   002466                     i2u857_41:
 10740   002466  EF50  F012         	goto	i2l1213
 10741   00246A                     i2u857_40:
 10742   00246A  A0F2               	btfss	242,0,c	;volatile
 10743   00246C  EF3A  F012         	goto	i2u858_41
 10744   002470  EF3C  F012         	goto	i2u858_40
 10745   002474                     i2u858_41:
 10746   002474  EF50  F012         	goto	i2l1213
 10747   002478                     i2u858_40:
 10748   002478  AC81               	btfss	129,6,c	;volatile
 10749   00247A  EF41  F012         	goto	i2u859_41
 10750   00247E  EF43  F012         	goto	i2u859_40
 10751   002482                     i2u859_41:
 10752   002482  EF50  F012         	goto	i2l1213
 10753   002486                     i2u859_40:
 10754   002486  045A               	decf	_RB6_flag^0,w,c	;volatile
 10755   002488  A4D8               	btfss	status,2,c
 10756   00248A  EF49  F012         	goto	i2u860_41
 10757   00248E  EF4B  F012         	goto	i2u860_40
 10758   002492                     i2u860_41:
 10759   002492  EF50  F012         	goto	i2l1213
 10760   002496                     i2u860_40:
 10761   002496                     
 10762                           ;MCAL_Layer/Interrupt/mcal_interrupt_manager.c: 90:     {;MCAL_Layer/Interrupt/mcal_inte
      +                          rrupt_manager.c: 91:          RB6_flag = 0;
 10763   002496  0E00               	movlw	0
 10764   002498  6E5A               	movwf	_RB6_flag^0,c	;volatile
 10765   00249A                     
 10766                           ;MCAL_Layer/Interrupt/mcal_interrupt_manager.c: 92:        RB6_ISR(0);
 10767   00249A  0E00               	movlw	0
 10768   00249C  EC22  F01F         	call	_RB6_ISR
 10769   0024A0                     i2l1213:
 10770                           
 10771                           ;MCAL_Layer/Interrupt/mcal_interrupt_manager.c: 95:     if((1 == INTCONbits.RBIE) && (1 
      +                          == INTCONbits.RBIF)
 10772   0024A0  A6F2               	btfss	242,3,c	;volatile
 10773   0024A2  EF55  F012         	goto	i2u861_41
 10774   0024A6  EF57  F012         	goto	i2u861_40
 10775   0024AA                     i2u861_41:
 10776   0024AA  EF72  F012         	goto	i2l10031
 10777   0024AE                     i2u861_40:
 10778   0024AE  A0F2               	btfss	242,0,c	;volatile
 10779   0024B0  EF5C  F012         	goto	i2u862_41
 10780   0024B4  EF5E  F012         	goto	i2u862_40
 10781   0024B8                     i2u862_41:
 10782   0024B8  EF72  F012         	goto	i2l10031
 10783   0024BC                     i2u862_40:
 10784   0024BC  BC81               	btfsc	129,6,c	;volatile
 10785   0024BE  EF63  F012         	goto	i2u863_41
 10786   0024C2  EF65  F012         	goto	i2u863_40
 10787   0024C6                     i2u863_41:
 10788   0024C6  EF72  F012         	goto	i2l10031
 10789   0024CA                     i2u863_40:
 10790   0024CA  505A               	movf	_RB6_flag^0,w,c	;volatile
 10791   0024CC  A4D8               	btfss	status,2,c
 10792   0024CE  EF6B  F012         	goto	i2u864_41
 10793   0024D2  EF6D  F012         	goto	i2u864_40
 10794   0024D6                     i2u864_41:
 10795   0024D6  EF72  F012         	goto	i2l10031
 10796   0024DA                     i2u864_40:
 10797   0024DA                     
 10798                           ;MCAL_Layer/Interrupt/mcal_interrupt_manager.c: 97:     {;MCAL_Layer/Interrupt/mcal_inte
      +                          rrupt_manager.c: 98:         RB6_flag = 1;
 10799   0024DA  0E01               	movlw	1
 10800   0024DC  6E5A               	movwf	_RB6_flag^0,c	;volatile
 10801   0024DE                     
 10802                           ;MCAL_Layer/Interrupt/mcal_interrupt_manager.c: 99:        RB6_ISR(1);
 10803   0024DE  0E01               	movlw	1
 10804   0024E0  EC22  F01F         	call	_RB6_ISR
 10805   0024E4                     i2l10031:
 10806                           
 10807                           ;MCAL_Layer/Interrupt/mcal_interrupt_manager.c: 101:     if((1 == INTCONbits.RBIE) && (1
      +                           == INTCONbits.RBIF)
 10808   0024E4  A6F2               	btfss	242,3,c	;volatile
 10809   0024E6  EF77  F012         	goto	i2u865_41
 10810   0024EA  EF79  F012         	goto	i2u865_40
 10811   0024EE                     i2u865_41:
 10812   0024EE  EF94  F012         	goto	i2l1216
 10813   0024F2                     i2u865_40:
 10814   0024F2  A0F2               	btfss	242,0,c	;volatile
 10815   0024F4  EF7E  F012         	goto	i2u866_41
 10816   0024F8  EF80  F012         	goto	i2u866_40
 10817   0024FC                     i2u866_41:
 10818   0024FC  EF94  F012         	goto	i2l1216
 10819   002500                     i2u866_40:
 10820   002500  AE81               	btfss	129,7,c	;volatile
 10821   002502  EF85  F012         	goto	i2u867_41
 10822   002506  EF87  F012         	goto	i2u867_40
 10823   00250A                     i2u867_41:
 10824   00250A  EF94  F012         	goto	i2l1216
 10825   00250E                     i2u867_40:
 10826   00250E  0459               	decf	_RB7_flag^0,w,c	;volatile
 10827   002510  A4D8               	btfss	status,2,c
 10828   002512  EF8D  F012         	goto	i2u868_41
 10829   002516  EF8F  F012         	goto	i2u868_40
 10830   00251A                     i2u868_41:
 10831   00251A  EF94  F012         	goto	i2l1216
 10832   00251E                     i2u868_40:
 10833   00251E                     
 10834                           ;MCAL_Layer/Interrupt/mcal_interrupt_manager.c: 103:     {;MCAL_Layer/Interrupt/mcal_int
      +                          errupt_manager.c: 104:          RB7_flag = 0;
 10835   00251E  0E00               	movlw	0
 10836   002520  6E59               	movwf	_RB7_flag^0,c	;volatile
 10837   002522                     
 10838                           ;MCAL_Layer/Interrupt/mcal_interrupt_manager.c: 105:        RB7_ISR(0);
 10839   002522  0E00               	movlw	0
 10840   002524  EC15  F01F         	call	_RB7_ISR
 10841   002528                     i2l1216:
 10842                           
 10843                           ;MCAL_Layer/Interrupt/mcal_interrupt_manager.c: 108:     if((1 == INTCONbits.RBIE) && (1
      +                           == INTCONbits.RBIF)
 10844   002528  A6F2               	btfss	242,3,c	;volatile
 10845   00252A  EF99  F012         	goto	i2u869_41
 10846   00252E  EF9B  F012         	goto	i2u869_40
 10847   002532                     i2u869_41:
 10848   002532  EFB6  F012         	goto	i2l10053
 10849   002536                     i2u869_40:
 10850   002536  A0F2               	btfss	242,0,c	;volatile
 10851   002538  EFA0  F012         	goto	i2u870_41
 10852   00253C  EFA2  F012         	goto	i2u870_40
 10853   002540                     i2u870_41:
 10854   002540  EFB6  F012         	goto	i2l10053
 10855   002544                     i2u870_40:
 10856   002544  BE81               	btfsc	129,7,c	;volatile
 10857   002546  EFA7  F012         	goto	i2u871_41
 10858   00254A  EFA9  F012         	goto	i2u871_40
 10859   00254E                     i2u871_41:
 10860   00254E  EFB6  F012         	goto	i2l10053
 10861   002552                     i2u871_40:
 10862   002552  5059               	movf	_RB7_flag^0,w,c	;volatile
 10863   002554  A4D8               	btfss	status,2,c
 10864   002556  EFAF  F012         	goto	i2u872_41
 10865   00255A  EFB1  F012         	goto	i2u872_40
 10866   00255E                     i2u872_41:
 10867   00255E  EFB6  F012         	goto	i2l10053
 10868   002562                     i2u872_40:
 10869   002562                     
 10870                           ;MCAL_Layer/Interrupt/mcal_interrupt_manager.c: 110:     {;MCAL_Layer/Interrupt/mcal_int
      +                          errupt_manager.c: 111:         RB7_flag = 1;
 10871   002562  0E01               	movlw	1
 10872   002564  6E59               	movwf	_RB7_flag^0,c	;volatile
 10873   002566                     
 10874                           ;MCAL_Layer/Interrupt/mcal_interrupt_manager.c: 112:        RB7_ISR(1);
 10875   002566  0E01               	movlw	1
 10876   002568  EC15  F01F         	call	_RB7_ISR
 10877   00256C                     i2l10053:
 10878                           
 10879                           ;MCAL_Layer/Interrupt/mcal_interrupt_manager.c: 115:     if((1 == PIE1bits.ADIE) && (1 =
      +                          = PIR1bits.ADIF) )
 10880   00256C  AC9D               	btfss	157,6,c	;volatile
 10881   00256E  EFBB  F012         	goto	i2u873_41
 10882   002572  EFBD  F012         	goto	i2u873_40
 10883   002576                     i2u873_41:
 10884   002576  EFC6  F012         	goto	i2l10059
 10885   00257A                     i2u873_40:
 10886   00257A  AC9E               	btfss	158,6,c	;volatile
 10887   00257C  EFC2  F012         	goto	i2u874_41
 10888   002580  EFC4  F012         	goto	i2u874_40
 10889   002584                     i2u874_41:
 10890   002584  EFC6  F012         	goto	i2l10059
 10891   002588                     i2u874_40:
 10892   002588                     
 10893                           ;MCAL_Layer/Interrupt/mcal_interrupt_manager.c: 116:     {;MCAL_Layer/Interrupt/mcal_int
      +                          errupt_manager.c: 117:        ADC_ISR();
 10894   002588  EC76  F01F         	call	_ADC_ISR	;wreg free
 10895   00258C                     i2l10059:
 10896                           
 10897                           ;MCAL_Layer/Interrupt/mcal_interrupt_manager.c: 121:     if((1 == INTCONbits.TMR0IE) && 
      +                          (1 == INTCONbits.TMR0IF) )
 10898   00258C  AAF2               	btfss	242,5,c	;volatile
 10899   00258E  EFCB  F012         	goto	i2u875_41
 10900   002592  EFCD  F012         	goto	i2u875_40
 10901   002596                     i2u875_41:
 10902   002596  EFD6  F012         	goto	i2l10065
 10903   00259A                     i2u875_40:
 10904   00259A  A4F2               	btfss	242,2,c	;volatile
 10905   00259C  EFD2  F012         	goto	i2u876_41
 10906   0025A0  EFD4  F012         	goto	i2u876_40
 10907   0025A4                     i2u876_41:
 10908   0025A4  EFD6  F012         	goto	i2l10065
 10909   0025A8                     i2u876_40:
 10910   0025A8                     
 10911                           ;MCAL_Layer/Interrupt/mcal_interrupt_manager.c: 122:     {;MCAL_Layer/Interrupt/mcal_int
      +                          errupt_manager.c: 123:        TIMER0_ISR();
 10912   0025A8  EC73  F01E         	call	_TIMER0_ISR	;wreg free
 10913   0025AC                     i2l10065:
 10914                           
 10915                           ;MCAL_Layer/Interrupt/mcal_interrupt_manager.c: 126:     if((1 == PIE1bits.TMR1IE) && (1
      +                           == PIR1bits.TMR1IF) )
 10916   0025AC  A09D               	btfss	157,0,c	;volatile
 10917   0025AE  EFDB  F012         	goto	i2u877_41
 10918   0025B2  EFDD  F012         	goto	i2u877_40
 10919   0025B6                     i2u877_41:
 10920   0025B6  EFE6  F012         	goto	i2l10071
 10921   0025BA                     i2u877_40:
 10922   0025BA  A09E               	btfss	158,0,c	;volatile
 10923   0025BC  EFE2  F012         	goto	i2u878_41
 10924   0025C0  EFE4  F012         	goto	i2u878_40
 10925   0025C4                     i2u878_41:
 10926   0025C4  EFE6  F012         	goto	i2l10071
 10927   0025C8                     i2u878_40:
 10928   0025C8                     
 10929                           ;MCAL_Layer/Interrupt/mcal_interrupt_manager.c: 127:     {;MCAL_Layer/Interrupt/mcal_int
      +                          errupt_manager.c: 128:        TIMER1_ISR();
 10930   0025C8  EC59  F01F         	call	_TIMER1_ISR	;wreg free
 10931   0025CC                     i2l10071:
 10932                           
 10933                           ;MCAL_Layer/Interrupt/mcal_interrupt_manager.c: 131:     if((1 == PIE1bits.TMR2IE) && (1
      +                           == PIR1bits.TMR2IF) )
 10934   0025CC  A29D               	btfss	157,1,c	;volatile
 10935   0025CE  EFEB  F012         	goto	i2u879_41
 10936   0025D2  EFED  F012         	goto	i2u879_40
 10937   0025D6                     i2u879_41:
 10938   0025D6  EFF6  F012         	goto	i2l10077
 10939   0025DA                     i2u879_40:
 10940   0025DA  A29E               	btfss	158,1,c	;volatile
 10941   0025DC  EFF2  F012         	goto	i2u880_41
 10942   0025E0  EFF4  F012         	goto	i2u880_40
 10943   0025E4                     i2u880_41:
 10944   0025E4  EFF6  F012         	goto	i2l10077
 10945   0025E8                     i2u880_40:
 10946   0025E8                     
 10947                           ;MCAL_Layer/Interrupt/mcal_interrupt_manager.c: 132:     {;MCAL_Layer/Interrupt/mcal_int
      +                          errupt_manager.c: 133:        TIMER2_ISR();
 10948   0025E8  EC5E  F01F         	call	_TIMER2_ISR	;wreg free
 10949   0025EC                     i2l10077:
 10950                           
 10951                           ;MCAL_Layer/Interrupt/mcal_interrupt_manager.c: 136:     if((1 == PIE2bits.TMR3IE) && (1
      +                           == PIR2bits.TMR3IF) )
 10952   0025EC  A2A0               	btfss	160,1,c	;volatile
 10953   0025EE  EFFB  F012         	goto	i2u881_41
 10954   0025F2  EFFD  F012         	goto	i2u881_40
 10955   0025F6                     i2u881_41:
 10956   0025F6  EF06  F013         	goto	i2l10083
 10957   0025FA                     i2u881_40:
 10958   0025FA  A2A1               	btfss	161,1,c	;volatile
 10959   0025FC  EF02  F013         	goto	i2u882_41
 10960   002600  EF04  F013         	goto	i2u882_40
 10961   002604                     i2u882_41:
 10962   002604  EF06  F013         	goto	i2l10083
 10963   002608                     i2u882_40:
 10964   002608                     
 10965                           ;MCAL_Layer/Interrupt/mcal_interrupt_manager.c: 137:     {;MCAL_Layer/Interrupt/mcal_int
      +                          errupt_manager.c: 138:        TIMER3_ISR();
 10966   002608  EC53  F01F         	call	_TIMER3_ISR	;wreg free
 10967   00260C                     i2l10083:
 10968                           
 10969                           ;MCAL_Layer/Interrupt/mcal_interrupt_manager.c: 141:     if((1 == PIE1bits.CCP1IE) && (1
      +                           == PIR1bits.CCP1IF) )
 10970   00260C  A49D               	btfss	157,2,c	;volatile
 10971   00260E  EF0B  F013         	goto	i2u883_41
 10972   002612  EF0D  F013         	goto	i2u883_40
 10973   002616                     i2u883_41:
 10974   002616  EF16  F013         	goto	i2l10089
 10975   00261A                     i2u883_40:
 10976   00261A  A49E               	btfss	158,2,c	;volatile
 10977   00261C  EF12  F013         	goto	i2u884_41
 10978   002620  EF14  F013         	goto	i2u884_40
 10979   002624                     i2u884_41:
 10980   002624  EF16  F013         	goto	i2l10089
 10981   002628                     i2u884_40:
 10982   002628                     
 10983                           ;MCAL_Layer/Interrupt/mcal_interrupt_manager.c: 142:     {;MCAL_Layer/Interrupt/mcal_int
      +                          errupt_manager.c: 143:        CCP1_ISR();
 10984   002628  EC72  F01F         	call	_CCP1_ISR	;wreg free
 10985   00262C                     i2l10089:
 10986                           
 10987                           ;MCAL_Layer/Interrupt/mcal_interrupt_manager.c: 146:     if((1 == PIE2bits.CCP2IE) && (1
      +                           == PIR2bits.CCP2IF) )
 10988   00262C  A0A0               	btfss	160,0,c	;volatile
 10989   00262E  EF1B  F013         	goto	i2u885_41
 10990   002632  EF1D  F013         	goto	i2u885_40
 10991   002636                     i2u885_41:
 10992   002636  EF26  F013         	goto	i2l10095
 10993   00263A                     i2u885_40:
 10994   00263A  A0A1               	btfss	161,0,c	;volatile
 10995   00263C  EF22  F013         	goto	i2u886_41
 10996   002640  EF24  F013         	goto	i2u886_40
 10997   002644                     i2u886_41:
 10998   002644  EF26  F013         	goto	i2l10095
 10999   002648                     i2u886_40:
 11000   002648                     
 11001                           ;MCAL_Layer/Interrupt/mcal_interrupt_manager.c: 147:     {;MCAL_Layer/Interrupt/mcal_int
      +                          errupt_manager.c: 148:        CCP2_ISR();
 11002   002648  EC70  F01F         	call	_CCP2_ISR	;wreg free
 11003   00264C                     i2l10095:
 11004                           
 11005                           ;MCAL_Layer/Interrupt/mcal_interrupt_manager.c: 151:     if((1 == PIE1bits.CCP1IE) && (1
      +                           == PIR1bits.CCP1IF) )
 11006   00264C  A49D               	btfss	157,2,c	;volatile
 11007   00264E  EF2B  F013         	goto	i2u887_41
 11008   002652  EF2D  F013         	goto	i2u887_40
 11009   002656                     i2u887_41:
 11010   002656  EF36  F013         	goto	i2l10101
 11011   00265A                     i2u887_40:
 11012   00265A  A49E               	btfss	158,2,c	;volatile
 11013   00265C  EF32  F013         	goto	i2u888_41
 11014   002660  EF34  F013         	goto	i2u888_40
 11015   002664                     i2u888_41:
 11016   002664  EF36  F013         	goto	i2l10101
 11017   002668                     i2u888_40:
 11018   002668                     
 11019                           ;MCAL_Layer/Interrupt/mcal_interrupt_manager.c: 152:     {;MCAL_Layer/Interrupt/mcal_int
      +                          errupt_manager.c: 153:        ECCP_ISR();
 11020   002668  EC6E  F01F         	call	_ECCP_ISR	;wreg free
 11021   00266C                     i2l10101:
 11022                           
 11023                           ;MCAL_Layer/Interrupt/mcal_interrupt_manager.c: 156:     if((1 == PIE1bits.TXIE) && (1 =
      +                          = PIR1bits.TXIF) )
 11024   00266C  A89D               	btfss	157,4,c	;volatile
 11025   00266E  EF3B  F013         	goto	i2u889_41
 11026   002672  EF3D  F013         	goto	i2u889_40
 11027   002676                     i2u889_41:
 11028   002676  EF46  F013         	goto	i2l10107
 11029   00267A                     i2u889_40:
 11030   00267A  A89E               	btfss	158,4,c	;volatile
 11031   00267C  EF42  F013         	goto	i2u890_41
 11032   002680  EF44  F013         	goto	i2u890_40
 11033   002684                     i2u890_41:
 11034   002684  EF46  F013         	goto	i2l10107
 11035   002688                     i2u890_40:
 11036   002688                     
 11037                           ;MCAL_Layer/Interrupt/mcal_interrupt_manager.c: 157:     {;MCAL_Layer/Interrupt/mcal_int
      +                          errupt_manager.c: 158:        USART_TX_ISR();
 11038   002688  EC62  F01F         	call	_USART_TX_ISR	;wreg free
 11039   00268C                     i2l10107:
 11040                           
 11041                           ;MCAL_Layer/Interrupt/mcal_interrupt_manager.c: 161:     if((1 == PIE1bits.RCIE) && (1 =
      +                          = PIR1bits.RCIF) )
 11042   00268C  AA9D               	btfss	157,5,c	;volatile
 11043   00268E  EF4B  F013         	goto	i2u891_41
 11044   002692  EF4D  F013         	goto	i2u891_40
 11045   002696                     i2u891_41:
 11046   002696  EF56  F013         	goto	i2l10113
 11047   00269A                     i2u891_40:
 11048   00269A  AA9E               	btfss	158,5,c	;volatile
 11049   00269C  EF52  F013         	goto	i2u892_41
 11050   0026A0  EF54  F013         	goto	i2u892_40
 11051   0026A4                     i2u892_41:
 11052   0026A4  EF56  F013         	goto	i2l10113
 11053   0026A8                     i2u892_40:
 11054   0026A8                     
 11055                           ;MCAL_Layer/Interrupt/mcal_interrupt_manager.c: 162:     {;MCAL_Layer/Interrupt/mcal_int
      +                          errupt_manager.c: 163:        USART_RX_ISR();
 11056   0026A8  EC74  F01F         	call	_USART_RX_ISR	;wreg free
 11057   0026AC                     i2l10113:
 11058                           
 11059                           ;MCAL_Layer/Interrupt/mcal_interrupt_manager.c: 166:     if((1 == PIE1bits.SSPIE) && (1 
      +                          == PIR1bits.SSPIF) )
 11060   0026AC  A69D               	btfss	157,3,c	;volatile
 11061   0026AE  EF5B  F013         	goto	i2u893_41
 11062   0026B2  EF5D  F013         	goto	i2u893_40
 11063   0026B6                     i2u893_41:
 11064   0026B6  EF66  F013         	goto	i2l10119
 11065   0026BA                     i2u893_40:
 11066   0026BA  A69E               	btfss	158,3,c	;volatile
 11067   0026BC  EF62  F013         	goto	i2u894_41
 11068   0026C0  EF64  F013         	goto	i2u894_40
 11069   0026C4                     i2u894_41:
 11070   0026C4  EF66  F013         	goto	i2l10119
 11071   0026C8                     i2u894_40:
 11072   0026C8                     
 11073                           ;MCAL_Layer/Interrupt/mcal_interrupt_manager.c: 167:     {;MCAL_Layer/Interrupt/mcal_int
      +                          errupt_manager.c: 168:        SPI_ISR();
 11074   0026C8  EC75  F01F         	call	_SPI_ISR	;wreg free
 11075   0026CC                     i2l10119:
 11076                           
 11077                           ;MCAL_Layer/Interrupt/mcal_interrupt_manager.c: 171:     if((1 == PIE1bits.SSPIE) && (1 
      +                          == PIR1bits.SSPIF) )
 11078   0026CC  A69D               	btfss	157,3,c	;volatile
 11079   0026CE  EF6B  F013         	goto	i2u895_41
 11080   0026D2  EF6D  F013         	goto	i2u895_40
 11081   0026D6                     i2u895_41:
 11082   0026D6  EF76  F013         	goto	i2l10125
 11083   0026DA                     i2u895_40:
 11084   0026DA  A69E               	btfss	158,3,c	;volatile
 11085   0026DC  EF72  F013         	goto	i2u896_41
 11086   0026E0  EF74  F013         	goto	i2u896_40
 11087   0026E4                     i2u896_41:
 11088   0026E4  EF76  F013         	goto	i2l10125
 11089   0026E8                     i2u896_40:
 11090   0026E8                     
 11091                           ;MCAL_Layer/Interrupt/mcal_interrupt_manager.c: 172:     {;MCAL_Layer/Interrupt/mcal_int
      +                          errupt_manager.c: 173:        MSSP_I2C_ISR();
 11092   0026E8  EC64  F01F         	call	_MSSP_I2C_ISR	;wreg free
 11093   0026EC                     i2l10125:
 11094                           
 11095                           ;MCAL_Layer/Interrupt/mcal_interrupt_manager.c: 176:     if((1 == PIE2bits.BCLIE) && (1 
      +                          == PIR2bits.BCLIF) )
 11096   0026EC  A6A0               	btfss	160,3,c	;volatile
 11097   0026EE  EF7B  F013         	goto	i2u897_41
 11098   0026F2  EF7D  F013         	goto	i2u897_40
 11099   0026F6                     i2u897_41:
 11100   0026F6  EF86  F013         	goto	i2l1231
 11101   0026FA                     i2u897_40:
 11102   0026FA  A6A1               	btfss	161,3,c	;volatile
 11103   0026FC  EF82  F013         	goto	i2u898_41
 11104   002700  EF84  F013         	goto	i2u898_40
 11105   002704                     i2u898_41:
 11106   002704  EF86  F013         	goto	i2l1231
 11107   002708                     i2u898_40:
 11108   002708                     
 11109                           ;MCAL_Layer/Interrupt/mcal_interrupt_manager.c: 177:     {;MCAL_Layer/Interrupt/mcal_int
      +                          errupt_manager.c: 178:        MSSP_I2C_BC_ISR();
 11110   002708  EC66  F01F         	call	_MSSP_I2C_BC_ISR	;wreg free
 11111   00270C                     i2l1231:
 11112   00270C  C032  FFF5         	movff	??_InterruptManagerHigh+9,tablat
 11113   002710  C031  FFF8         	movff	??_InterruptManagerHigh+8,tblptru
 11114   002714  C030  FFF7         	movff	??_InterruptManagerHigh+7,tblptrh
 11115   002718  C02F  FFF6         	movff	??_InterruptManagerHigh+6,tblptrl
 11116   00271C  C02E  FFF4         	movff	??_InterruptManagerHigh+5,prodh
 11117   002720  C02D  FFF3         	movff	??_InterruptManagerHigh+4,prodl
 11118   002724  C02C  FFDA         	movff	??_InterruptManagerHigh+3,fsr2h
 11119   002728  C02B  FFD9         	movff	??_InterruptManagerHigh+2,fsr2l
 11120   00272C  C02A  FFFB         	movff	??_InterruptManagerHigh+1,pclatu
 11121   002730  C029  FFFA         	movff	??_InterruptManagerHigh,pclath
 11122   002734  9265               	bcf	int$flags,1,c	;clear compiler interrupt flag (level 2)
 11123   002736  0011               	retfie		f
 11124   002738                     __end_of_InterruptManagerHigh:
 11125                           	callstack 0
 11126                           
 11127 ;; *************** function _USART_TX_ISR *****************
 11128 ;; Defined at:
 11129 ;;		line 282 in file "MCAL_Layer/USART/hal_usart.c"
 11130 ;; Parameters:    Size  Location     Type
 11131 ;;		None
 11132 ;; Auto vars:     Size  Location     Type
 11133 ;;		None
 11134 ;; Return value:  Size  Location     Type
 11135 ;;                  1    wreg      void 
 11136 ;; Registers used:
 11137 ;;		None
 11138 ;; Tracked objects:
 11139 ;;		On entry : 0/0
 11140 ;;		On exit  : 0/0
 11141 ;;		Unchanged: 0/0
 11142 ;; Data sizes:     COMRAM   BANK0   BANK1   BANK2   BANK3   BANK4   BANK5   BANK6   BANK7   BANK8   BANK9  BANK10  BANK1
      +1  BANK12  BANK13  BANK14  BANK15
 11143 ;;      Params:         0       0       0       0       0       0       0       0       0       0       0       0       
      +0       0       0       0       0
 11144 ;;      Locals:         0       0       0       0       0       0       0       0       0       0       0       0       
      +0       0       0       0       0
 11145 ;;      Temps:          0       0       0       0       0       0       0       0       0       0       0       0       
      +0       0       0       0       0
 11146 ;;      Totals:         0       0       0       0       0       0       0       0       0       0       0       0       
      +0       0       0       0       0
 11147 ;;Total ram usage:        0 bytes
 11148 ;; Hardware stack levels used: 1
 11149 ;; This function calls:
 11150 ;;		Nothing
 11151 ;; This function is called by:
 11152 ;;		_InterruptManagerHigh
 11153 ;; This function uses a non-reentrant model
 11154 ;;
 11155                           
 11156                           	psect	text31
 11157   003EC4                     __ptext31:
 11158                           	callstack 0
 11159   003EC4                     _USART_TX_ISR:
 11160                           	callstack 23
 11161   003EC4                     
 11162                           ;MCAL_Layer/USART/hal_usart.c: 286:     PIE1bits.TXIE = 0;
 11163   003EC4  989D               	bcf	157,4,c	;volatile
 11164   003EC6  0012               	return		;funcret
 11165   003EC8                     __end_of_USART_TX_ISR:
 11166                           	callstack 0
 11167                           
 11168 ;; *************** function _USART_RX_ISR *****************
 11169 ;; Defined at:
 11170 ;;		line 293 in file "MCAL_Layer/USART/hal_usart.c"
 11171 ;; Parameters:    Size  Location     Type
 11172 ;;		None
 11173 ;; Auto vars:     Size  Location     Type
 11174 ;;		None
 11175 ;; Return value:  Size  Location     Type
 11176 ;;                  1    wreg      void 
 11177 ;; Registers used:
 11178 ;;		wreg, status,2, status,0
 11179 ;; Tracked objects:
 11180 ;;		On entry : 0/0
 11181 ;;		On exit  : 0/0
 11182 ;;		Unchanged: 0/0
 11183 ;; Data sizes:     COMRAM   BANK0   BANK1   BANK2   BANK3   BANK4   BANK5   BANK6   BANK7   BANK8   BANK9  BANK10  BANK1
      +1  BANK12  BANK13  BANK14  BANK15
 11184 ;;      Params:         0       0       0       0       0       0       0       0       0       0       0       0       
      +0       0       0       0       0
 11185 ;;      Locals:         0       0       0       0       0       0       0       0       0       0       0       0       
      +0       0       0       0       0
 11186 ;;      Temps:          0       0       0       0       0       0       0       0       0       0       0       0       
      +0       0       0       0       0
 11187 ;;      Totals:         0       0       0       0       0       0       0       0       0       0       0       0       
      +0       0       0       0       0
 11188 ;;Total ram usage:        0 bytes
 11189 ;; Hardware stack levels used: 1
 11190 ;; This function calls:
 11191 ;;		Nothing
 11192 ;; This function is called by:
 11193 ;;		_InterruptManagerHigh
 11194 ;; This function uses a non-reentrant model
 11195 ;;
 11196                           
 11197                           	psect	text32
 11198   003EE8                     __ptext32:
 11199                           	callstack 0
 11200   003EE8                     _USART_RX_ISR:
 11201                           	callstack 23
 11202   003EE8  0012               	return		;funcret
 11203   003EEA                     __end_of_USART_RX_ISR:
 11204                           	callstack 0
 11205                           
 11206 ;; *************** function _TIMER3_ISR *****************
 11207 ;; Defined at:
 11208 ;;		line 125 in file "MCAL_Layer/Timer3/mcal_timer3.c"
 11209 ;; Parameters:    Size  Location     Type
 11210 ;;		None
 11211 ;; Auto vars:     Size  Location     Type
 11212 ;;		None
 11213 ;; Return value:  Size  Location     Type
 11214 ;;                  1    wreg      void 
 11215 ;; Registers used:
 11216 ;;		wreg, status,2
 11217 ;; Tracked objects:
 11218 ;;		On entry : 0/0
 11219 ;;		On exit  : 0/0
 11220 ;;		Unchanged: 0/0
 11221 ;; Data sizes:     COMRAM   BANK0   BANK1   BANK2   BANK3   BANK4   BANK5   BANK6   BANK7   BANK8   BANK9  BANK10  BANK1
      +1  BANK12  BANK13  BANK14  BANK15
 11222 ;;      Params:         0       0       0       0       0       0       0       0       0       0       0       0       
      +0       0       0       0       0
 11223 ;;      Locals:         0       0       0       0       0       0       0       0       0       0       0       0       
      +0       0       0       0       0
 11224 ;;      Temps:          0       0       0       0       0       0       0       0       0       0       0       0       
      +0       0       0       0       0
 11225 ;;      Totals:         0       0       0       0       0       0       0       0       0       0       0       0       
      +0       0       0       0       0
 11226 ;;Total ram usage:        0 bytes
 11227 ;; Hardware stack levels used: 1
 11228 ;; This function calls:
 11229 ;;		Nothing
 11230 ;; This function is called by:
 11231 ;;		_InterruptManagerHigh
 11232 ;; This function uses a non-reentrant model
 11233 ;;
 11234                           
 11235                           	psect	text33
 11236   003EA6                     __ptext33:
 11237                           	callstack 0
 11238   003EA6                     _TIMER3_ISR:
 11239                           	callstack 23
 11240   003EA6                     
 11241                           ;MCAL_Layer/Timer3/mcal_timer3.c: 126:     (PIR2bits.TMR3IF = 0);
 11242   003EA6  92A1               	bcf	161,1,c	;volatile
 11243   003EA8                     
 11244                           ;MCAL_Layer/Timer3/mcal_timer3.c: 127:     TMR3H = (timer3_preload_value) >> 8;
 11245   003EA8  5034               	movf	(_timer3_preload_value+1)^0,w,c
 11246   003EAA  6EB3               	movwf	179,c	;volatile
 11247   003EAC                     
 11248                           ;MCAL_Layer/Timer3/mcal_timer3.c: 128:     TMR3L = (uint8)(timer3_preload_value);
 11249   003EAC  C033  FFB2         	movff	_timer3_preload_value,4018	;volatile
 11250   003EB0  0012               	return		;funcret
 11251   003EB2                     __end_of_TIMER3_ISR:
 11252                           	callstack 0
 11253                           
 11254 ;; *************** function _TIMER2_ISR *****************
 11255 ;; Defined at:
 11256 ;;		line 111 in file "MCAL_Layer/Timer2/mcal_timer2.c"
 11257 ;; Parameters:    Size  Location     Type
 11258 ;;		None
 11259 ;; Auto vars:     Size  Location     Type
 11260 ;;		None
 11261 ;; Return value:  Size  Location     Type
 11262 ;;                  1    wreg      void 
 11263 ;; Registers used:
 11264 ;;		None
 11265 ;; Tracked objects:
 11266 ;;		On entry : 0/0
 11267 ;;		On exit  : 0/0
 11268 ;;		Unchanged: 0/0
 11269 ;; Data sizes:     COMRAM   BANK0   BANK1   BANK2   BANK3   BANK4   BANK5   BANK6   BANK7   BANK8   BANK9  BANK10  BANK1
      +1  BANK12  BANK13  BANK14  BANK15
 11270 ;;      Params:         0       0       0       0       0       0       0       0       0       0       0       0       
      +0       0       0       0       0
 11271 ;;      Locals:         0       0       0       0       0       0       0       0       0       0       0       0       
      +0       0       0       0       0
 11272 ;;      Temps:          0       0       0       0       0       0       0       0       0       0       0       0       
      +0       0       0       0       0
 11273 ;;      Totals:         0       0       0       0       0       0       0       0       0       0       0       0       
      +0       0       0       0       0
 11274 ;;Total ram usage:        0 bytes
 11275 ;; Hardware stack levels used: 1
 11276 ;; This function calls:
 11277 ;;		Nothing
 11278 ;; This function is called by:
 11279 ;;		_InterruptManagerHigh
 11280 ;; This function uses a non-reentrant model
 11281 ;;
 11282                           
 11283                           	psect	text34
 11284   003EBC                     __ptext34:
 11285                           	callstack 0
 11286   003EBC                     _TIMER2_ISR:
 11287                           	callstack 23
 11288   003EBC                     
 11289                           ;MCAL_Layer/Timer2/mcal_timer2.c: 112:     (PIR1bits.TMR2IF = 0);
 11290   003EBC  929E               	bcf	158,1,c	;volatile
 11291                           
 11292                           ;MCAL_Layer/Timer2/mcal_timer2.c: 113:     TMR2 = (uint8)(pre_load);
 11293   003EBE  C035  FFCC         	movff	_pre_load@mcal_timer2$F3791,4044	;volatile
 11294   003EC2  0012               	return		;funcret
 11295   003EC4                     __end_of_TIMER2_ISR:
 11296                           	callstack 0
 11297                           
 11298 ;; *************** function _TIMER1_ISR *****************
 11299 ;; Defined at:
 11300 ;;		line 141 in file "MCAL_Layer/Timer1/mcal_timer1.c"
 11301 ;; Parameters:    Size  Location     Type
 11302 ;;		None
 11303 ;; Auto vars:     Size  Location     Type
 11304 ;;		None
 11305 ;; Return value:  Size  Location     Type
 11306 ;;                  1    wreg      void 
 11307 ;; Registers used:
 11308 ;;		wreg, status,2
 11309 ;; Tracked objects:
 11310 ;;		On entry : 0/0
 11311 ;;		On exit  : 0/0
 11312 ;;		Unchanged: 0/0
 11313 ;; Data sizes:     COMRAM   BANK0   BANK1   BANK2   BANK3   BANK4   BANK5   BANK6   BANK7   BANK8   BANK9  BANK10  BANK1
      +1  BANK12  BANK13  BANK14  BANK15
 11314 ;;      Params:         0       0       0       0       0       0       0       0       0       0       0       0       
      +0       0       0       0       0
 11315 ;;      Locals:         0       0       0       0       0       0       0       0       0       0       0       0       
      +0       0       0       0       0
 11316 ;;      Temps:          0       0       0       0       0       0       0       0       0       0       0       0       
      +0       0       0       0       0
 11317 ;;      Totals:         0       0       0       0       0       0       0       0       0       0       0       0       
      +0       0       0       0       0
 11318 ;;Total ram usage:        0 bytes
 11319 ;; Hardware stack levels used: 1
 11320 ;; This function calls:
 11321 ;;		Nothing
 11322 ;; This function is called by:
 11323 ;;		_InterruptManagerHigh
 11324 ;; This function uses a non-reentrant model
 11325 ;;
 11326                           
 11327                           	psect	text35
 11328   003EB2                     __ptext35:
 11329                           	callstack 0
 11330   003EB2                     _TIMER1_ISR:
 11331                           	callstack 23
 11332   003EB2                     
 11333                           ;MCAL_Layer/Timer1/mcal_timer1.c: 147:     TMR1H = (pre_load>>8);
 11334   003EB2  5038               	movf	(_pre_load@mcal_timer1$F3621+1)^0,w,c	;volatile
 11335   003EB4  6ECF               	movwf	207,c	;volatile
 11336   003EB6                     
 11337                           ;MCAL_Layer/Timer1/mcal_timer1.c: 148:     TMR1L = (uint8)(pre_load);
 11338   003EB6  C037  FFCE         	movff	_pre_load@mcal_timer1$F3621,4046	;volatile
 11339   003EBA  0012               	return		;funcret
 11340   003EBC                     __end_of_TIMER1_ISR:
 11341                           	callstack 0
 11342                           
 11343 ;; *************** function _TIMER0_ISR *****************
 11344 ;; Defined at:
 11345 ;;		line 180 in file "MCAL_Layer/Timer0/mcal_timer0.c"
 11346 ;; Parameters:    Size  Location     Type
 11347 ;;		None
 11348 ;; Auto vars:     Size  Location     Type
 11349 ;;		None
 11350 ;; Return value:  Size  Location     Type
 11351 ;;                  1    wreg      void 
 11352 ;; Registers used:
 11353 ;;		wreg, fsr2l, fsr2h, status,2, status,0, pcl, pclath, pclatu, tosl, tblptrl, tblptrh, tblptru, prodl, prodh, cstack
 11354 ;; Tracked objects:
 11355 ;;		On entry : 0/0
 11356 ;;		On exit  : 0/0
 11357 ;;		Unchanged: 0/0
 11358 ;; Data sizes:     COMRAM   BANK0   BANK1   BANK2   BANK3   BANK4   BANK5   BANK6   BANK7   BANK8   BANK9  BANK10  BANK1
      +1  BANK12  BANK13  BANK14  BANK15
 11359 ;;      Params:         0       0       0       0       0       0       0       0       0       0       0       0       
      +0       0       0       0       0
 11360 ;;      Locals:         0       0       0       0       0       0       0       0       0       0       0       0       
      +0       0       0       0       0
 11361 ;;      Temps:          0       0       0       0       0       0       0       0       0       0       0       0       
      +0       0       0       0       0
 11362 ;;      Totals:         0       0       0       0       0       0       0       0       0       0       0       0       
      +0       0       0       0       0
 11363 ;;Total ram usage:        0 bytes
 11364 ;; Hardware stack levels used: 1
 11365 ;; Hardware stack levels required when called: 6
 11366 ;; This function calls:
 11367 ;;		NULL
 11368 ;;		_timer0_isr
 11369 ;; This function is called by:
 11370 ;;		_InterruptManagerHigh
 11371 ;; This function uses a non-reentrant model
 11372 ;;
 11373                           
 11374                           	psect	text36
 11375   003CE6                     __ptext36:
 11376                           	callstack 0
 11377   003CE6                     _TIMER0_ISR:
 11378                           	callstack 17
 11379   003CE6                     
 11380                           ;MCAL_Layer/Timer0/mcal_timer0.c: 184:     (INTCONbits.TMR0IF = 0);
 11381   003CE6  94F2               	bcf	242,2,c	;volatile
 11382   003CE8                     
 11383                           ;MCAL_Layer/Timer0/mcal_timer0.c: 186:     TMR0H = ((pre_load)>>8);
 11384   003CE8  503A               	movf	(_pre_load+1)^0,w,c	;volatile
 11385   003CEA  6ED7               	movwf	215,c	;volatile
 11386   003CEC                     
 11387                           ;MCAL_Layer/Timer0/mcal_timer0.c: 187:     TMR0L = (uint8)(pre_load);
 11388   003CEC  C039  FFD6         	movff	_pre_load,4054	;volatile
 11389   003CF0                     
 11390                           ;MCAL_Layer/Timer0/mcal_timer0.c: 189:     if(((void*)0) == TIMER0_IntterruptHandeler){}
 11391   003CF0  503B               	movf	_TIMER0_IntterruptHandeler^0,w,c
 11392   003CF2  103C               	iorwf	(_TIMER0_IntterruptHandeler+1)^0,w,c
 11393   003CF4  A4D8               	btfss	status,2,c
 11394   003CF6  EF7F  F01E         	goto	i2u800_41
 11395   003CFA  EF81  F01E         	goto	i2u800_40
 11396   003CFE                     i2u800_41:
 11397   003CFE  EF83  F01E         	goto	i2l9593
 11398   003D02                     i2u800_40:
 11399   003D02  EF8F  F01E         	goto	i2l1390
 11400   003D06                     i2l9593:
 11401                           
 11402                           ;MCAL_Layer/Timer0/mcal_timer0.c: 191:         TIMER0_IntterruptHandeler ();
 11403   003D06  D802               	call	i2u801_48
 11404   003D08  EF8F  F01E         	goto	i2u801_49
 11405   003D0C                     i2u801_48:
 11406   003D0C  0005               	push	
 11407   003D0E  6EFA               	movwf	pclath,c
 11408   003D10  503B               	movf	_TIMER0_IntterruptHandeler^0,w,c
 11409   003D12  6EFD               	movwf	tosl,c
 11410   003D14  503C               	movf	(_TIMER0_IntterruptHandeler+1)^0,w,c
 11411   003D16  6EFE               	movwf	tosh,c
 11412   003D18  6AFF               	clrf	tosu,c
 11413   003D1A  50FA               	movf	pclath,w,c
 11414   003D1C  0012               	return		;indir
 11415   003D1E                     i2u801_49:
 11416   003D1E                     i2l1390:
 11417   003D1E  0012               	return		;funcret
 11418   003D20                     __end_of_TIMER0_ISR:
 11419                           	callstack 0
 11420                           
 11421 ;; *************** function _timer0_isr *****************
 11422 ;; Defined at:
 11423 ;;		line 499 in file "Application.c"
 11424 ;; Parameters:    Size  Location     Type
 11425 ;;		None
 11426 ;; Auto vars:     Size  Location     Type
 11427 ;;		None
 11428 ;; Return value:  Size  Location     Type
 11429 ;;                  1    wreg      void 
 11430 ;; Registers used:
 11431 ;;		wreg, fsr2l, fsr2h, status,2, status,0, tblptrl, tblptrh, tblptru, prodl, prodh, cstack
 11432 ;; Tracked objects:
 11433 ;;		On entry : 0/0
 11434 ;;		On exit  : 0/0
 11435 ;;		Unchanged: 0/0
 11436 ;; Data sizes:     COMRAM   BANK0   BANK1   BANK2   BANK3   BANK4   BANK5   BANK6   BANK7   BANK8   BANK9  BANK10  BANK1
      +1  BANK12  BANK13  BANK14  BANK15
 11437 ;;      Params:         0       0       0       0       0       0       0       0       0       0       0       0       
      +0       0       0       0       0
 11438 ;;      Locals:         0       0       0       0       0       0       0       0       0       0       0       0       
      +0       0       0       0       0
 11439 ;;      Temps:          2       0       0       0       0       0       0       0       0       0       0       0       
      +0       0       0       0       0
 11440 ;;      Totals:         2       0       0       0       0       0       0       0       0       0       0       0       
      +0       0       0       0       0
 11441 ;;Total ram usage:        2 bytes
 11442 ;; Hardware stack levels used: 1
 11443 ;; Hardware stack levels required when called: 5
 11444 ;; This function calls:
 11445 ;;		i2_lcd_send_ATpos_string_data
 11446 ;;		i2_lcd_send_command
 11447 ;; This function is called by:
 11448 ;;		_TIMER0_ISR
 11449 ;; This function uses a non-reentrant model
 11450 ;;
 11451                           
 11452                           	psect	text37
 11453   002FCC                     __ptext37:
 11454                           	callstack 0
 11455   002FCC                     _timer0_isr:
 11456                           	callstack 17
 11457   002FCC                     
 11458                           ;Application.c: 500:     count_sec_timer_flag++;
 11459   002FCC  2A49               	incf	_count_sec_timer_flag^0,f,c	;volatile
 11460   002FCE                     
 11461                           ;Application.c: 501:     if(2 == count_sec_timer_flag && (uint8)4 == Guest_pass_flag)
 11462   002FCE  0E02               	movlw	2
 11463   002FD0  1849               	xorwf	_count_sec_timer_flag^0,w,c	;volatile
 11464   002FD2  A4D8               	btfss	status,2,c
 11465   002FD4  EFEE  F017         	goto	i2u784_41
 11466   002FD8  EFF0  F017         	goto	i2u784_40
 11467   002FDC                     i2u784_41:
 11468   002FDC  EF47  F018         	goto	i2l1946
 11469   002FE0                     i2u784_40:
 11470   002FE0  0E04               	movlw	4
 11471   002FE2  0100               	movlb	0	; () banked
 11472   002FE4  19E8               	xorwf	_Guest_pass_flag& (0+255),w,b
 11473   002FE6  A4D8               	btfss	status,2,c
 11474   002FE8  EFF8  F017         	goto	i2u785_41
 11475   002FEC  EFFA  F017         	goto	i2u785_40
 11476   002FF0                     i2u785_41:
 11477   002FF0  EF47  F018         	goto	i2l1946
 11478   002FF4                     i2u785_40:
 11479   002FF4                     
 11480                           ; BSR set to: 0
 11481                           ;Application.c: 502:     {;Application.c: 503:         ret = lcd_send_command(&lcd1 , 0x
      +                          01);
 11482   002FF4  0E5D               	movlw	low _lcd1
 11483   002FF6  6E14               	movwf	i2lcd_send_command@_LCD_^0,c
 11484   002FF8  0E00               	movlw	high _lcd1
 11485   002FFA  6E15               	movwf	(i2lcd_send_command@_LCD_+1)^0,c
 11486   002FFC  0E01               	movlw	1
 11487   002FFE  6E16               	movwf	i2lcd_send_command@command^0,c
 11488   003000  EC93  F01B         	call	i2_lcd_send_command	;wreg free
 11489   003004  C014  F0FE         	movff	?i2_lcd_send_command,_ret
 11490   003008  C015  F0FF         	movff	?i2_lcd_send_command+1,_ret+1
 11491   00300C                     
 11492                           ;Application.c: 504:         ret = lcd_send_ATpos_string_data(&lcd1 , 1 , 1 , "session t
      +                          imeout");
 11493   00300C  0E5D               	movlw	low _lcd1
 11494   00300E  6E1F               	movwf	i2lcd_send_ATpos_string_data@_LCD_^0,c
 11495   003010  0E00               	movlw	high _lcd1
 11496   003012  6E20               	movwf	(i2lcd_send_ATpos_string_data@_LCD_+1)^0,c
 11497   003014  0E01               	movlw	1
 11498   003016  6E21               	movwf	i2lcd_send_ATpos_string_data@row^0,c
 11499   003018  0E01               	movlw	1
 11500   00301A  6E22               	movwf	i2lcd_send_ATpos_string_data@coulmns^0,c
 11501   00301C  0EA9               	movlw	low STR_85
 11502   00301E  6E23               	movwf	i2lcd_send_ATpos_string_data@str^0,c
 11503   003020  0EFE               	movlw	high STR_85
 11504   003022  6E24               	movwf	(i2lcd_send_ATpos_string_data@str+1)^0,c
 11505   003024  ECEE  F01C         	call	i2_lcd_send_ATpos_string_data	;wreg free
 11506   003028  C01F  F0FE         	movff	?i2_lcd_send_ATpos_string_data,_ret
 11507   00302C  C020  F0FF         	movff	?i2_lcd_send_ATpos_string_data+1,_ret+1
 11508   003030                     
 11509                           ;Application.c: 505:         ret = lcd_send_ATpos_string_data(&lcd1 , 2 , 1 , "restart t
      +                          he system ");
 11510   003030  0E5D               	movlw	low _lcd1
 11511   003032  6E1F               	movwf	i2lcd_send_ATpos_string_data@_LCD_^0,c
 11512   003034  0E00               	movlw	high _lcd1
 11513   003036  6E20               	movwf	(i2lcd_send_ATpos_string_data@_LCD_+1)^0,c
 11514   003038  0E02               	movlw	2
 11515   00303A  6E21               	movwf	i2lcd_send_ATpos_string_data@row^0,c
 11516   00303C  0E01               	movlw	1
 11517   00303E  6E22               	movwf	i2lcd_send_ATpos_string_data@coulmns^0,c
 11518   003040  0E3A               	movlw	low STR_86
 11519   003042  6E23               	movwf	i2lcd_send_ATpos_string_data@str^0,c
 11520   003044  0EFE               	movlw	high STR_86
 11521   003046  6E24               	movwf	(i2lcd_send_ATpos_string_data@str+1)^0,c
 11522   003048  ECEE  F01C         	call	i2_lcd_send_ATpos_string_data	;wreg free
 11523   00304C  C01F  F0FE         	movff	?i2_lcd_send_ATpos_string_data,_ret
 11524   003050  C020  F0FF         	movff	?i2_lcd_send_ATpos_string_data+1,_ret+1
 11525   003054                     
 11526                           ;Application.c: 506:         ret = lcd_send_ATpos_string_data(&lcd1 , 3 , 1 , "to enter 
      +                          again");
 11527   003054  0E5D               	movlw	low _lcd1
 11528   003056  6E1F               	movwf	i2lcd_send_ATpos_string_data@_LCD_^0,c
 11529   003058  0E00               	movlw	high _lcd1
 11530   00305A  6E20               	movwf	(i2lcd_send_ATpos_string_data@_LCD_+1)^0,c
 11531   00305C  0E03               	movlw	3
 11532   00305E  6E21               	movwf	i2lcd_send_ATpos_string_data@row^0,c
 11533   003060  0E01               	movlw	1
 11534   003062  6E22               	movwf	i2lcd_send_ATpos_string_data@coulmns^0,c
 11535   003064  0EB9               	movlw	low STR_87
 11536   003066  6E23               	movwf	i2lcd_send_ATpos_string_data@str^0,c
 11537   003068  0EFE               	movlw	high STR_87
 11538   00306A  6E24               	movwf	(i2lcd_send_ATpos_string_data@str+1)^0,c
 11539   00306C  ECEE  F01C         	call	i2_lcd_send_ATpos_string_data	;wreg free
 11540   003070  C01F  F0FE         	movff	?i2_lcd_send_ATpos_string_data,_ret
 11541   003074  C020  F0FF         	movff	?i2_lcd_send_ATpos_string_data+1,_ret+1
 11542   003078                     
 11543                           ;Application.c: 507:         _delay((unsigned long)((1000)*(4000000UL/4000.0)));
 11544   003078  0E06               	movlw	6
 11545   00307A  6E28               	movwf	(??_timer0_isr+1)^0,c
 11546   00307C  0E13               	movlw	19
 11547   00307E  6E27               	movwf	??_timer0_isr^0,c
 11548   003080  0EAE               	movlw	174
 11549   003082                     i2u1013_47:
 11550   003082  2EE8               	decfsz	wreg,f,c
 11551   003084  D7FE               	bra	i2u1013_47
 11552   003086  2E27               	decfsz	??_timer0_isr^0,f,c
 11553   003088  D7FC               	bra	i2u1013_47
 11554   00308A  2E28               	decfsz	(??_timer0_isr+1)^0,f,c
 11555   00308C  D7FA               	bra	i2u1013_47
 11556   00308E                     i2l1946:
 11557   00308E  0012               	return		;funcret
 11558   003090                     __end_of_timer0_isr:
 11559                           	callstack 0
 11560                           
 11561 ;; *************** function i2_lcd_send_ATpos_string_data *****************
 11562 ;; Defined at:
 11563 ;;		line 168 in file "ECU_Layer/Ch_LCD/ecu_ch_lcd.c"
 11564 ;; Parameters:    Size  Location     Type
 11565 ;;  _LCD_           2   30[COMRAM] PTR const struct .
 11566 ;;		 -> lcd1(6), 
 11567 ;;  row             1   32[COMRAM] unsigned char 
 11568 ;;  coulmns         1   33[COMRAM] unsigned char 
 11569 ;;  str             2   34[COMRAM] PTR unsigned char 
 11570 ;;		 -> STR_87(15), STR_86(20), STR_85(16), STR_84(13), 
 11571 ;;		 -> STR_83(13), STR_82(6), STR_81(9), STR_80(8), 
 11572 ;;		 -> STR_79(4), STR_78(4), STR_77(6), STR_76(13), 
 11573 ;;		 -> STR_75(6), STR_74(10), STR_73(9), STR_72(4), 
 11574 ;;		 -> STR_71(4), STR_70(9), STR_69(6), STR_68(11), 
 11575 ;;		 -> STR_67(5), STR_66(8), STR_65(13), STR_64(13), 
 11576 ;;		 -> STR_63(6), STR_62(10), STR_61(9), STR_60(4), 
 11577 ;;		 -> STR_59(4), STR_58(9), STR_57(13), STR_56(6), 
 11578 ;;		 -> STR_55(10), STR_54(9), STR_53(4), STR_52(4), 
 11579 ;;		 -> STR_51(9), STR_50(13), STR_49(6), STR_48(10), 
 11580 ;;		 -> STR_47(9), STR_46(4), STR_45(4), STR_44(9), 
 11581 ;;		 -> STR_43(13), STR_42(6), STR_41(10), STR_40(9), 
 11582 ;;		 -> STR_39(4), STR_38(4), STR_37(9), STR_36(13), 
 11583 ;;		 -> STR_35(7), STR_34(8), STR_33(8), STR_32(8), 
 11584 ;;		 -> STR_31(8), STR_30(13), STR_29(13), STR_28(13), 
 11585 ;;		 -> STR_27(18), STR_26(13), STR_25(18), STR_24(12), 
 11586 ;;		 -> STR_23(13), STR_22(16), STR_21(12), STR_20(13), 
 11587 ;;		 -> STR_19(12), STR_18(13), STR_17(16), STR_16(12), 
 11588 ;;		 -> STR_15(13), STR_14(9), STR_13(9), STR_12(14), 
 11589 ;;		 -> STR_11(19), STR_10(12), STR_9(19), STR_8(19), 
 11590 ;;		 -> STR_7(12), STR_6(19), STR_5(21), STR_4(8), 
 11591 ;; Auto vars:     Size  Location     Type
 11592 ;;  ret             2   36[COMRAM] unsigned int 
 11593 ;; Return value:  Size  Location     Type
 11594 ;;                  2   30[COMRAM] unsigned int 
 11595 ;; Registers used:
 11596 ;;		wreg, fsr2l, fsr2h, status,2, status,0, tblptrl, tblptrh, tblptru, prodl, prodh, cstack
 11597 ;; Tracked objects:
 11598 ;;		On entry : 0/0
 11599 ;;		On exit  : 0/0
 11600 ;;		Unchanged: 0/0
 11601 ;; Data sizes:     COMRAM   BANK0   BANK1   BANK2   BANK3   BANK4   BANK5   BANK6   BANK7   BANK8   BANK9  BANK10  BANK1
      +1  BANK12  BANK13  BANK14  BANK15
 11602 ;;      Params:         6       0       0       0       0       0       0       0       0       0       0       0       
      +0       0       0       0       0
 11603 ;;      Locals:         2       0       0       0       0       0       0       0       0       0       0       0       
      +0       0       0       0       0
 11604 ;;      Temps:          0       0       0       0       0       0       0       0       0       0       0       0       
      +0       0       0       0       0
 11605 ;;      Totals:         8       0       0       0       0       0       0       0       0       0       0       0       
      +0       0       0       0       0
 11606 ;;Total ram usage:        8 bytes
 11607 ;; Hardware stack levels used: 1
 11608 ;; Hardware stack levels required when called: 4
 11609 ;; This function calls:
 11610 ;;		i2_lcd_send_string_data
 11611 ;;		i2_lcd_set_cursor
 11612 ;; This function is called by:
 11613 ;;		_timer0_isr
 11614 ;; This function uses a non-reentrant model
 11615 ;;
 11616                           
 11617                           	psect	text38
 11618   0039DC                     __ptext38:
 11619                           	callstack 0
 11620   0039DC                     i2_lcd_send_ATpos_string_data:
 11621                           	callstack 17
 11622   0039DC                     
 11623                           ;ECU_Layer/Ch_LCD/ecu_ch_lcd.c: 172:     if(((void*)0) == _LCD_ || ((void*)0) == str)
 11624   0039DC  501F               	movf	i2lcd_send_ATpos_string_data@_LCD_^0,w,c
 11625   0039DE  1020               	iorwf	(i2lcd_send_ATpos_string_data@_LCD_+1)^0,w,c
 11626   0039E0  B4D8               	btfsc	status,2,c
 11627   0039E2  EFF5  F01C         	goto	i2u758_41
 11628   0039E6  EFF7  F01C         	goto	i2u758_40
 11629   0039EA                     i2u758_41:
 11630   0039EA  EF00  F01D         	goto	i2l9273
 11631   0039EE                     i2u758_40:
 11632   0039EE  5023               	movf	i2lcd_send_ATpos_string_data@str^0,w,c
 11633   0039F0  1024               	iorwf	(i2lcd_send_ATpos_string_data@str+1)^0,w,c
 11634   0039F2  A4D8               	btfss	status,2,c
 11635   0039F4  EFFE  F01C         	goto	i2u759_41
 11636   0039F8  EF00  F01D         	goto	i2u759_40
 11637   0039FC                     i2u759_41:
 11638   0039FC  EF06  F01D         	goto	i2l9275
 11639   003A00                     i2u759_40:
 11640   003A00                     i2l9273:
 11641                           
 11642                           ;ECU_Layer/Ch_LCD/ecu_ch_lcd.c: 173:     {;ECU_Layer/Ch_LCD/ecu_ch_lcd.c: 174:         r
      +                          et = (Std_ReturnType)0x00;
 11643   003A00  0E00               	movlw	0
 11644   003A02  6E26               	movwf	(i2lcd_send_ATpos_string_data@ret+1)^0,c
 11645   003A04  0E00               	movlw	0
 11646   003A06  6E25               	movwf	i2lcd_send_ATpos_string_data@ret^0,c
 11647                           
 11648                           ;ECU_Layer/Ch_LCD/ecu_ch_lcd.c: 175:     }
 11649   003A08  EF1E  F01D         	goto	i2l9279
 11650   003A0C                     i2l9275:
 11651                           
 11652                           ;ECU_Layer/Ch_LCD/ecu_ch_lcd.c: 177:     {;ECU_Layer/Ch_LCD/ecu_ch_lcd.c: 178:        lc
      +                          d_set_cursor(_LCD_ , row ,coulmns);
 11653   003A0C  C01F  F019         	movff	i2lcd_send_ATpos_string_data@_LCD_,i2lcd_set_cursor@_LCD_
 11654   003A10  C020  F01A         	movff	i2lcd_send_ATpos_string_data@_LCD_+1,i2lcd_set_cursor@_LCD_+1
 11655   003A14  C021  F01B         	movff	i2lcd_send_ATpos_string_data@row,i2lcd_set_cursor@row
 11656   003A18  C022  F01C         	movff	i2lcd_send_ATpos_string_data@coulmns,i2lcd_set_cursor@coulmn
 11657   003A1C  ECA3  F019         	call	i2_lcd_set_cursor	;wreg free
 11658   003A20                     
 11659                           ;ECU_Layer/Ch_LCD/ecu_ch_lcd.c: 179:        ret= lcd_send_string_data(_LCD_ ,str);
 11660   003A20  C01F  F019         	movff	i2lcd_send_ATpos_string_data@_LCD_,i2lcd_send_string_data@_LCD_
 11661   003A24  C020  F01A         	movff	i2lcd_send_ATpos_string_data@_LCD_+1,i2lcd_send_string_data@_LCD_+1
 11662   003A28  C023  F01B         	movff	i2lcd_send_ATpos_string_data@str,i2lcd_send_string_data@str
 11663   003A2C  C024  F01C         	movff	i2lcd_send_ATpos_string_data@str+1,i2lcd_send_string_data@str+1
 11664   003A30  ECCD  F01A         	call	i2_lcd_send_string_data	;wreg free
 11665   003A34  C019  F025         	movff	?i2_lcd_send_string_data,i2lcd_send_ATpos_string_data@ret
 11666   003A38  C01A  F026         	movff	?i2_lcd_send_string_data+1,i2lcd_send_ATpos_string_data@ret+1
 11667   003A3C                     i2l9279:
 11668                           
 11669                           ;ECU_Layer/Ch_LCD/ecu_ch_lcd.c: 181:     return ret;
 11670   003A3C  C025  F01F         	movff	i2lcd_send_ATpos_string_data@ret,?i2_lcd_send_ATpos_string_data
 11671   003A40  C026  F020         	movff	i2lcd_send_ATpos_string_data@ret+1,?i2_lcd_send_ATpos_string_data+1
 11672   003A44  0012               	return		;funcret
 11673   003A46                     __end_ofi2_lcd_send_ATpos_string_data:
 11674                           	callstack 0
 11675                           
 11676 ;; *************** function i2_lcd_set_cursor *****************
 11677 ;; Defined at:
 11678 ;;		line 292 in file "ECU_Layer/Ch_LCD/ecu_ch_lcd.c"
 11679 ;; Parameters:    Size  Location     Type
 11680 ;;  _LCD_           2   24[COMRAM] PTR const struct .
 11681 ;;		 -> lcd1(6), 
 11682 ;;  row             1   26[COMRAM] unsigned char 
 11683 ;;  coulmn          1   27[COMRAM] unsigned char 
 11684 ;; Auto vars:     Size  Location     Type
 11685 ;;		None
 11686 ;; Return value:  Size  Location     Type
 11687 ;;                  1    wreg      void 
 11688 ;; Registers used:
 11689 ;;		wreg, fsr2l, fsr2h, status,2, status,0, prodl, prodh, cstack
 11690 ;; Tracked objects:
 11691 ;;		On entry : 0/0
 11692 ;;		On exit  : 0/0
 11693 ;;		Unchanged: 0/0
 11694 ;; Data sizes:     COMRAM   BANK0   BANK1   BANK2   BANK3   BANK4   BANK5   BANK6   BANK7   BANK8   BANK9  BANK10  BANK1
      +1  BANK12  BANK13  BANK14  BANK15
 11695 ;;      Params:         4       0       0       0       0       0       0       0       0       0       0       0       
      +0       0       0       0       0
 11696 ;;      Locals:         0       0       0       0       0       0       0       0       0       0       0       0       
      +0       0       0       0       0
 11697 ;;      Temps:          2       0       0       0       0       0       0       0       0       0       0       0       
      +0       0       0       0       0
 11698 ;;      Totals:         6       0       0       0       0       0       0       0       0       0       0       0       
      +0       0       0       0       0
 11699 ;;Total ram usage:        6 bytes
 11700 ;; Hardware stack levels used: 1
 11701 ;; Hardware stack levels required when called: 3
 11702 ;; This function calls:
 11703 ;;		i2_lcd_send_command
 11704 ;; This function is called by:
 11705 ;;		i2_lcd_send_ATpos_string_data
 11706 ;; This function uses a non-reentrant model
 11707 ;;
 11708                           
 11709                           	psect	text39
 11710   003346                     __ptext39:
 11711                           	callstack 0
 11712   003346                     i2_lcd_set_cursor:
 11713                           	callstack 17
 11714   003346                     
 11715                           ;ECU_Layer/Ch_LCD/ecu_ch_lcd.c: 292: static void lcd_set_cursor(const Ch_LCD *_LCD_ ,uin
      +                          t8 row ,uint8 coulmn);ECU_Layer/Ch_LCD/ecu_ch_lcd.c: 293: {;ECU_Layer/Ch_LCD/ecu_ch_lcd.
      +                          c: 294:     coulmn--;
 11716   003346  061C               	decf	i2lcd_set_cursor@coulmn^0,f,c
 11717                           
 11718                           ;ECU_Layer/Ch_LCD/ecu_ch_lcd.c: 295:     switch(row)
 11719   003348  EFD2  F019         	goto	i2l9123
 11720   00334C                     i2l9115:
 11721                           
 11722                           ;ECU_Layer/Ch_LCD/ecu_ch_lcd.c: 298:             lcd_send_command(_LCD_ ,(0x80 +coulmn))
      +                          ;
 11723   00334C  C019  F014         	movff	i2lcd_set_cursor@_LCD_,i2lcd_send_command@_LCD_
 11724   003350  C01A  F015         	movff	i2lcd_set_cursor@_LCD_+1,i2lcd_send_command@_LCD_+1
 11725   003354  501C               	movf	i2lcd_set_cursor@coulmn^0,w,c
 11726   003356  0F80               	addlw	128
 11727   003358  6E16               	movwf	i2lcd_send_command@command^0,c
 11728   00335A  EC93  F01B         	call	i2_lcd_send_command	;wreg free
 11729                           
 11730                           ;ECU_Layer/Ch_LCD/ecu_ch_lcd.c: 299:             break;
 11731   00335E  EFEF  F019         	goto	i2l136
 11732   003362                     i2l9117:
 11733                           
 11734                           ;ECU_Layer/Ch_LCD/ecu_ch_lcd.c: 301:             lcd_send_command(_LCD_ ,(0xc0 +coulmn))
      +                          ;
 11735   003362  C019  F014         	movff	i2lcd_set_cursor@_LCD_,i2lcd_send_command@_LCD_
 11736   003366  C01A  F015         	movff	i2lcd_set_cursor@_LCD_+1,i2lcd_send_command@_LCD_+1
 11737   00336A  501C               	movf	i2lcd_set_cursor@coulmn^0,w,c
 11738   00336C  0FC0               	addlw	192
 11739   00336E  6E16               	movwf	i2lcd_send_command@command^0,c
 11740   003370  EC93  F01B         	call	i2_lcd_send_command	;wreg free
 11741                           
 11742                           ;ECU_Layer/Ch_LCD/ecu_ch_lcd.c: 302:             break;
 11743   003374  EFEF  F019         	goto	i2l136
 11744   003378                     i2l9119:
 11745                           
 11746                           ;ECU_Layer/Ch_LCD/ecu_ch_lcd.c: 304:             lcd_send_command(_LCD_ ,(0x94 +coulmn))
      +                          ;
 11747   003378  C019  F014         	movff	i2lcd_set_cursor@_LCD_,i2lcd_send_command@_LCD_
 11748   00337C  C01A  F015         	movff	i2lcd_set_cursor@_LCD_+1,i2lcd_send_command@_LCD_+1
 11749   003380  501C               	movf	i2lcd_set_cursor@coulmn^0,w,c
 11750   003382  0F94               	addlw	148
 11751   003384  6E16               	movwf	i2lcd_send_command@command^0,c
 11752   003386  EC93  F01B         	call	i2_lcd_send_command	;wreg free
 11753                           
 11754                           ;ECU_Layer/Ch_LCD/ecu_ch_lcd.c: 305:             break;
 11755   00338A  EFEF  F019         	goto	i2l136
 11756   00338E                     i2l9121:
 11757                           
 11758                           ;ECU_Layer/Ch_LCD/ecu_ch_lcd.c: 307:             lcd_send_command(_LCD_ ,(0xd4 +coulmn))
      +                          ;
 11759   00338E  C019  F014         	movff	i2lcd_set_cursor@_LCD_,i2lcd_send_command@_LCD_
 11760   003392  C01A  F015         	movff	i2lcd_set_cursor@_LCD_+1,i2lcd_send_command@_LCD_+1
 11761   003396  501C               	movf	i2lcd_set_cursor@coulmn^0,w,c
 11762   003398  0FD4               	addlw	212
 11763   00339A  6E16               	movwf	i2lcd_send_command@command^0,c
 11764   00339C  EC93  F01B         	call	i2_lcd_send_command	;wreg free
 11765                           
 11766                           ;ECU_Layer/Ch_LCD/ecu_ch_lcd.c: 308:             break;
 11767   0033A0  EFEF  F019         	goto	i2l136
 11768   0033A4                     i2l9123:
 11769   0033A4  501B               	movf	i2lcd_set_cursor@row^0,w,c
 11770   0033A6  6E1D               	movwf	??i2_lcd_set_cursor^0,c
 11771   0033A8  6A1E               	clrf	(??i2_lcd_set_cursor+1)^0,c
 11772                           
 11773                           ; Switch on 2 bytes has been partitioned into a top level switch of size 1, and 1 sub-sw
      +                          itches
 11774                           ; Switch size 1, requested type "simple"
 11775                           ; Number of cases is 1, Range of values is 0 to 0
 11776                           ; switch strategies available:
 11777                           ; Name         Instructions Cycles
 11778                           ; simple_byte            4     3 (average)
 11779                           ;	Chosen strategy is simple_byte
 11780   0033AA  501E               	movf	(??i2_lcd_set_cursor+1)^0,w,c
 11781   0033AC  0A00               	xorlw	0	; case 0
 11782   0033AE  B4D8               	btfsc	status,2,c
 11783   0033B0  EFDC  F019         	goto	i2l11437
 11784   0033B4  EFEF  F019         	goto	i2l136
 11785   0033B8                     i2l11437:
 11786                           
 11787                           ; Switch size 1, requested type "simple"
 11788                           ; Number of cases is 4, Range of values is 1 to 4
 11789                           ; switch strategies available:
 11790                           ; Name         Instructions Cycles
 11791                           ; simple_byte           13     7 (average)
 11792                           ;	Chosen strategy is simple_byte
 11793   0033B8  501D               	movf	??i2_lcd_set_cursor^0,w,c
 11794   0033BA  0A01               	xorlw	1	; case 1
 11795   0033BC  B4D8               	btfsc	status,2,c
 11796   0033BE  EFA6  F019         	goto	i2l9115
 11797   0033C2  0A03               	xorlw	3	; case 2
 11798   0033C4  B4D8               	btfsc	status,2,c
 11799   0033C6  EFB1  F019         	goto	i2l9117
 11800   0033CA  0A01               	xorlw	1	; case 3
 11801   0033CC  B4D8               	btfsc	status,2,c
 11802   0033CE  EFBC  F019         	goto	i2l9119
 11803   0033D2  0A07               	xorlw	7	; case 4
 11804   0033D4  B4D8               	btfsc	status,2,c
 11805   0033D6  EFC7  F019         	goto	i2l9121
 11806   0033DA  EFEF  F019         	goto	i2l136
 11807   0033DE                     i2l136:
 11808   0033DE  0012               	return		;funcret
 11809   0033E0                     __end_ofi2_lcd_set_cursor:
 11810                           	callstack 0
 11811                           
 11812 ;; *************** function i2_lcd_send_command *****************
 11813 ;; Defined at:
 11814 ;;		line 78 in file "ECU_Layer/Ch_LCD/ecu_ch_lcd.c"
 11815 ;; Parameters:    Size  Location     Type
 11816 ;;  _LCD_           2   19[COMRAM] PTR const struct .
 11817 ;;		 -> lcd1(6), 
 11818 ;;  command         1   21[COMRAM] unsigned char 
 11819 ;; Auto vars:     Size  Location     Type
 11820 ;;  ret             2   22[COMRAM] unsigned int 
 11821 ;; Return value:  Size  Location     Type
 11822 ;;                  2   19[COMRAM] unsigned int 
 11823 ;; Registers used:
 11824 ;;		wreg, fsr2l, fsr2h, status,2, status,0, prodl, prodh, cstack
 11825 ;; Tracked objects:
 11826 ;;		On entry : 0/0
 11827 ;;		On exit  : 0/0
 11828 ;;		Unchanged: 0/0
 11829 ;; Data sizes:     COMRAM   BANK0   BANK1   BANK2   BANK3   BANK4   BANK5   BANK6   BANK7   BANK8   BANK9  BANK10  BANK1
      +1  BANK12  BANK13  BANK14  BANK15
 11830 ;;      Params:         3       0       0       0       0       0       0       0       0       0       0       0       
      +0       0       0       0       0
 11831 ;;      Locals:         2       0       0       0       0       0       0       0       0       0       0       0       
      +0       0       0       0       0
 11832 ;;      Temps:          0       0       0       0       0       0       0       0       0       0       0       0       
      +0       0       0       0       0
 11833 ;;      Totals:         5       0       0       0       0       0       0       0       0       0       0       0       
      +0       0       0       0       0
 11834 ;;Total ram usage:        5 bytes
 11835 ;; Hardware stack levels used: 1
 11836 ;; Hardware stack levels required when called: 2
 11837 ;; This function calls:
 11838 ;;		i2_GPIO_Pin_Write_Logic
 11839 ;;		i2_lcd_send_4_bit_data
 11840 ;;		i2_lcd_send_enable
 11841 ;; This function is called by:
 11842 ;;		_timer0_isr
 11843 ;;		i2_lcd_set_cursor
 11844 ;; This function uses a non-reentrant model
 11845 ;;
 11846                           
 11847                           	psect	text40
 11848   003726                     __ptext40:
 11849                           	callstack 0
 11850   003726                     i2_lcd_send_command:
 11851                           	callstack 19
 11852   003726                     
 11853                           ;ECU_Layer/Ch_LCD/ecu_ch_lcd.c: 81:     if(((void*)0) == _LCD_)
 11854   003726  5014               	movf	i2lcd_send_command@_LCD_^0,w,c
 11855   003728  1015               	iorwf	(i2lcd_send_command@_LCD_+1)^0,w,c
 11856   00372A  A4D8               	btfss	status,2,c
 11857   00372C  EF9A  F01B         	goto	i2u743_41
 11858   003730  EF9C  F01B         	goto	i2u743_40
 11859   003734                     i2u743_41:
 11860   003734  EFA2  F01B         	goto	i2l9057
 11861   003738                     i2u743_40:
 11862   003738                     
 11863                           ;ECU_Layer/Ch_LCD/ecu_ch_lcd.c: 82:     {;ECU_Layer/Ch_LCD/ecu_ch_lcd.c: 83:         ret
      +                           = (Std_ReturnType)0x00;
 11864   003738  0E00               	movlw	0
 11865   00373A  6E18               	movwf	(i2lcd_send_command@ret+1)^0,c
 11866   00373C  0E00               	movlw	0
 11867   00373E  6E17               	movwf	i2lcd_send_command@ret^0,c
 11868                           
 11869                           ;ECU_Layer/Ch_LCD/ecu_ch_lcd.c: 84:     }
 11870   003740  EFCB  F01B         	goto	i2l9059
 11871   003744                     i2l9057:
 11872                           
 11873                           ;ECU_Layer/Ch_LCD/ecu_ch_lcd.c: 86:     {;ECU_Layer/Ch_LCD/ecu_ch_lcd.c: 87:         ret
      +                           = GPIO_Pin_Write_Logic(&(_LCD_->RS) ,Logic_Low);
 11874   003744  C014  F001         	movff	i2lcd_send_command@_LCD_,i2GPIO_Pin_Write_Logic@_Pin_Config_
 11875   003748  C015  F002         	movff	i2lcd_send_command@_LCD_+1,i2GPIO_Pin_Write_Logic@_Pin_Config_+1
 11876   00374C  0E00               	movlw	0
 11877   00374E  6E03               	movwf	i2GPIO_Pin_Write_Logic@Logic^0,c
 11878   003750  EC48  F016         	call	i2_GPIO_Pin_Write_Logic	;wreg free
 11879   003754  C001  F017         	movff	?i2_GPIO_Pin_Write_Logic,i2lcd_send_command@ret
 11880   003758  C002  F018         	movff	?i2_GPIO_Pin_Write_Logic+1,i2lcd_send_command@ret+1
 11881                           
 11882                           ;ECU_Layer/Ch_LCD/ecu_ch_lcd.c: 89:         lcd_send_4_bit_data(_LCD_ ,command >> 4);
 11883   00375C  C014  F00C         	movff	i2lcd_send_command@_LCD_,i2lcd_send_4_bit_data@_LCD_
 11884   003760  C015  F00D         	movff	i2lcd_send_command@_LCD_+1,i2lcd_send_4_bit_data@_LCD_+1
 11885   003764  3816               	swapf	i2lcd_send_command@command^0,w,c
 11886   003766  0B0F               	andlw	15
 11887   003768  6E0E               	movwf	i2lcd_send_4_bit_data@_data_command^0,c
 11888   00376A  ECDB  F01D         	call	i2_lcd_send_4_bit_data	;wreg free
 11889                           
 11890                           ;ECU_Layer/Ch_LCD/ecu_ch_lcd.c: 90:         lcd_send_enable(_LCD_);
 11891   00376E  C014  F00C         	movff	i2lcd_send_command@_LCD_,i2lcd_send_enable@_LCD_
 11892   003772  C015  F00D         	movff	i2lcd_send_command@_LCD_+1,i2lcd_send_enable@_LCD_+1
 11893   003776  ECE2  F01E         	call	i2_lcd_send_enable	;wreg free
 11894                           
 11895                           ;ECU_Layer/Ch_LCD/ecu_ch_lcd.c: 91:         lcd_send_4_bit_data(_LCD_ ,command);
 11896   00377A  C014  F00C         	movff	i2lcd_send_command@_LCD_,i2lcd_send_4_bit_data@_LCD_
 11897   00377E  C015  F00D         	movff	i2lcd_send_command@_LCD_+1,i2lcd_send_4_bit_data@_LCD_+1
 11898   003782  C016  F00E         	movff	i2lcd_send_command@command,i2lcd_send_4_bit_data@_data_command
 11899   003786  ECDB  F01D         	call	i2_lcd_send_4_bit_data	;wreg free
 11900                           
 11901                           ;ECU_Layer/Ch_LCD/ecu_ch_lcd.c: 92:         lcd_send_enable(_LCD_);
 11902   00378A  C014  F00C         	movff	i2lcd_send_command@_LCD_,i2lcd_send_enable@_LCD_
 11903   00378E  C015  F00D         	movff	i2lcd_send_command@_LCD_+1,i2lcd_send_enable@_LCD_+1
 11904   003792  ECE2  F01E         	call	i2_lcd_send_enable	;wreg free
 11905   003796                     i2l9059:
 11906                           
 11907                           ;ECU_Layer/Ch_LCD/ecu_ch_lcd.c: 103:     return ret;
 11908   003796  C017  F014         	movff	i2lcd_send_command@ret,?i2_lcd_send_command
 11909   00379A  C018  F015         	movff	i2lcd_send_command@ret+1,?i2_lcd_send_command+1
 11910   00379E  0012               	return		;funcret
 11911   0037A0                     __end_ofi2_lcd_send_command:
 11912                           	callstack 0
 11913                           
 11914 ;; *************** function i2_lcd_send_string_data *****************
 11915 ;; Defined at:
 11916 ;;		line 150 in file "ECU_Layer/Ch_LCD/ecu_ch_lcd.c"
 11917 ;; Parameters:    Size  Location     Type
 11918 ;;  _LCD_           2   24[COMRAM] PTR const struct .
 11919 ;;		 -> lcd1(6), 
 11920 ;;  str             2   26[COMRAM] PTR unsigned char 
 11921 ;;		 -> STR_87(15), STR_86(20), STR_85(16), STR_84(13), 
 11922 ;;		 -> STR_83(13), STR_82(6), STR_81(9), STR_80(8), 
 11923 ;;		 -> STR_79(4), STR_78(4), STR_77(6), STR_76(13), 
 11924 ;;		 -> STR_75(6), STR_74(10), STR_73(9), STR_72(4), 
 11925 ;;		 -> STR_71(4), STR_70(9), STR_69(6), STR_68(11), 
 11926 ;;		 -> STR_67(5), STR_66(8), STR_65(13), STR_64(13), 
 11927 ;;		 -> STR_63(6), STR_62(10), STR_61(9), STR_60(4), 
 11928 ;;		 -> STR_59(4), STR_58(9), STR_57(13), STR_56(6), 
 11929 ;;		 -> STR_55(10), STR_54(9), STR_53(4), STR_52(4), 
 11930 ;;		 -> STR_51(9), STR_50(13), STR_49(6), STR_48(10), 
 11931 ;;		 -> STR_47(9), STR_46(4), STR_45(4), STR_44(9), 
 11932 ;;		 -> STR_43(13), STR_42(6), STR_41(10), STR_40(9), 
 11933 ;;		 -> STR_39(4), STR_38(4), STR_37(9), STR_36(13), 
 11934 ;;		 -> STR_35(7), STR_34(8), STR_33(8), STR_32(8), 
 11935 ;;		 -> STR_31(8), STR_30(13), STR_29(13), STR_28(13), 
 11936 ;;		 -> STR_27(18), STR_26(13), STR_25(18), STR_24(12), 
 11937 ;;		 -> STR_23(13), STR_22(16), STR_21(12), STR_20(13), 
 11938 ;;		 -> STR_19(12), STR_18(13), STR_17(16), STR_16(12), 
 11939 ;;		 -> STR_15(13), STR_14(9), STR_13(9), STR_12(14), 
 11940 ;;		 -> STR_11(19), STR_10(12), STR_9(19), STR_8(19), 
 11941 ;;		 -> STR_7(12), STR_6(19), STR_5(21), STR_4(8), 
 11942 ;; Auto vars:     Size  Location     Type
 11943 ;;  ret             2   28[COMRAM] unsigned int 
 11944 ;; Return value:  Size  Location     Type
 11945 ;;                  2   24[COMRAM] unsigned int 
 11946 ;; Registers used:
 11947 ;;		wreg, fsr2l, fsr2h, status,2, status,0, tblptrl, tblptrh, tblptru, prodl, prodh, cstack
 11948 ;; Tracked objects:
 11949 ;;		On entry : 0/0
 11950 ;;		On exit  : 0/0
 11951 ;;		Unchanged: 0/0
 11952 ;; Data sizes:     COMRAM   BANK0   BANK1   BANK2   BANK3   BANK4   BANK5   BANK6   BANK7   BANK8   BANK9  BANK10  BANK1
      +1  BANK12  BANK13  BANK14  BANK15
 11953 ;;      Params:         4       0       0       0       0       0       0       0       0       0       0       0       
      +0       0       0       0       0
 11954 ;;      Locals:         2       0       0       0       0       0       0       0       0       0       0       0       
      +0       0       0       0       0
 11955 ;;      Temps:          0       0       0       0       0       0       0       0       0       0       0       0       
      +0       0       0       0       0
 11956 ;;      Totals:         6       0       0       0       0       0       0       0       0       0       0       0       
      +0       0       0       0       0
 11957 ;;Total ram usage:        6 bytes
 11958 ;; Hardware stack levels used: 1
 11959 ;; Hardware stack levels required when called: 3
 11960 ;; This function calls:
 11961 ;;		i2_lcd_send_char_data
 11962 ;; This function is called by:
 11963 ;;		i2_lcd_send_ATpos_string_data
 11964 ;; This function uses a non-reentrant model
 11965 ;;
 11966                           
 11967                           	psect	text41
 11968   00359A                     __ptext41:
 11969                           	callstack 0
 11970   00359A                     i2_lcd_send_string_data:
 11971                           	callstack 17
 11972   00359A                     
 11973                           ;ECU_Layer/Ch_LCD/ecu_ch_lcd.c: 150: Std_ReturnType lcd_send_string_data(const Ch_LCD *_
      +                          LCD_ ,uint8 *str);ECU_Layer/Ch_LCD/ecu_ch_lcd.c: 151: {;ECU_Layer/Ch_LCD/ecu_ch_lcd.c: 1
      +                          52:      Std_ReturnType ret = (Std_ReturnType)0x01 ;
 11974   00359A  0E00               	movlw	0
 11975   00359C  6E1E               	movwf	(i2lcd_send_string_data@ret+1)^0,c
 11976   00359E  0E01               	movlw	1
 11977   0035A0  6E1D               	movwf	i2lcd_send_string_data@ret^0,c
 11978   0035A2                     
 11979                           ;ECU_Layer/Ch_LCD/ecu_ch_lcd.c: 153:     if(((void*)0) == _LCD_ || ((void*)0) == str)
 11980   0035A2  5019               	movf	i2lcd_send_string_data@_LCD_^0,w,c
 11981   0035A4  101A               	iorwf	(i2lcd_send_string_data@_LCD_+1)^0,w,c
 11982   0035A6  B4D8               	btfsc	status,2,c
 11983   0035A8  EFD8  F01A         	goto	i2u747_41
 11984   0035AC  EFDA  F01A         	goto	i2u747_40
 11985   0035B0                     i2u747_41:
 11986   0035B0  EFE3  F01A         	goto	i2l9105
 11987   0035B4                     i2u747_40:
 11988   0035B4  501B               	movf	i2lcd_send_string_data@str^0,w,c
 11989   0035B6  101C               	iorwf	(i2lcd_send_string_data@str+1)^0,w,c
 11990   0035B8  A4D8               	btfss	status,2,c
 11991   0035BA  EFE1  F01A         	goto	i2u748_41
 11992   0035BE  EFE3  F01A         	goto	i2u748_40
 11993   0035C2                     i2u748_41:
 11994   0035C2  EFFD  F01A         	goto	i2l9111
 11995   0035C6                     i2u748_40:
 11996   0035C6                     i2l9105:
 11997                           
 11998                           ;ECU_Layer/Ch_LCD/ecu_ch_lcd.c: 154:     {;ECU_Layer/Ch_LCD/ecu_ch_lcd.c: 155:         r
      +                          et = (Std_ReturnType)0x00;
 11999   0035C6  0E00               	movlw	0
 12000   0035C8  6E1E               	movwf	(i2lcd_send_string_data@ret+1)^0,c
 12001   0035CA  0E00               	movlw	0
 12002   0035CC  6E1D               	movwf	i2lcd_send_string_data@ret^0,c
 12003                           
 12004                           ;ECU_Layer/Ch_LCD/ecu_ch_lcd.c: 156:     }
 12005   0035CE  EF0C  F01B         	goto	i2l70
 12006   0035D2                     i2l9107:
 12007                           
 12008                           ;ECU_Layer/Ch_LCD/ecu_ch_lcd.c: 160:         {;ECU_Layer/Ch_LCD/ecu_ch_lcd.c: 161:      
      +                                 ret = lcd_send_char_data(_LCD_ ,*str);
 12009   0035D2  C019  F014         	movff	i2lcd_send_string_data@_LCD_,i2lcd_send_char_data@_LCD_
 12010   0035D6  C01A  F015         	movff	i2lcd_send_string_data@_LCD_+1,i2lcd_send_char_data@_LCD_+1
 12011   0035DA  C01B  FFF6         	movff	i2lcd_send_string_data@str,tblptrl
 12012   0035DE  C01C  FFF7         	movff	i2lcd_send_string_data@str+1,tblptrh
 12013   0035E2                     	if	1	;Program memory is < 0x10000, tblptru is always zero
 12014   0035E2  6AF8               	clrf	tblptru,c
 12015   0035E4                     	endif
 12016   0035E4                     	if	0	;tblptru may be non-zero
 12017   0035E4                     	endif
 12018   0035E4  0008               	tblrd		*
 12019   0035E6  CFF5 F016          	movff	tablat,i2lcd_send_char_data@data
 12020   0035EA  ECD0  F01B         	call	i2_lcd_send_char_data	;wreg free
 12021   0035EE  C014  F01D         	movff	?i2_lcd_send_char_data,i2lcd_send_string_data@ret
 12022   0035F2  C015  F01E         	movff	?i2_lcd_send_char_data+1,i2lcd_send_string_data@ret+1
 12023   0035F6                     
 12024                           ;ECU_Layer/Ch_LCD/ecu_ch_lcd.c: 162:             str++;
 12025   0035F6  4A1B               	infsnz	i2lcd_send_string_data@str^0,f,c
 12026   0035F8  2A1C               	incf	(i2lcd_send_string_data@str+1)^0,f,c
 12027   0035FA                     i2l9111:
 12028                           
 12029                           ;ECU_Layer/Ch_LCD/ecu_ch_lcd.c: 159:         while(*str != ((void*)0))
 12030   0035FA  C01B  FFF6         	movff	i2lcd_send_string_data@str,tblptrl
 12031   0035FE  C01C  FFF7         	movff	i2lcd_send_string_data@str+1,tblptrh
 12032   003602                     	if	1	;Program memory is < 0x10000, tblptru is always zero
 12033   003602  6AF8               	clrf	tblptru,c
 12034   003604                     	endif
 12035   003604                     	if	0	;tblptru may be non-zero
 12036   003604                     	endif
 12037   003604  0008               	tblrd		*
 12038   003606  50F5               	movf	tablat,w,c
 12039   003608  0900               	iorlw	0
 12040   00360A  A4D8               	btfss	status,2,c
 12041   00360C  EF0A  F01B         	goto	i2u749_41
 12042   003610  EF0C  F01B         	goto	i2u749_40
 12043   003614                     i2u749_41:
 12044   003614  EFE9  F01A         	goto	i2l9107
 12045   003618                     i2u749_40:
 12046   003618                     i2l70:
 12047                           
 12048                           ;ECU_Layer/Ch_LCD/ecu_ch_lcd.c: 165:     return ret;
 12049   003618  C01D  F019         	movff	i2lcd_send_string_data@ret,?i2_lcd_send_string_data
 12050   00361C  C01E  F01A         	movff	i2lcd_send_string_data@ret+1,?i2_lcd_send_string_data+1
 12051   003620  0012               	return		;funcret
 12052   003622                     __end_ofi2_lcd_send_string_data:
 12053                           	callstack 0
 12054                           
 12055 ;; *************** function i2_lcd_send_char_data *****************
 12056 ;; Defined at:
 12057 ;;		line 106 in file "ECU_Layer/Ch_LCD/ecu_ch_lcd.c"
 12058 ;; Parameters:    Size  Location     Type
 12059 ;;  _LCD_           2   19[COMRAM] PTR const struct .
 12060 ;;		 -> lcd1(6), 
 12061 ;;  data            1   21[COMRAM] unsigned char 
 12062 ;; Auto vars:     Size  Location     Type
 12063 ;;  ret             2   22[COMRAM] unsigned int 
 12064 ;; Return value:  Size  Location     Type
 12065 ;;                  2   19[COMRAM] unsigned int 
 12066 ;; Registers used:
 12067 ;;		wreg, fsr2l, fsr2h, status,2, status,0, prodl, prodh, cstack
 12068 ;; Tracked objects:
 12069 ;;		On entry : 0/0
 12070 ;;		On exit  : 0/0
 12071 ;;		Unchanged: 0/0
 12072 ;; Data sizes:     COMRAM   BANK0   BANK1   BANK2   BANK3   BANK4   BANK5   BANK6   BANK7   BANK8   BANK9  BANK10  BANK1
      +1  BANK12  BANK13  BANK14  BANK15
 12073 ;;      Params:         3       0       0       0       0       0       0       0       0       0       0       0       
      +0       0       0       0       0
 12074 ;;      Locals:         2       0       0       0       0       0       0       0       0       0       0       0       
      +0       0       0       0       0
 12075 ;;      Temps:          0       0       0       0       0       0       0       0       0       0       0       0       
      +0       0       0       0       0
 12076 ;;      Totals:         5       0       0       0       0       0       0       0       0       0       0       0       
      +0       0       0       0       0
 12077 ;;Total ram usage:        5 bytes
 12078 ;; Hardware stack levels used: 1
 12079 ;; Hardware stack levels required when called: 2
 12080 ;; This function calls:
 12081 ;;		i2_GPIO_Pin_Write_Logic
 12082 ;;		i2_lcd_send_4_bit_data
 12083 ;;		i2_lcd_send_enable
 12084 ;; This function is called by:
 12085 ;;		i2_lcd_send_string_data
 12086 ;; This function uses a non-reentrant model
 12087 ;;
 12088                           
 12089                           	psect	text42
 12090   0037A0                     __ptext42:
 12091                           	callstack 0
 12092   0037A0                     i2_lcd_send_char_data:
 12093                           	callstack 17
 12094   0037A0                     
 12095                           ;ECU_Layer/Ch_LCD/ecu_ch_lcd.c: 109:     if(((void*)0) == _LCD_)
 12096   0037A0  5014               	movf	i2lcd_send_char_data@_LCD_^0,w,c
 12097   0037A2  1015               	iorwf	(i2lcd_send_char_data@_LCD_+1)^0,w,c
 12098   0037A4  A4D8               	btfss	status,2,c
 12099   0037A6  EFD7  F01B         	goto	i2u744_41
 12100   0037AA  EFD9  F01B         	goto	i2u744_40
 12101   0037AE                     i2u744_41:
 12102   0037AE  EFDF  F01B         	goto	i2l9069
 12103   0037B2                     i2u744_40:
 12104   0037B2                     
 12105                           ;ECU_Layer/Ch_LCD/ecu_ch_lcd.c: 110:     {;ECU_Layer/Ch_LCD/ecu_ch_lcd.c: 111:         r
      +                          et = (Std_ReturnType)0x00;
 12106   0037B2  0E00               	movlw	0
 12107   0037B4  6E18               	movwf	(i2lcd_send_char_data@ret+1)^0,c
 12108   0037B6  0E00               	movlw	0
 12109   0037B8  6E17               	movwf	i2lcd_send_char_data@ret^0,c
 12110                           
 12111                           ;ECU_Layer/Ch_LCD/ecu_ch_lcd.c: 112:     }
 12112   0037BA  EF08  F01C         	goto	i2l9071
 12113   0037BE                     i2l9069:
 12114                           
 12115                           ;ECU_Layer/Ch_LCD/ecu_ch_lcd.c: 114:     {;ECU_Layer/Ch_LCD/ecu_ch_lcd.c: 115:         r
      +                          et = GPIO_Pin_Write_Logic(&(_LCD_->RS) ,Logic_High);
 12116   0037BE  C014  F001         	movff	i2lcd_send_char_data@_LCD_,i2GPIO_Pin_Write_Logic@_Pin_Config_
 12117   0037C2  C015  F002         	movff	i2lcd_send_char_data@_LCD_+1,i2GPIO_Pin_Write_Logic@_Pin_Config_+1
 12118   0037C6  0E01               	movlw	1
 12119   0037C8  6E03               	movwf	i2GPIO_Pin_Write_Logic@Logic^0,c
 12120   0037CA  EC48  F016         	call	i2_GPIO_Pin_Write_Logic	;wreg free
 12121   0037CE  C001  F017         	movff	?i2_GPIO_Pin_Write_Logic,i2lcd_send_char_data@ret
 12122   0037D2  C002  F018         	movff	?i2_GPIO_Pin_Write_Logic+1,i2lcd_send_char_data@ret+1
 12123                           
 12124                           ;ECU_Layer/Ch_LCD/ecu_ch_lcd.c: 117:         lcd_send_4_bit_data(_LCD_ ,(data >> 4));
 12125   0037D6  C014  F00C         	movff	i2lcd_send_char_data@_LCD_,i2lcd_send_4_bit_data@_LCD_
 12126   0037DA  C015  F00D         	movff	i2lcd_send_char_data@_LCD_+1,i2lcd_send_4_bit_data@_LCD_+1
 12127   0037DE  3816               	swapf	i2lcd_send_char_data@data^0,w,c
 12128   0037E0  0B0F               	andlw	15
 12129   0037E2  6E0E               	movwf	i2lcd_send_4_bit_data@_data_command^0,c
 12130   0037E4  ECDB  F01D         	call	i2_lcd_send_4_bit_data	;wreg free
 12131                           
 12132                           ;ECU_Layer/Ch_LCD/ecu_ch_lcd.c: 118:         lcd_send_enable(_LCD_);
 12133   0037E8  C014  F00C         	movff	i2lcd_send_char_data@_LCD_,i2lcd_send_enable@_LCD_
 12134   0037EC  C015  F00D         	movff	i2lcd_send_char_data@_LCD_+1,i2lcd_send_enable@_LCD_+1
 12135   0037F0  ECE2  F01E         	call	i2_lcd_send_enable	;wreg free
 12136                           
 12137                           ;ECU_Layer/Ch_LCD/ecu_ch_lcd.c: 119:         lcd_send_4_bit_data(_LCD_ ,data);
 12138   0037F4  C014  F00C         	movff	i2lcd_send_char_data@_LCD_,i2lcd_send_4_bit_data@_LCD_
 12139   0037F8  C015  F00D         	movff	i2lcd_send_char_data@_LCD_+1,i2lcd_send_4_bit_data@_LCD_+1
 12140   0037FC  C016  F00E         	movff	i2lcd_send_char_data@data,i2lcd_send_4_bit_data@_data_command
 12141   003800  ECDB  F01D         	call	i2_lcd_send_4_bit_data	;wreg free
 12142                           
 12143                           ;ECU_Layer/Ch_LCD/ecu_ch_lcd.c: 120:         lcd_send_enable(_LCD_);
 12144   003804  C014  F00C         	movff	i2lcd_send_char_data@_LCD_,i2lcd_send_enable@_LCD_
 12145   003808  C015  F00D         	movff	i2lcd_send_char_data@_LCD_+1,i2lcd_send_enable@_LCD_+1
 12146   00380C  ECE2  F01E         	call	i2_lcd_send_enable	;wreg free
 12147   003810                     i2l9071:
 12148                           
 12149                           ;ECU_Layer/Ch_LCD/ecu_ch_lcd.c: 131:     return ret;
 12150   003810  C017  F014         	movff	i2lcd_send_char_data@ret,?i2_lcd_send_char_data
 12151   003814  C018  F015         	movff	i2lcd_send_char_data@ret+1,?i2_lcd_send_char_data+1
 12152   003818  0012               	return		;funcret
 12153   00381A                     __end_ofi2_lcd_send_char_data:
 12154                           	callstack 0
 12155                           
 12156 ;; *************** function i2_lcd_send_enable *****************
 12157 ;; Defined at:
 12158 ;;		line 285 in file "ECU_Layer/Ch_LCD/ecu_ch_lcd.c"
 12159 ;; Parameters:    Size  Location     Type
 12160 ;;  _LCD_           2   11[COMRAM] PTR const struct .
 12161 ;;		 -> lcd1(6), 
 12162 ;; Auto vars:     Size  Location     Type
 12163 ;;		None
 12164 ;; Return value:  Size  Location     Type
 12165 ;;                  1    wreg      void 
 12166 ;; Registers used:
 12167 ;;		wreg, fsr2l, fsr2h, status,2, status,0, prodl, prodh, cstack
 12168 ;; Tracked objects:
 12169 ;;		On entry : 0/0
 12170 ;;		On exit  : 0/0
 12171 ;;		Unchanged: 0/0
 12172 ;; Data sizes:     COMRAM   BANK0   BANK1   BANK2   BANK3   BANK4   BANK5   BANK6   BANK7   BANK8   BANK9  BANK10  BANK1
      +1  BANK12  BANK13  BANK14  BANK15
 12173 ;;      Params:         2       0       0       0       0       0       0       0       0       0       0       0       
      +0       0       0       0       0
 12174 ;;      Locals:         0       0       0       0       0       0       0       0       0       0       0       0       
      +0       0       0       0       0
 12175 ;;      Temps:          0       0       0       0       0       0       0       0       0       0       0       0       
      +0       0       0       0       0
 12176 ;;      Totals:         2       0       0       0       0       0       0       0       0       0       0       0       
      +0       0       0       0       0
 12177 ;;Total ram usage:        2 bytes
 12178 ;; Hardware stack levels used: 1
 12179 ;; Hardware stack levels required when called: 1
 12180 ;; This function calls:
 12181 ;;		i2_GPIO_Pin_Write_Logic
 12182 ;; This function is called by:
 12183 ;;		i2_lcd_send_command
 12184 ;;		i2_lcd_send_char_data
 12185 ;; This function uses a non-reentrant model
 12186 ;;
 12187                           
 12188                           	psect	text43
 12189   003DC4                     __ptext43:
 12190                           	callstack 0
 12191   003DC4                     i2_lcd_send_enable:
 12192                           	callstack 19
 12193   003DC4                     
 12194                           ;ECU_Layer/Ch_LCD/ecu_ch_lcd.c: 285: static void lcd_send_enable(const Ch_LCD *_LCD_);EC
      +                          U_Layer/Ch_LCD/ecu_ch_lcd.c: 286: {;ECU_Layer/Ch_LCD/ecu_ch_lcd.c: 287:     GPIO_Pin_Wri
      +                          te_Logic(&(_LCD_->EN) ,Logic_High);
 12195   003DC4  0E01               	movlw	1
 12196   003DC6  240C               	addwf	i2lcd_send_enable@_LCD_^0,w,c
 12197   003DC8  6E01               	movwf	i2GPIO_Pin_Write_Logic@_Pin_Config_^0,c
 12198   003DCA  0E00               	movlw	0
 12199   003DCC  200D               	addwfc	(i2lcd_send_enable@_LCD_+1)^0,w,c
 12200   003DCE  6E02               	movwf	(i2GPIO_Pin_Write_Logic@_Pin_Config_+1)^0,c
 12201   003DD0  0E01               	movlw	1
 12202   003DD2  6E03               	movwf	i2GPIO_Pin_Write_Logic@Logic^0,c
 12203   003DD4  EC48  F016         	call	i2_GPIO_Pin_Write_Logic	;wreg free
 12204   003DD8                     
 12205                           ;ECU_Layer/Ch_LCD/ecu_ch_lcd.c: 288:     _delay((unsigned long)((5)*(4000000UL/4000000.0
      +                          )));
 12206   003DD8  D000               	nop2		;2 cycle nop
 12207   003DDA  D000               	nop2		;2 cycle nop
 12208   003DDC  F000               	nop	
 12209                           
 12210                           ;ECU_Layer/Ch_LCD/ecu_ch_lcd.c: 289:     GPIO_Pin_Write_Logic(&(_LCD_->EN) ,Logic_Low);
 12211   003DDE  0E01               	movlw	1
 12212   003DE0  240C               	addwf	i2lcd_send_enable@_LCD_^0,w,c
 12213   003DE2  6E01               	movwf	i2GPIO_Pin_Write_Logic@_Pin_Config_^0,c
 12214   003DE4  0E00               	movlw	0
 12215   003DE6  200D               	addwfc	(i2lcd_send_enable@_LCD_+1)^0,w,c
 12216   003DE8  6E02               	movwf	(i2GPIO_Pin_Write_Logic@_Pin_Config_+1)^0,c
 12217   003DEA  0E00               	movlw	0
 12218   003DEC  6E03               	movwf	i2GPIO_Pin_Write_Logic@Logic^0,c
 12219   003DEE  EC48  F016         	call	i2_GPIO_Pin_Write_Logic	;wreg free
 12220   003DF2  0012               	return		;funcret
 12221   003DF4                     __end_ofi2_lcd_send_enable:
 12222                           	callstack 0
 12223                           
 12224 ;; *************** function i2_lcd_send_4_bit_data *****************
 12225 ;; Defined at:
 12226 ;;		line 276 in file "ECU_Layer/Ch_LCD/ecu_ch_lcd.c"
 12227 ;; Parameters:    Size  Location     Type
 12228 ;;  _LCD_           2   11[COMRAM] PTR const struct .
 12229 ;;		 -> lcd1(6), 
 12230 ;;  _data_comman    1   13[COMRAM] unsigned char 
 12231 ;; Auto vars:     Size  Location     Type
 12232 ;;  pin_counter     1   18[COMRAM] unsigned char 
 12233 ;; Return value:  Size  Location     Type
 12234 ;;                  1    wreg      void 
 12235 ;; Registers used:
 12236 ;;		wreg, fsr2l, fsr2h, status,2, status,0, prodl, prodh, cstack
 12237 ;; Tracked objects:
 12238 ;;		On entry : 0/0
 12239 ;;		On exit  : 0/0
 12240 ;;		Unchanged: 0/0
 12241 ;; Data sizes:     COMRAM   BANK0   BANK1   BANK2   BANK3   BANK4   BANK5   BANK6   BANK7   BANK8   BANK9  BANK10  BANK1
      +1  BANK12  BANK13  BANK14  BANK15
 12242 ;;      Params:         3       0       0       0       0       0       0       0       0       0       0       0       
      +0       0       0       0       0
 12243 ;;      Locals:         1       0       0       0       0       0       0       0       0       0       0       0       
      +0       0       0       0       0
 12244 ;;      Temps:          4       0       0       0       0       0       0       0       0       0       0       0       
      +0       0       0       0       0
 12245 ;;      Totals:         8       0       0       0       0       0       0       0       0       0       0       0       
      +0       0       0       0       0
 12246 ;;Total ram usage:        8 bytes
 12247 ;; Hardware stack levels used: 1
 12248 ;; Hardware stack levels required when called: 1
 12249 ;; This function calls:
 12250 ;;		i2_GPIO_Pin_Write_Logic
 12251 ;; This function is called by:
 12252 ;;		i2_lcd_send_command
 12253 ;;		i2_lcd_send_char_data
 12254 ;; This function uses a non-reentrant model
 12255 ;;
 12256                           
 12257                           	psect	text44
 12258   003BB6                     __ptext44:
 12259                           	callstack 0
 12260   003BB6                     i2_lcd_send_4_bit_data:
 12261                           	callstack 19
 12262   003BB6                     
 12263                           ;ECU_Layer/Ch_LCD/ecu_ch_lcd.c: 276: static void lcd_send_4_bit_data(const Ch_LCD *_LCD_
      +                           ,uint8 _data_command);ECU_Layer/Ch_LCD/ecu_ch_lcd.c: 277: {;ECU_Layer/Ch_LCD/ecu_ch_lcd
      +                          .c: 278:     uint8 pin_counter = 0 ;
 12264   003BB6  0E00               	movlw	0
 12265   003BB8  6E13               	movwf	i2lcd_send_4_bit_data@pin_counter^0,c
 12266                           
 12267                           ;ECU_Layer/Ch_LCD/ecu_ch_lcd.c: 279:     for(pin_counter =0 ;pin_counter < (uint8)4 ;pin
      +                          _counter++)
 12268   003BBA  0E00               	movlw	0
 12269   003BBC  6E13               	movwf	i2lcd_send_4_bit_data@pin_counter^0,c
 12270   003BBE                     i2l9005:
 12271                           
 12272                           ;ECU_Layer/Ch_LCD/ecu_ch_lcd.c: 280:     {;ECU_Layer/Ch_LCD/ecu_ch_lcd.c: 281:         G
      +                          PIO_Pin_Write_Logic(&(_LCD_->data_pin[pin_counter]) ,(_data_command >> pin_counter) & (u
      +                          int8)(0x01));
 12273   003BBE  5013               	movf	i2lcd_send_4_bit_data@pin_counter^0,w,c
 12274   003BC0  240C               	addwf	i2lcd_send_4_bit_data@_LCD_^0,w,c
 12275   003BC2  6E0F               	movwf	??i2_lcd_send_4_bit_data^0,c
 12276   003BC4  0E00               	movlw	0
 12277   003BC6  200D               	addwfc	(i2lcd_send_4_bit_data@_LCD_+1)^0,w,c
 12278   003BC8  6E10               	movwf	(??i2_lcd_send_4_bit_data+1)^0,c
 12279   003BCA  0E02               	movlw	2
 12280   003BCC  240F               	addwf	??i2_lcd_send_4_bit_data^0,w,c
 12281   003BCE  6E01               	movwf	i2GPIO_Pin_Write_Logic@_Pin_Config_^0,c
 12282   003BD0  0E00               	movlw	0
 12283   003BD2  2010               	addwfc	(??i2_lcd_send_4_bit_data+1)^0,w,c
 12284   003BD4  6E02               	movwf	(i2GPIO_Pin_Write_Logic@_Pin_Config_+1)^0,c
 12285   003BD6  C013  F011         	movff	i2lcd_send_4_bit_data@pin_counter,??i2_lcd_send_4_bit_data+2
 12286   003BDA  C00E  F012         	movff	i2lcd_send_4_bit_data@_data_command,??i2_lcd_send_4_bit_data+3
 12287   003BDE  2A11               	incf	(??i2_lcd_send_4_bit_data+2)^0,f,c
 12288   003BE0  EFF4  F01D         	goto	i2u733_44
 12289   003BE4                     i2u733_45:
 12290   003BE4  90D8               	bcf	status,0,c
 12291   003BE6  3212               	rrcf	(??i2_lcd_send_4_bit_data+3)^0,f,c
 12292   003BE8                     i2u733_44:
 12293   003BE8  2E11               	decfsz	(??i2_lcd_send_4_bit_data+2)^0,f,c
 12294   003BEA  EFF2  F01D         	goto	i2u733_45
 12295   003BEE  5012               	movf	(??i2_lcd_send_4_bit_data+3)^0,w,c
 12296   003BF0  0B01               	andlw	1
 12297   003BF2  6E03               	movwf	i2GPIO_Pin_Write_Logic@Logic^0,c
 12298   003BF4  EC48  F016         	call	i2_GPIO_Pin_Write_Logic	;wreg free
 12299   003BF8                     
 12300                           ;ECU_Layer/Ch_LCD/ecu_ch_lcd.c: 282:     }
 12301   003BF8  2A13               	incf	i2lcd_send_4_bit_data@pin_counter^0,f,c
 12302   003BFA  0E03               	movlw	3
 12303   003BFC  6413               	cpfsgt	i2lcd_send_4_bit_data@pin_counter^0,c
 12304   003BFE  EF03  F01E         	goto	i2u734_41
 12305   003C02  EF05  F01E         	goto	i2u734_40
 12306   003C06                     i2u734_41:
 12307   003C06  EFDF  F01D         	goto	i2l9005
 12308   003C0A                     i2u734_40:
 12309   003C0A  0012               	return		;funcret
 12310   003C0C                     __end_ofi2_lcd_send_4_bit_data:
 12311                           	callstack 0
 12312                           
 12313 ;; *************** function i2_GPIO_Pin_Write_Logic *****************
 12314 ;; Defined at:
 12315 ;;		line 75 in file "MCAL_Layer/GPIO/hal_GPIO.c"
 12316 ;; Parameters:    Size  Location     Type
 12317 ;;  _Pin_Config_    2    0[COMRAM] PTR const struct .
 12318 ;;		 -> lcd1.data_pin(4), lcd1(6), key_pad1(8), Relay_Turn_Off@_pin_config(1), 
 12319 ;;		 -> Relay_Turn_On@_pin_config(1), Relay_Intialize@_pin_config(1), Led_Turn_Off@_pin_config_(1), Led_Turn_On@_pin_con
      +fig_(1), 
 12320 ;;		 -> Led_Intialize@_pin_config_(1), 
 12321 ;;  Logic           1    2[COMRAM] enum E2744
 12322 ;; Auto vars:     Size  Location     Type
 12323 ;;  ret             2    9[COMRAM] unsigned int 
 12324 ;; Return value:  Size  Location     Type
 12325 ;;                  2    0[COMRAM] unsigned int 
 12326 ;; Registers used:
 12327 ;;		wreg, fsr2l, fsr2h, status,2, status,0, prodl, prodh
 12328 ;; Tracked objects:
 12329 ;;		On entry : 0/0
 12330 ;;		On exit  : 0/0
 12331 ;;		Unchanged: 0/0
 12332 ;; Data sizes:     COMRAM   BANK0   BANK1   BANK2   BANK3   BANK4   BANK5   BANK6   BANK7   BANK8   BANK9  BANK10  BANK1
      +1  BANK12  BANK13  BANK14  BANK15
 12333 ;;      Params:         3       0       0       0       0       0       0       0       0       0       0       0       
      +0       0       0       0       0
 12334 ;;      Locals:         2       0       0       0       0       0       0       0       0       0       0       0       
      +0       0       0       0       0
 12335 ;;      Temps:          6       0       0       0       0       0       0       0       0       0       0       0       
      +0       0       0       0       0
 12336 ;;      Totals:        11       0       0       0       0       0       0       0       0       0       0       0       
      +0       0       0       0       0
 12337 ;;Total ram usage:       11 bytes
 12338 ;; Hardware stack levels used: 1
 12339 ;; This function calls:
 12340 ;;		Nothing
 12341 ;; This function is called by:
 12342 ;;		i2_lcd_send_command
 12343 ;;		i2_lcd_send_char_data
 12344 ;;		i2_lcd_send_4_bit_data
 12345 ;;		i2_lcd_send_enable
 12346 ;; This function uses a non-reentrant model
 12347 ;;
 12348                           
 12349                           	psect	text45
 12350   002C90                     __ptext45:
 12351                           	callstack 0
 12352   002C90                     i2_GPIO_Pin_Write_Logic:
 12353                           	callstack 19
 12354   002C90                     
 12355                           ;MCAL_Layer/GPIO/hal_GPIO.c: 75: Std_ReturnType GPIO_Pin_Write_Logic(const Pin_Config_t 
      +                          *_Pin_Config_ ,Logic_t Logic);MCAL_Layer/GPIO/hal_GPIO.c: 76: {;MCAL_Layer/GPIO/hal_GPIO
      +                          .c: 77:         Std_ReturnType ret = (Std_ReturnType)0x00;
 12356   002C90  0E00               	movlw	0
 12357   002C92  6E0B               	movwf	(i2GPIO_Pin_Write_Logic@ret+1)^0,c
 12358   002C94  0E00               	movlw	0
 12359   002C96  6E0A               	movwf	i2GPIO_Pin_Write_Logic@ret^0,c
 12360   002C98                     
 12361                           ;MCAL_Layer/GPIO/hal_GPIO.c: 78:     if(_Pin_Config_ == ((void*)0) || _Pin_Config_-> pin
      +                           > (uint8)8 -1)
 12362   002C98  5001               	movf	i2GPIO_Pin_Write_Logic@_Pin_Config_^0,w,c
 12363   002C9A  1002               	iorwf	(i2GPIO_Pin_Write_Logic@_Pin_Config_+1)^0,w,c
 12364   002C9C  B4D8               	btfsc	status,2,c
 12365   002C9E  EF53  F016         	goto	i2u725_41
 12366   002CA2  EF55  F016         	goto	i2u725_40
 12367   002CA6                     i2u725_41:
 12368   002CA6  EF66  F016         	goto	i2l8965
 12369   002CAA                     i2u725_40:
 12370   002CAA  C001  FFD9         	movff	i2GPIO_Pin_Write_Logic@_Pin_Config_,fsr2l
 12371   002CAE  C002  FFDA         	movff	i2GPIO_Pin_Write_Logic@_Pin_Config_+1,fsr2h
 12372   002CB2  30DF               	rrcf	223,w,c
 12373   002CB4  32E8               	rrcf	wreg,f,c
 12374   002CB6  32E8               	rrcf	wreg,f,c
 12375   002CB8  0B07               	andlw	7
 12376   002CBA  6E04               	movwf	??i2_GPIO_Pin_Write_Logic^0,c
 12377   002CBC  0E07               	movlw	7
 12378   002CBE  6404               	cpfsgt	??i2_GPIO_Pin_Write_Logic^0,c
 12379   002CC0  EF64  F016         	goto	i2u726_41
 12380   002CC4  EF66  F016         	goto	i2u726_40
 12381   002CC8                     i2u726_41:
 12382   002CC8  EFD1  F016         	goto	i2l8973
 12383   002CCC                     i2u726_40:
 12384   002CCC                     i2l8965:
 12385                           
 12386                           ;MCAL_Layer/GPIO/hal_GPIO.c: 79:     {;MCAL_Layer/GPIO/hal_GPIO.c: 80:         ret = (St
      +                          d_ReturnType)0x01 ;
 12387   002CCC  0E00               	movlw	0
 12388   002CCE  6E0B               	movwf	(i2GPIO_Pin_Write_Logic@ret+1)^0,c
 12389   002CD0  0E01               	movlw	1
 12390   002CD2  6E0A               	movwf	i2GPIO_Pin_Write_Logic@ret^0,c
 12391                           
 12392                           ;MCAL_Layer/GPIO/hal_GPIO.c: 81:     }
 12393   002CD4  EFE6  F016         	goto	i2l695
 12394   002CD8                     i2l8967:
 12395                           
 12396                           ;MCAL_Layer/GPIO/hal_GPIO.c: 87:                 (*Lat_Reg[_Pin_Config_->port]&= ~((uint
      +                          8)1 <<_Pin_Config_->pin));
 12397   002CD8  C001  FFD9         	movff	i2GPIO_Pin_Write_Logic@_Pin_Config_,fsr2l
 12398   002CDC  C002  FFDA         	movff	i2GPIO_Pin_Write_Logic@_Pin_Config_+1,fsr2h
 12399   002CE0  30DF               	rrcf	223,w,c
 12400   002CE2  32E8               	rrcf	wreg,f,c
 12401   002CE4  32E8               	rrcf	wreg,f,c
 12402   002CE6  0B07               	andlw	7
 12403   002CE8  6E04               	movwf	??i2_GPIO_Pin_Write_Logic^0,c
 12404   002CEA  0E01               	movlw	1
 12405   002CEC  6E05               	movwf	(??i2_GPIO_Pin_Write_Logic+1)^0,c
 12406   002CEE  2A04               	incf	??i2_GPIO_Pin_Write_Logic^0,f,c
 12407   002CF0  EF7C  F016         	goto	i2u727_44
 12408   002CF4                     i2u727_45:
 12409   002CF4  90D8               	bcf	status,0,c
 12410   002CF6  3605               	rlcf	(??i2_GPIO_Pin_Write_Logic+1)^0,f,c
 12411   002CF8                     i2u727_44:
 12412   002CF8  2E04               	decfsz	??i2_GPIO_Pin_Write_Logic^0,f,c
 12413   002CFA  EF7A  F016         	goto	i2u727_45
 12414   002CFE  5005               	movf	(??i2_GPIO_Pin_Write_Logic+1)^0,w,c
 12415   002D00  0AFF               	xorlw	255
 12416   002D02  6E06               	movwf	(??i2_GPIO_Pin_Write_Logic+2)^0,c
 12417   002D04  C001  FFD9         	movff	i2GPIO_Pin_Write_Logic@_Pin_Config_,fsr2l
 12418   002D08  C002  FFDA         	movff	i2GPIO_Pin_Write_Logic@_Pin_Config_+1,fsr2h
 12419   002D0C  50DF               	movf	223,w,c
 12420   002D0E  0B07               	andlw	7
 12421   002D10  6E07               	movwf	(??i2_GPIO_Pin_Write_Logic+3)^0,c
 12422   002D12  5007               	movf	(??i2_GPIO_Pin_Write_Logic+3)^0,w,c
 12423   002D14  0D02               	mullw	2
 12424   002D16  0E8A               	movlw	low _Lat_Reg
 12425   002D18  24F3               	addwf	243,w,c
 12426   002D1A  6ED9               	movwf	fsr2l,c
 12427   002D1C  0E00               	movlw	high _Lat_Reg
 12428   002D1E  20F4               	addwfc	prodh,w,c
 12429   002D20  6EDA               	movwf	fsr2h,c
 12430   002D22  CFDE F008          	movff	postinc2,??i2_GPIO_Pin_Write_Logic+4
 12431   002D26  CFDD F009          	movff	postdec2,??i2_GPIO_Pin_Write_Logic+5
 12432   002D2A  C008  FFD9         	movff	??i2_GPIO_Pin_Write_Logic+4,fsr2l
 12433   002D2E  C009  FFDA         	movff	??i2_GPIO_Pin_Write_Logic+5,fsr2h
 12434   002D32  5006               	movf	(??i2_GPIO_Pin_Write_Logic+2)^0,w,c
 12435   002D34  16DF               	andwf	indf2,f,c
 12436                           
 12437                           ;MCAL_Layer/GPIO/hal_GPIO.c: 88:                 break;
 12438   002D36  EFE6  F016         	goto	i2l695
 12439   002D3A                     i2l8969:
 12440                           
 12441                           ;MCAL_Layer/GPIO/hal_GPIO.c: 90:                 (*Lat_Reg[_Pin_Config_->port]|=((uint8)
      +                          1 <<_Pin_Config_->pin));
 12442   002D3A  C001  FFD9         	movff	i2GPIO_Pin_Write_Logic@_Pin_Config_,fsr2l
 12443   002D3E  C002  FFDA         	movff	i2GPIO_Pin_Write_Logic@_Pin_Config_+1,fsr2h
 12444   002D42  30DF               	rrcf	223,w,c
 12445   002D44  32E8               	rrcf	wreg,f,c
 12446   002D46  32E8               	rrcf	wreg,f,c
 12447   002D48  0B07               	andlw	7
 12448   002D4A  6E04               	movwf	??i2_GPIO_Pin_Write_Logic^0,c
 12449   002D4C  0E01               	movlw	1
 12450   002D4E  6E05               	movwf	(??i2_GPIO_Pin_Write_Logic+1)^0,c
 12451   002D50  2A04               	incf	??i2_GPIO_Pin_Write_Logic^0,f,c
 12452   002D52  EFAD  F016         	goto	i2u728_44
 12453   002D56                     i2u728_45:
 12454   002D56  90D8               	bcf	status,0,c
 12455   002D58  3605               	rlcf	(??i2_GPIO_Pin_Write_Logic+1)^0,f,c
 12456   002D5A                     i2u728_44:
 12457   002D5A  2E04               	decfsz	??i2_GPIO_Pin_Write_Logic^0,f,c
 12458   002D5C  EFAB  F016         	goto	i2u728_45
 12459   002D60  C001  FFD9         	movff	i2GPIO_Pin_Write_Logic@_Pin_Config_,fsr2l
 12460   002D64  C002  FFDA         	movff	i2GPIO_Pin_Write_Logic@_Pin_Config_+1,fsr2h
 12461   002D68  50DF               	movf	223,w,c
 12462   002D6A  0B07               	andlw	7
 12463   002D6C  6E06               	movwf	(??i2_GPIO_Pin_Write_Logic+2)^0,c
 12464   002D6E  5006               	movf	(??i2_GPIO_Pin_Write_Logic+2)^0,w,c
 12465   002D70  0D02               	mullw	2
 12466   002D72  0E8A               	movlw	low _Lat_Reg
 12467   002D74  24F3               	addwf	243,w,c
 12468   002D76  6ED9               	movwf	fsr2l,c
 12469   002D78  0E00               	movlw	high _Lat_Reg
 12470   002D7A  20F4               	addwfc	prodh,w,c
 12471   002D7C  6EDA               	movwf	fsr2h,c
 12472   002D7E  CFDE F007          	movff	postinc2,??i2_GPIO_Pin_Write_Logic+3
 12473   002D82  CFDD F008          	movff	postdec2,??i2_GPIO_Pin_Write_Logic+4
 12474   002D86  C007  FFD9         	movff	??i2_GPIO_Pin_Write_Logic+3,fsr2l
 12475   002D8A  C008  FFDA         	movff	??i2_GPIO_Pin_Write_Logic+4,fsr2h
 12476   002D8E  5005               	movf	(??i2_GPIO_Pin_Write_Logic+1)^0,w,c
 12477   002D90  12DF               	iorwf	indf2,f,c
 12478                           
 12479                           ;MCAL_Layer/GPIO/hal_GPIO.c: 91:                 break;
 12480   002D92  EFE6  F016         	goto	i2l695
 12481   002D96                     i2l8971:
 12482   002D96  0E00               	movlw	0
 12483   002D98  6E0B               	movwf	(i2GPIO_Pin_Write_Logic@ret+1)^0,c
 12484   002D9A  0E00               	movlw	0
 12485   002D9C  6E0A               	movwf	i2GPIO_Pin_Write_Logic@ret^0,c
 12486                           
 12487                           ;MCAL_Layer/GPIO/hal_GPIO.c: 93:         }
 12488   002D9E  EFE6  F016         	goto	i2l695
 12489   002DA2                     i2l8973:
 12490   002DA2  5003               	movf	i2GPIO_Pin_Write_Logic@Logic^0,w,c
 12491   002DA4  6E04               	movwf	??i2_GPIO_Pin_Write_Logic^0,c
 12492   002DA6  6A05               	clrf	(??i2_GPIO_Pin_Write_Logic+1)^0,c
 12493                           
 12494                           ; Switch on 2 bytes has been partitioned into a top level switch of size 1, and 1 sub-sw
      +                          itches
 12495                           ; Switch size 1, requested type "simple"
 12496                           ; Number of cases is 1, Range of values is 0 to 0
 12497                           ; switch strategies available:
 12498                           ; Name         Instructions Cycles
 12499                           ; simple_byte            4     3 (average)
 12500                           ;	Chosen strategy is simple_byte
 12501   002DA8  5005               	movf	(??i2_GPIO_Pin_Write_Logic+1)^0,w,c
 12502   002DAA  0A00               	xorlw	0	; case 0
 12503   002DAC  B4D8               	btfsc	status,2,c
 12504   002DAE  EFDB  F016         	goto	i2l11439
 12505   002DB2  EFCB  F016         	goto	i2l8971
 12506   002DB6                     i2l11439:
 12507                           
 12508                           ; Switch size 1, requested type "simple"
 12509                           ; Number of cases is 2, Range of values is 0 to 1
 12510                           ; switch strategies available:
 12511                           ; Name         Instructions Cycles
 12512                           ; simple_byte            7     4 (average)
 12513                           ;	Chosen strategy is simple_byte
 12514   002DB6  5004               	movf	??i2_GPIO_Pin_Write_Logic^0,w,c
 12515   002DB8  0A00               	xorlw	0	; case 0
 12516   002DBA  B4D8               	btfsc	status,2,c
 12517   002DBC  EF6C  F016         	goto	i2l8967
 12518   002DC0  0A01               	xorlw	1	; case 1
 12519   002DC2  B4D8               	btfsc	status,2,c
 12520   002DC4  EF9D  F016         	goto	i2l8969
 12521   002DC8  EFCB  F016         	goto	i2l8971
 12522   002DCC                     i2l695:
 12523                           
 12524                           ;MCAL_Layer/GPIO/hal_GPIO.c: 95:     return ret;
 12525   002DCC  C00A  F001         	movff	i2GPIO_Pin_Write_Logic@ret,?i2_GPIO_Pin_Write_Logic
 12526   002DD0  C00B  F002         	movff	i2GPIO_Pin_Write_Logic@ret+1,?i2_GPIO_Pin_Write_Logic+1
 12527   002DD4  0012               	return		;funcret
 12528   002DD6                     __end_ofi2_GPIO_Pin_Write_Logic:
 12529                           	callstack 0
 12530                           
 12531 ;; *************** function _SPI_ISR *****************
 12532 ;; Defined at:
 12533 ;;		line 178 in file "MCAL_Layer/SPI/hal_spi.c"
 12534 ;; Parameters:    Size  Location     Type
 12535 ;;		None
 12536 ;; Auto vars:     Size  Location     Type
 12537 ;;		None
 12538 ;; Return value:  Size  Location     Type
 12539 ;;                  1    wreg      void 
 12540 ;; Registers used:
 12541 ;;		None
 12542 ;; Tracked objects:
 12543 ;;		On entry : 0/0
 12544 ;;		On exit  : 0/0
 12545 ;;		Unchanged: 0/0
 12546 ;; Data sizes:     COMRAM   BANK0   BANK1   BANK2   BANK3   BANK4   BANK5   BANK6   BANK7   BANK8   BANK9  BANK10  BANK1
      +1  BANK12  BANK13  BANK14  BANK15
 12547 ;;      Params:         0       0       0       0       0       0       0       0       0       0       0       0       
      +0       0       0       0       0
 12548 ;;      Locals:         0       0       0       0       0       0       0       0       0       0       0       0       
      +0       0       0       0       0
 12549 ;;      Temps:          0       0       0       0       0       0       0       0       0       0       0       0       
      +0       0       0       0       0
 12550 ;;      Totals:         0       0       0       0       0       0       0       0       0       0       0       0       
      +0       0       0       0       0
 12551 ;;Total ram usage:        0 bytes
 12552 ;; Hardware stack levels used: 1
 12553 ;; This function calls:
 12554 ;;		Nothing
 12555 ;; This function is called by:
 12556 ;;		_InterruptManagerHigh
 12557 ;; This function uses a non-reentrant model
 12558 ;;
 12559                           
 12560                           	psect	text46
 12561   003EEA                     __ptext46:
 12562                           	callstack 0
 12563   003EEA                     _SPI_ISR:
 12564                           	callstack 23
 12565   003EEA  0012               	return		;funcret
 12566   003EEC                     __end_of_SPI_ISR:
 12567                           	callstack 0
 12568                           
 12569 ;; *************** function _RB7_ISR *****************
 12570 ;; Defined at:
 12571 ;;		line 260 in file "MCAL_Layer/Interrupt/mcal_external_interrupt.c"
 12572 ;; Parameters:    Size  Location     Type
 12573 ;;  state           1    wreg     unsigned char 
 12574 ;; Auto vars:     Size  Location     Type
 12575 ;;  state           1    0[COMRAM] unsigned char 
 12576 ;; Return value:  Size  Location     Type
 12577 ;;                  1    wreg      void 
 12578 ;; Registers used:
 12579 ;;		wreg, status,2, status,0
 12580 ;; Tracked objects:
 12581 ;;		On entry : 0/0
 12582 ;;		On exit  : 0/0
 12583 ;;		Unchanged: 0/0
 12584 ;; Data sizes:     COMRAM   BANK0   BANK1   BANK2   BANK3   BANK4   BANK5   BANK6   BANK7   BANK8   BANK9  BANK10  BANK1
      +1  BANK12  BANK13  BANK14  BANK15
 12585 ;;      Params:         0       0       0       0       0       0       0       0       0       0       0       0       
      +0       0       0       0       0
 12586 ;;      Locals:         1       0       0       0       0       0       0       0       0       0       0       0       
      +0       0       0       0       0
 12587 ;;      Temps:          0       0       0       0       0       0       0       0       0       0       0       0       
      +0       0       0       0       0
 12588 ;;      Totals:         1       0       0       0       0       0       0       0       0       0       0       0       
      +0       0       0       0       0
 12589 ;;Total ram usage:        1 bytes
 12590 ;; Hardware stack levels used: 1
 12591 ;; This function calls:
 12592 ;;		Nothing
 12593 ;; This function is called by:
 12594 ;;		_InterruptManagerHigh
 12595 ;; This function uses a non-reentrant model
 12596 ;;
 12597                           
 12598                           	psect	text47
 12599   003E2A                     __ptext47:
 12600                           	callstack 0
 12601   003E2A                     _RB7_ISR:
 12602                           	callstack 23
 12603                           
 12604                           ;incstack = 0
 12605                           ;RB7_ISR@state stored from wreg
 12606   003E2A  6E01               	movwf	RB7_ISR@state^0,c
 12607   003E2C                     
 12608                           ;MCAL_Layer/Interrupt/mcal_external_interrupt.c: 260: void RB7_ISR(uint8 state);MCAL_Lay
      +                          er/Interrupt/mcal_external_interrupt.c: 261: {;MCAL_Layer/Interrupt/mcal_external_interr
      +                          upt.c: 263:     (INTCONbits.RBIF = 0);
 12609   003E2C  90F2               	bcf	242,0,c	;volatile
 12610   003E2E                     
 12611                           ;MCAL_Layer/Interrupt/mcal_external_interrupt.c: 267:     if(0 == state)
 12612   003E2E  5001               	movf	RB7_ISR@state^0,w,c
 12613   003E30  A4D8               	btfss	status,2,c
 12614   003E32  EF1D  F01F         	goto	i2u497_41
 12615   003E36  EF1F  F01F         	goto	i2u497_40
 12616   003E3A                     i2u497_41:
 12617   003E3A  EF21  F01F         	goto	i2l6783
 12618   003E3E                     i2u497_40:
 12619   003E3E  EF21  F01F         	goto	i2l1027
 12620   003E42                     i2l6783:
 12621   003E42                     i2l1027:
 12622   003E42  0012               	return		;funcret
 12623   003E44                     __end_of_RB7_ISR:
 12624                           	callstack 0
 12625                           
 12626 ;; *************** function _RB6_ISR *****************
 12627 ;; Defined at:
 12628 ;;		line 236 in file "MCAL_Layer/Interrupt/mcal_external_interrupt.c"
 12629 ;; Parameters:    Size  Location     Type
 12630 ;;  state           1    wreg     unsigned char 
 12631 ;; Auto vars:     Size  Location     Type
 12632 ;;  state           1    0[COMRAM] unsigned char 
 12633 ;; Return value:  Size  Location     Type
 12634 ;;                  1    wreg      void 
 12635 ;; Registers used:
 12636 ;;		wreg, status,2, status,0
 12637 ;; Tracked objects:
 12638 ;;		On entry : 0/0
 12639 ;;		On exit  : 0/0
 12640 ;;		Unchanged: 0/0
 12641 ;; Data sizes:     COMRAM   BANK0   BANK1   BANK2   BANK3   BANK4   BANK5   BANK6   BANK7   BANK8   BANK9  BANK10  BANK1
      +1  BANK12  BANK13  BANK14  BANK15
 12642 ;;      Params:         0       0       0       0       0       0       0       0       0       0       0       0       
      +0       0       0       0       0
 12643 ;;      Locals:         1       0       0       0       0       0       0       0       0       0       0       0       
      +0       0       0       0       0
 12644 ;;      Temps:          0       0       0       0       0       0       0       0       0       0       0       0       
      +0       0       0       0       0
 12645 ;;      Totals:         1       0       0       0       0       0       0       0       0       0       0       0       
      +0       0       0       0       0
 12646 ;;Total ram usage:        1 bytes
 12647 ;; Hardware stack levels used: 1
 12648 ;; This function calls:
 12649 ;;		Nothing
 12650 ;; This function is called by:
 12651 ;;		_InterruptManagerHigh
 12652 ;; This function uses a non-reentrant model
 12653 ;;
 12654                           
 12655                           	psect	text48
 12656   003E44                     __ptext48:
 12657                           	callstack 0
 12658   003E44                     _RB6_ISR:
 12659                           	callstack 23
 12660                           
 12661                           ;incstack = 0
 12662                           ;RB6_ISR@state stored from wreg
 12663   003E44  6E01               	movwf	RB6_ISR@state^0,c
 12664   003E46                     
 12665                           ;MCAL_Layer/Interrupt/mcal_external_interrupt.c: 236: void RB6_ISR(uint8 state);MCAL_Lay
      +                          er/Interrupt/mcal_external_interrupt.c: 237: {;MCAL_Layer/Interrupt/mcal_external_interr
      +                          upt.c: 239:     (INTCONbits.RBIF = 0);
 12666   003E46  90F2               	bcf	242,0,c	;volatile
 12667   003E48                     
 12668                           ;MCAL_Layer/Interrupt/mcal_external_interrupt.c: 243:     if(0 == state)
 12669   003E48  5001               	movf	RB6_ISR@state^0,w,c
 12670   003E4A  A4D8               	btfss	status,2,c
 12671   003E4C  EF2A  F01F         	goto	i2u496_41
 12672   003E50  EF2C  F01F         	goto	i2u496_40
 12673   003E54                     i2u496_41:
 12674   003E54  EF2E  F01F         	goto	i2l6769
 12675   003E58                     i2u496_40:
 12676   003E58  EF2E  F01F         	goto	i2l1016
 12677   003E5C                     i2l6769:
 12678   003E5C                     i2l1016:
 12679   003E5C  0012               	return		;funcret
 12680   003E5E                     __end_of_RB6_ISR:
 12681                           	callstack 0
 12682                           
 12683 ;; *************** function _RB5_ISR *****************
 12684 ;; Defined at:
 12685 ;;		line 212 in file "MCAL_Layer/Interrupt/mcal_external_interrupt.c"
 12686 ;; Parameters:    Size  Location     Type
 12687 ;;  state           1    wreg     unsigned char 
 12688 ;; Auto vars:     Size  Location     Type
 12689 ;;  state           1    0[COMRAM] unsigned char 
 12690 ;; Return value:  Size  Location     Type
 12691 ;;                  1    wreg      void 
 12692 ;; Registers used:
 12693 ;;		wreg, status,2, status,0
 12694 ;; Tracked objects:
 12695 ;;		On entry : 0/0
 12696 ;;		On exit  : 0/0
 12697 ;;		Unchanged: 0/0
 12698 ;; Data sizes:     COMRAM   BANK0   BANK1   BANK2   BANK3   BANK4   BANK5   BANK6   BANK7   BANK8   BANK9  BANK10  BANK1
      +1  BANK12  BANK13  BANK14  BANK15
 12699 ;;      Params:         0       0       0       0       0       0       0       0       0       0       0       0       
      +0       0       0       0       0
 12700 ;;      Locals:         1       0       0       0       0       0       0       0       0       0       0       0       
      +0       0       0       0       0
 12701 ;;      Temps:          0       0       0       0       0       0       0       0       0       0       0       0       
      +0       0       0       0       0
 12702 ;;      Totals:         1       0       0       0       0       0       0       0       0       0       0       0       
      +0       0       0       0       0
 12703 ;;Total ram usage:        1 bytes
 12704 ;; Hardware stack levels used: 1
 12705 ;; This function calls:
 12706 ;;		Nothing
 12707 ;; This function is called by:
 12708 ;;		_InterruptManagerHigh
 12709 ;; This function uses a non-reentrant model
 12710 ;;
 12711                           
 12712                           	psect	text49
 12713   003E5E                     __ptext49:
 12714                           	callstack 0
 12715   003E5E                     _RB5_ISR:
 12716                           	callstack 23
 12717                           
 12718                           ;incstack = 0
 12719                           ;RB5_ISR@state stored from wreg
 12720   003E5E  6E01               	movwf	RB5_ISR@state^0,c
 12721   003E60                     
 12722                           ;MCAL_Layer/Interrupt/mcal_external_interrupt.c: 212: void RB5_ISR(uint8 state);MCAL_Lay
      +                          er/Interrupt/mcal_external_interrupt.c: 213: {;MCAL_Layer/Interrupt/mcal_external_interr
      +                          upt.c: 215:     (INTCONbits.RBIF = 0);
 12723   003E60  90F2               	bcf	242,0,c	;volatile
 12724   003E62                     
 12725                           ;MCAL_Layer/Interrupt/mcal_external_interrupt.c: 219:     if(0 == state)
 12726   003E62  5001               	movf	RB5_ISR@state^0,w,c
 12727   003E64  A4D8               	btfss	status,2,c
 12728   003E66  EF37  F01F         	goto	i2u495_41
 12729   003E6A  EF39  F01F         	goto	i2u495_40
 12730   003E6E                     i2u495_41:
 12731   003E6E  EF3B  F01F         	goto	i2l6755
 12732   003E72                     i2u495_40:
 12733   003E72  EF3B  F01F         	goto	i2l1005
 12734   003E76                     i2l6755:
 12735   003E76                     i2l1005:
 12736   003E76  0012               	return		;funcret
 12737   003E78                     __end_of_RB5_ISR:
 12738                           	callstack 0
 12739                           
 12740 ;; *************** function _RB4_ISR *****************
 12741 ;; Defined at:
 12742 ;;		line 187 in file "MCAL_Layer/Interrupt/mcal_external_interrupt.c"
 12743 ;; Parameters:    Size  Location     Type
 12744 ;;  state           1    wreg     unsigned char 
 12745 ;; Auto vars:     Size  Location     Type
 12746 ;;  state           1    0[COMRAM] unsigned char 
 12747 ;; Return value:  Size  Location     Type
 12748 ;;                  1    wreg      void 
 12749 ;; Registers used:
 12750 ;;		wreg, status,2, status,0
 12751 ;; Tracked objects:
 12752 ;;		On entry : 0/0
 12753 ;;		On exit  : 0/0
 12754 ;;		Unchanged: 0/0
 12755 ;; Data sizes:     COMRAM   BANK0   BANK1   BANK2   BANK3   BANK4   BANK5   BANK6   BANK7   BANK8   BANK9  BANK10  BANK1
      +1  BANK12  BANK13  BANK14  BANK15
 12756 ;;      Params:         0       0       0       0       0       0       0       0       0       0       0       0       
      +0       0       0       0       0
 12757 ;;      Locals:         1       0       0       0       0       0       0       0       0       0       0       0       
      +0       0       0       0       0
 12758 ;;      Temps:          0       0       0       0       0       0       0       0       0       0       0       0       
      +0       0       0       0       0
 12759 ;;      Totals:         1       0       0       0       0       0       0       0       0       0       0       0       
      +0       0       0       0       0
 12760 ;;Total ram usage:        1 bytes
 12761 ;; Hardware stack levels used: 1
 12762 ;; This function calls:
 12763 ;;		Nothing
 12764 ;; This function is called by:
 12765 ;;		_InterruptManagerHigh
 12766 ;; This function uses a non-reentrant model
 12767 ;;
 12768                           
 12769                           	psect	text50
 12770   003E78                     __ptext50:
 12771                           	callstack 0
 12772   003E78                     _RB4_ISR:
 12773                           	callstack 23
 12774                           
 12775                           ;incstack = 0
 12776                           ;RB4_ISR@state stored from wreg
 12777   003E78  6E01               	movwf	RB4_ISR@state^0,c
 12778   003E7A                     
 12779                           ;MCAL_Layer/Interrupt/mcal_external_interrupt.c: 187: void RB4_ISR(uint8 state);MCAL_Lay
      +                          er/Interrupt/mcal_external_interrupt.c: 188: {;MCAL_Layer/Interrupt/mcal_external_interr
      +                          upt.c: 190:     (INTCONbits.RBIF = 0);
 12780   003E7A  90F2               	bcf	242,0,c	;volatile
 12781   003E7C                     
 12782                           ;MCAL_Layer/Interrupt/mcal_external_interrupt.c: 194:     if(0 == state)
 12783   003E7C  5001               	movf	RB4_ISR@state^0,w,c
 12784   003E7E  A4D8               	btfss	status,2,c
 12785   003E80  EF44  F01F         	goto	i2u494_41
 12786   003E84  EF46  F01F         	goto	i2u494_40
 12787   003E88                     i2u494_41:
 12788   003E88  EF48  F01F         	goto	i2l6741
 12789   003E8C                     i2u494_40:
 12790   003E8C  EF48  F01F         	goto	i2l994
 12791   003E90                     i2l6741:
 12792   003E90                     i2l994:
 12793   003E90  0012               	return		;funcret
 12794   003E92                     __end_of_RB4_ISR:
 12795                           	callstack 0
 12796                           
 12797 ;; *************** function _MSSP_I2C_ISR *****************
 12798 ;; Defined at:
 12799 ;;		line 242 in file "MCAL_Layer/I2C/hal_i2c.c"
 12800 ;; Parameters:    Size  Location     Type
 12801 ;;		None
 12802 ;; Auto vars:     Size  Location     Type
 12803 ;;		None
 12804 ;; Return value:  Size  Location     Type
 12805 ;;                  1    wreg      void 
 12806 ;; Registers used:
 12807 ;;		None
 12808 ;; Tracked objects:
 12809 ;;		On entry : 0/0
 12810 ;;		On exit  : 0/0
 12811 ;;		Unchanged: 0/0
 12812 ;; Data sizes:     COMRAM   BANK0   BANK1   BANK2   BANK3   BANK4   BANK5   BANK6   BANK7   BANK8   BANK9  BANK10  BANK1
      +1  BANK12  BANK13  BANK14  BANK15
 12813 ;;      Params:         0       0       0       0       0       0       0       0       0       0       0       0       
      +0       0       0       0       0
 12814 ;;      Locals:         0       0       0       0       0       0       0       0       0       0       0       0       
      +0       0       0       0       0
 12815 ;;      Temps:          0       0       0       0       0       0       0       0       0       0       0       0       
      +0       0       0       0       0
 12816 ;;      Totals:         0       0       0       0       0       0       0       0       0       0       0       0       
      +0       0       0       0       0
 12817 ;;Total ram usage:        0 bytes
 12818 ;; Hardware stack levels used: 1
 12819 ;; This function calls:
 12820 ;;		Nothing
 12821 ;; This function is called by:
 12822 ;;		_InterruptManagerHigh
 12823 ;; This function uses a non-reentrant model
 12824 ;;
 12825                           
 12826                           	psect	text51
 12827   003EC8                     __ptext51:
 12828                           	callstack 0
 12829   003EC8                     _MSSP_I2C_ISR:
 12830                           	callstack 23
 12831   003EC8                     
 12832                           ;MCAL_Layer/I2C/hal_i2c.c: 244:     (PIR1bits.SSPIF = 0);
 12833   003EC8  969E               	bcf	158,3,c	;volatile
 12834   003ECA  0012               	return		;funcret
 12835   003ECC                     __end_of_MSSP_I2C_ISR:
 12836                           	callstack 0
 12837                           
 12838 ;; *************** function _MSSP_I2C_BC_ISR *****************
 12839 ;; Defined at:
 12840 ;;		line 251 in file "MCAL_Layer/I2C/hal_i2c.c"
 12841 ;; Parameters:    Size  Location     Type
 12842 ;;		None
 12843 ;; Auto vars:     Size  Location     Type
 12844 ;;		None
 12845 ;; Return value:  Size  Location     Type
 12846 ;;                  1    wreg      void 
 12847 ;; Registers used:
 12848 ;;		None
 12849 ;; Tracked objects:
 12850 ;;		On entry : 0/0
 12851 ;;		On exit  : 0/0
 12852 ;;		Unchanged: 0/0
 12853 ;; Data sizes:     COMRAM   BANK0   BANK1   BANK2   BANK3   BANK4   BANK5   BANK6   BANK7   BANK8   BANK9  BANK10  BANK1
      +1  BANK12  BANK13  BANK14  BANK15
 12854 ;;      Params:         0       0       0       0       0       0       0       0       0       0       0       0       
      +0       0       0       0       0
 12855 ;;      Locals:         0       0       0       0       0       0       0       0       0       0       0       0       
      +0       0       0       0       0
 12856 ;;      Temps:          0       0       0       0       0       0       0       0       0       0       0       0       
      +0       0       0       0       0
 12857 ;;      Totals:         0       0       0       0       0       0       0       0       0       0       0       0       
      +0       0       0       0       0
 12858 ;;Total ram usage:        0 bytes
 12859 ;; Hardware stack levels used: 1
 12860 ;; This function calls:
 12861 ;;		Nothing
 12862 ;; This function is called by:
 12863 ;;		_InterruptManagerHigh
 12864 ;; This function uses a non-reentrant model
 12865 ;;
 12866                           
 12867                           	psect	text52
 12868   003ECC                     __ptext52:
 12869                           	callstack 0
 12870   003ECC                     _MSSP_I2C_BC_ISR:
 12871                           	callstack 23
 12872   003ECC                     
 12873                           ;MCAL_Layer/I2C/hal_i2c.c: 253:     (PIR2bits.BCLIF = 0);
 12874   003ECC  96A1               	bcf	161,3,c	;volatile
 12875   003ECE  0012               	return		;funcret
 12876   003ED0                     __end_of_MSSP_I2C_BC_ISR:
 12877                           	callstack 0
 12878                           
 12879 ;; *************** function _INT2_ISR *****************
 12880 ;; Defined at:
 12881 ;;		line 109 in file "MCAL_Layer/Interrupt/mcal_external_interrupt.c"
 12882 ;; Parameters:    Size  Location     Type
 12883 ;;		None
 12884 ;; Auto vars:     Size  Location     Type
 12885 ;;		None
 12886 ;; Return value:  Size  Location     Type
 12887 ;;                  1    wreg      void 
 12888 ;; Registers used:
 12889 ;;		None
 12890 ;; Tracked objects:
 12891 ;;		On entry : 0/0
 12892 ;;		On exit  : 0/0
 12893 ;;		Unchanged: 0/0
 12894 ;; Data sizes:     COMRAM   BANK0   BANK1   BANK2   BANK3   BANK4   BANK5   BANK6   BANK7   BANK8   BANK9  BANK10  BANK1
      +1  BANK12  BANK13  BANK14  BANK15
 12895 ;;      Params:         0       0       0       0       0       0       0       0       0       0       0       0       
      +0       0       0       0       0
 12896 ;;      Locals:         0       0       0       0       0       0       0       0       0       0       0       0       
      +0       0       0       0       0
 12897 ;;      Temps:          0       0       0       0       0       0       0       0       0       0       0       0       
      +0       0       0       0       0
 12898 ;;      Totals:         0       0       0       0       0       0       0       0       0       0       0       0       
      +0       0       0       0       0
 12899 ;;Total ram usage:        0 bytes
 12900 ;; Hardware stack levels used: 1
 12901 ;; This function calls:
 12902 ;;		Nothing
 12903 ;; This function is called by:
 12904 ;;		_InterruptManagerHigh
 12905 ;; This function uses a non-reentrant model
 12906 ;;
 12907                           
 12908                           	psect	text53
 12909   003ED0                     __ptext53:
 12910                           	callstack 0
 12911   003ED0                     _INT2_ISR:
 12912                           	callstack 23
 12913   003ED0                     
 12914                           ;MCAL_Layer/Interrupt/mcal_external_interrupt.c: 112:     (INTCON3bits.INT2F = 0);
 12915   003ED0  92F0               	bcf	240,1,c	;volatile
 12916   003ED2  0012               	return		;funcret
 12917   003ED4                     __end_of_INT2_ISR:
 12918                           	callstack 0
 12919                           
 12920 ;; *************** function _INT1_ISR *****************
 12921 ;; Defined at:
 12922 ;;		line 94 in file "MCAL_Layer/Interrupt/mcal_external_interrupt.c"
 12923 ;; Parameters:    Size  Location     Type
 12924 ;;		None
 12925 ;; Auto vars:     Size  Location     Type
 12926 ;;		None
 12927 ;; Return value:  Size  Location     Type
 12928 ;;                  1    wreg      void 
 12929 ;; Registers used:
 12930 ;;		None
 12931 ;; Tracked objects:
 12932 ;;		On entry : 0/0
 12933 ;;		On exit  : 0/0
 12934 ;;		Unchanged: 0/0
 12935 ;; Data sizes:     COMRAM   BANK0   BANK1   BANK2   BANK3   BANK4   BANK5   BANK6   BANK7   BANK8   BANK9  BANK10  BANK1
      +1  BANK12  BANK13  BANK14  BANK15
 12936 ;;      Params:         0       0       0       0       0       0       0       0       0       0       0       0       
      +0       0       0       0       0
 12937 ;;      Locals:         0       0       0       0       0       0       0       0       0       0       0       0       
      +0       0       0       0       0
 12938 ;;      Temps:          0       0       0       0       0       0       0       0       0       0       0       0       
      +0       0       0       0       0
 12939 ;;      Totals:         0       0       0       0       0       0       0       0       0       0       0       0       
      +0       0       0       0       0
 12940 ;;Total ram usage:        0 bytes
 12941 ;; Hardware stack levels used: 1
 12942 ;; This function calls:
 12943 ;;		Nothing
 12944 ;; This function is called by:
 12945 ;;		_InterruptManagerHigh
 12946 ;; This function uses a non-reentrant model
 12947 ;;
 12948                           
 12949                           	psect	text54
 12950   003ED4                     __ptext54:
 12951                           	callstack 0
 12952   003ED4                     _INT1_ISR:
 12953                           	callstack 23
 12954   003ED4                     
 12955                           ;MCAL_Layer/Interrupt/mcal_external_interrupt.c: 97:     (INTCON3bits.INT1F = 0);
 12956   003ED4  90F0               	bcf	240,0,c	;volatile
 12957   003ED6  0012               	return		;funcret
 12958   003ED8                     __end_of_INT1_ISR:
 12959                           	callstack 0
 12960                           
 12961 ;; *************** function _INT0_ISR *****************
 12962 ;; Defined at:
 12963 ;;		line 79 in file "MCAL_Layer/Interrupt/mcal_external_interrupt.c"
 12964 ;; Parameters:    Size  Location     Type
 12965 ;;		None
 12966 ;; Auto vars:     Size  Location     Type
 12967 ;;		None
 12968 ;; Return value:  Size  Location     Type
 12969 ;;                  1    wreg      void 
 12970 ;; Registers used:
 12971 ;;		None
 12972 ;; Tracked objects:
 12973 ;;		On entry : 0/0
 12974 ;;		On exit  : 0/0
 12975 ;;		Unchanged: 0/0
 12976 ;; Data sizes:     COMRAM   BANK0   BANK1   BANK2   BANK3   BANK4   BANK5   BANK6   BANK7   BANK8   BANK9  BANK10  BANK1
      +1  BANK12  BANK13  BANK14  BANK15
 12977 ;;      Params:         0       0       0       0       0       0       0       0       0       0       0       0       
      +0       0       0       0       0
 12978 ;;      Locals:         0       0       0       0       0       0       0       0       0       0       0       0       
      +0       0       0       0       0
 12979 ;;      Temps:          0       0       0       0       0       0       0       0       0       0       0       0       
      +0       0       0       0       0
 12980 ;;      Totals:         0       0       0       0       0       0       0       0       0       0       0       0       
      +0       0       0       0       0
 12981 ;;Total ram usage:        0 bytes
 12982 ;; Hardware stack levels used: 1
 12983 ;; This function calls:
 12984 ;;		Nothing
 12985 ;; This function is called by:
 12986 ;;		_InterruptManagerHigh
 12987 ;; This function uses a non-reentrant model
 12988 ;;
 12989                           
 12990                           	psect	text55
 12991   003ED8                     __ptext55:
 12992                           	callstack 0
 12993   003ED8                     _INT0_ISR:
 12994                           	callstack 23
 12995   003ED8                     
 12996                           ;MCAL_Layer/Interrupt/mcal_external_interrupt.c: 82:     (INTCONbits.INT0IF = 0);
 12997   003ED8  92F2               	bcf	242,1,c	;volatile
 12998   003EDA  0012               	return		;funcret
 12999   003EDC                     __end_of_INT0_ISR:
 13000                           	callstack 0
 13001                           
 13002 ;; *************** function _ECCP_ISR *****************
 13003 ;; Defined at:
 13004 ;;		line 121 in file "MCAL_Layer/ECCP/hal_eccp.c"
 13005 ;; Parameters:    Size  Location     Type
 13006 ;;		None
 13007 ;; Auto vars:     Size  Location     Type
 13008 ;;		None
 13009 ;; Return value:  Size  Location     Type
 13010 ;;                  1    wreg      void 
 13011 ;; Registers used:
 13012 ;;		None
 13013 ;; Tracked objects:
 13014 ;;		On entry : 0/0
 13015 ;;		On exit  : 0/0
 13016 ;;		Unchanged: 0/0
 13017 ;; Data sizes:     COMRAM   BANK0   BANK1   BANK2   BANK3   BANK4   BANK5   BANK6   BANK7   BANK8   BANK9  BANK10  BANK1
      +1  BANK12  BANK13  BANK14  BANK15
 13018 ;;      Params:         0       0       0       0       0       0       0       0       0       0       0       0       
      +0       0       0       0       0
 13019 ;;      Locals:         0       0       0       0       0       0       0       0       0       0       0       0       
      +0       0       0       0       0
 13020 ;;      Temps:          0       0       0       0       0       0       0       0       0       0       0       0       
      +0       0       0       0       0
 13021 ;;      Totals:         0       0       0       0       0       0       0       0       0       0       0       0       
      +0       0       0       0       0
 13022 ;;Total ram usage:        0 bytes
 13023 ;; Hardware stack levels used: 1
 13024 ;; This function calls:
 13025 ;;		Nothing
 13026 ;; This function is called by:
 13027 ;;		_InterruptManagerHigh
 13028 ;; This function uses a non-reentrant model
 13029 ;;
 13030                           
 13031                           	psect	text56
 13032   003EDC                     __ptext56:
 13033                           	callstack 0
 13034   003EDC                     _ECCP_ISR:
 13035                           	callstack 23
 13036   003EDC                     
 13037                           ;MCAL_Layer/ECCP/hal_eccp.c: 122:     (PIR1bits.CCP1IF = 0);
 13038   003EDC  949E               	bcf	158,2,c	;volatile
 13039   003EDE  0012               	return		;funcret
 13040   003EE0                     __end_of_ECCP_ISR:
 13041                           	callstack 0
 13042                           
 13043 ;; *************** function _CCP2_ISR *****************
 13044 ;; Defined at:
 13045 ;;		line 423 in file "MCAL_Layer/CCP1/hal_ccp.c"
 13046 ;; Parameters:    Size  Location     Type
 13047 ;;		None
 13048 ;; Auto vars:     Size  Location     Type
 13049 ;;		None
 13050 ;; Return value:  Size  Location     Type
 13051 ;;                  1    wreg      void 
 13052 ;; Registers used:
 13053 ;;		None
 13054 ;; Tracked objects:
 13055 ;;		On entry : 0/0
 13056 ;;		On exit  : 0/0
 13057 ;;		Unchanged: 0/0
 13058 ;; Data sizes:     COMRAM   BANK0   BANK1   BANK2   BANK3   BANK4   BANK5   BANK6   BANK7   BANK8   BANK9  BANK10  BANK1
      +1  BANK12  BANK13  BANK14  BANK15
 13059 ;;      Params:         0       0       0       0       0       0       0       0       0       0       0       0       
      +0       0       0       0       0
 13060 ;;      Locals:         0       0       0       0       0       0       0       0       0       0       0       0       
      +0       0       0       0       0
 13061 ;;      Temps:          0       0       0       0       0       0       0       0       0       0       0       0       
      +0       0       0       0       0
 13062 ;;      Totals:         0       0       0       0       0       0       0       0       0       0       0       0       
      +0       0       0       0       0
 13063 ;;Total ram usage:        0 bytes
 13064 ;; Hardware stack levels used: 1
 13065 ;; This function calls:
 13066 ;;		Nothing
 13067 ;; This function is called by:
 13068 ;;		_InterruptManagerHigh
 13069 ;; This function uses a non-reentrant model
 13070 ;;
 13071                           
 13072                           	psect	text57
 13073   003EE0                     __ptext57:
 13074                           	callstack 0
 13075   003EE0                     _CCP2_ISR:
 13076                           	callstack 23
 13077   003EE0                     
 13078                           ;MCAL_Layer/CCP1/hal_ccp.c: 424:     (PIR2bits.CCP2IF = 0);
 13079   003EE0  90A1               	bcf	161,0,c	;volatile
 13080   003EE2  0012               	return		;funcret
 13081   003EE4                     __end_of_CCP2_ISR:
 13082                           	callstack 0
 13083                           
 13084 ;; *************** function _CCP1_ISR *****************
 13085 ;; Defined at:
 13086 ;;		line 417 in file "MCAL_Layer/CCP1/hal_ccp.c"
 13087 ;; Parameters:    Size  Location     Type
 13088 ;;		None
 13089 ;; Auto vars:     Size  Location     Type
 13090 ;;		None
 13091 ;; Return value:  Size  Location     Type
 13092 ;;                  1    wreg      void 
 13093 ;; Registers used:
 13094 ;;		None
 13095 ;; Tracked objects:
 13096 ;;		On entry : 0/0
 13097 ;;		On exit  : 0/0
 13098 ;;		Unchanged: 0/0
 13099 ;; Data sizes:     COMRAM   BANK0   BANK1   BANK2   BANK3   BANK4   BANK5   BANK6   BANK7   BANK8   BANK9  BANK10  BANK1
      +1  BANK12  BANK13  BANK14  BANK15
 13100 ;;      Params:         0       0       0       0       0       0       0       0       0       0       0       0       
      +0       0       0       0       0
 13101 ;;      Locals:         0       0       0       0       0       0       0       0       0       0       0       0       
      +0       0       0       0       0
 13102 ;;      Temps:          0       0       0       0       0       0       0       0       0       0       0       0       
      +0       0       0       0       0
 13103 ;;      Totals:         0       0       0       0       0       0       0       0       0       0       0       0       
      +0       0       0       0       0
 13104 ;;Total ram usage:        0 bytes
 13105 ;; Hardware stack levels used: 1
 13106 ;; This function calls:
 13107 ;;		Nothing
 13108 ;; This function is called by:
 13109 ;;		_InterruptManagerHigh
 13110 ;; This function uses a non-reentrant model
 13111 ;;
 13112                           
 13113                           	psect	text58
 13114   003EE4                     __ptext58:
 13115                           	callstack 0
 13116   003EE4                     _CCP1_ISR:
 13117                           	callstack 23
 13118   003EE4                     
 13119                           ;MCAL_Layer/CCP1/hal_ccp.c: 418:     (PIR1bits.CCP1IF = 0);
 13120   003EE4  949E               	bcf	158,2,c	;volatile
 13121   003EE6  0012               	return		;funcret
 13122   003EE8                     __end_of_CCP1_ISR:
 13123                           	callstack 0
 13124                           
 13125 ;; *************** function _ADC_ISR *****************
 13126 ;; Defined at:
 13127 ;;		line 326 in file "MCAL_Layer/MCAL_ADC/mcal_adc.c"
 13128 ;; Parameters:    Size  Location     Type
 13129 ;;		None
 13130 ;; Auto vars:     Size  Location     Type
 13131 ;;		None
 13132 ;; Return value:  Size  Location     Type
 13133 ;;                  1    wreg      void 
 13134 ;; Registers used:
 13135 ;;		None
 13136 ;; Tracked objects:
 13137 ;;		On entry : 0/0
 13138 ;;		On exit  : 0/0
 13139 ;;		Unchanged: 0/0
 13140 ;; Data sizes:     COMRAM   BANK0   BANK1   BANK2   BANK3   BANK4   BANK5   BANK6   BANK7   BANK8   BANK9  BANK10  BANK1
      +1  BANK12  BANK13  BANK14  BANK15
 13141 ;;      Params:         0       0       0       0       0       0       0       0       0       0       0       0       
      +0       0       0       0       0
 13142 ;;      Locals:         0       0       0       0       0       0       0       0       0       0       0       0       
      +0       0       0       0       0
 13143 ;;      Temps:          0       0       0       0       0       0       0       0       0       0       0       0       
      +0       0       0       0       0
 13144 ;;      Totals:         0       0       0       0       0       0       0       0       0       0       0       0       
      +0       0       0       0       0
 13145 ;;Total ram usage:        0 bytes
 13146 ;; Hardware stack levels used: 1
 13147 ;; This function calls:
 13148 ;;		Nothing
 13149 ;; This function is called by:
 13150 ;;		_InterruptManagerHigh
 13151 ;; This function uses a non-reentrant model
 13152 ;;
 13153                           
 13154                           	psect	text59
 13155   003EEC                     __ptext59:
 13156                           	callstack 0
 13157   003EEC                     _ADC_ISR:
 13158                           	callstack 23
 13159   003EEC  0012               	return		;funcret
 13160   003EEE                     __end_of_ADC_ISR:
 13161                           	callstack 0
 13162                           
 13163                           	psect	text60
 13164   000000                     __ptext60:
 13165                           	callstack 0
 13166   000000                     
 13167                           	psect	rparam
 13168   000000                     
 13169                           	psect	temp
 13170   000065                     btemp:
 13171                           	callstack 0
 13172   000065                     	ds	1
 13173   000000                     int$flags	set	btemp
 13174   000000                     wtemp8	set	btemp+1
 13175   000000                     ttemp5	set	btemp+1
 13176   000000                     ttemp6	set	btemp+4
 13177   000000                     ttemp7	set	btemp+8
 13178                           
 13179                           	psect	idloc
 13180                           
 13181                           ;Config register IDLOC0 @ 0x200000
 13182                           ;	unspecified, using default values
 13183   200000                     	org	2097152
 13184   200000  FF                 	db	255
 13185                           
 13186                           ;Config register IDLOC1 @ 0x200001
 13187                           ;	unspecified, using default values
 13188   200001                     	org	2097153
 13189   200001  FF                 	db	255
 13190                           
 13191                           ;Config register IDLOC2 @ 0x200002
 13192                           ;	unspecified, using default values
 13193   200002                     	org	2097154
 13194   200002  FF                 	db	255
 13195                           
 13196                           ;Config register IDLOC3 @ 0x200003
 13197                           ;	unspecified, using default values
 13198   200003                     	org	2097155
 13199   200003  FF                 	db	255
 13200                           
 13201                           ;Config register IDLOC4 @ 0x200004
 13202                           ;	unspecified, using default values
 13203   200004                     	org	2097156
 13204   200004  FF                 	db	255
 13205                           
 13206                           ;Config register IDLOC5 @ 0x200005
 13207                           ;	unspecified, using default values
 13208   200005                     	org	2097157
 13209   200005  FF                 	db	255
 13210                           
 13211                           ;Config register IDLOC6 @ 0x200006
 13212                           ;	unspecified, using default values
 13213   200006                     	org	2097158
 13214   200006  FF                 	db	255
 13215                           
 13216                           ;Config register IDLOC7 @ 0x200007
 13217                           ;	unspecified, using default values
 13218   200007                     	org	2097159
 13219   200007  FF                 	db	255
 13220                           
 13221                           	psect	config
 13222                           
 13223                           ; Padding undefined space
 13224   300000                     	org	3145728
 13225   300000  FF                 	db	255
 13226                           
 13227                           ;Config register CONFIG1H @ 0x300001
 13228                           ;	Oscillator Selection bits
 13229                           ;	OSC = HS, HS oscillator
 13230                           ;	Fail-Safe Clock Monitor Enable bit
 13231                           ;	FCMEN = OFF, Fail-Safe Clock Monitor disabled
 13232                           ;	Internal/External Oscillator Switchover bit
 13233                           ;	IESO = OFF, Oscillator Switchover mode disabled
 13234   300001                     	org	3145729
 13235   300001  02                 	db	2
 13236                           
 13237                           ;Config register CONFIG2L @ 0x300002
 13238                           ;	Power-up Timer Enable bit
 13239                           ;	PWRT = OFF, PWRT disabled
 13240                           ;	Brown-out Reset Enable bits
 13241                           ;	BOREN = OFF, Brown-out Reset disabled in hardware and software
 13242                           ;	Brown Out Reset Voltage bits
 13243                           ;	BORV = 1, 
 13244   300002                     	org	3145730
 13245   300002  09                 	db	9
 13246                           
 13247                           ;Config register CONFIG2H @ 0x300003
 13248                           ;	Watchdog Timer Enable bit
 13249                           ;	WDT = OFF, WDT disabled (control is placed on the SWDTEN bit)
 13250                           ;	Watchdog Timer Postscale Select bits
 13251                           ;	WDTPS = 32768, 1:32768
 13252   300003                     	org	3145731
 13253   300003  1E                 	db	30
 13254                           
 13255                           ; Padding undefined space
 13256   300004                     	org	3145732
 13257   300004  FF                 	db	255
 13258                           
 13259                           ;Config register CONFIG3H @ 0x300005
 13260                           ;	CCP2 MUX bit
 13261                           ;	CCP2MX = PORTC, CCP2 input/output is multiplexed with RC1
 13262                           ;	PORTB A/D Enable bit
 13263                           ;	PBADEN = ON, PORTB<4:0> pins are configured as analog input channels on Reset
 13264                           ;	Low-Power Timer1 Oscillator Enable bit
 13265                           ;	LPT1OSC = OFF, Timer1 configured for higher power operation
 13266                           ;	MCLR Pin Enable bit
 13267                           ;	MCLRE = ON, MCLR pin enabled; RE3 input pin disabled
 13268   300005                     	org	3145733
 13269   300005  83                 	db	131
 13270                           
 13271                           ;Config register CONFIG4L @ 0x300006
 13272                           ;	Stack Full/Underflow Reset Enable bit
 13273                           ;	STVREN = ON, Stack full/underflow will cause Reset
 13274                           ;	Single-Supply ICSP Enable bit
 13275                           ;	LVP = OFF, Single-Supply ICSP disabled
 13276                           ;	Extended Instruction Set Enable bit
 13277                           ;	XINST = OFF, Instruction set extension and Indexed Addressing mode disabled (Legacy mo
      +                          de)
 13278                           ;	Background Debugger Enable bit
 13279                           ;	DEBUG = 0x1, unprogrammed default
 13280   300006                     	org	3145734
 13281   300006  81                 	db	129
 13282                           
 13283                           ; Padding undefined space
 13284   300007                     	org	3145735
 13285   300007  FF                 	db	255
 13286                           
 13287                           ;Config register CONFIG5L @ 0x300008
 13288                           ;	Code Protection bit
 13289                           ;	CP0 = OFF, Block 0 (000800-003FFFh) not code-protected
 13290                           ;	Code Protection bit
 13291                           ;	CP1 = OFF, Block 1 (004000-007FFFh) not code-protected
 13292                           ;	Code Protection bit
 13293                           ;	CP2 = OFF, Block 2 (008000-00BFFFh) not code-protected
 13294                           ;	Code Protection bit
 13295                           ;	CP3 = OFF, Block 3 (00C000-00FFFFh) not code-protected
 13296   300008                     	org	3145736
 13297   300008  0F                 	db	15
 13298                           
 13299                           ;Config register CONFIG5H @ 0x300009
 13300                           ;	Boot Block Code Protection bit
 13301                           ;	CPB = OFF, Boot block (000000-0007FFh) not code-protected
 13302                           ;	Data EEPROM Code Protection bit
 13303                           ;	CPD = OFF, Data EEPROM not code-protected
 13304   300009                     	org	3145737
 13305   300009  C0                 	db	192
 13306                           
 13307                           ;Config register CONFIG6L @ 0x30000A
 13308                           ;	Write Protection bit
 13309                           ;	WRT0 = OFF, Block 0 (000800-003FFFh) not write-protected
 13310                           ;	Write Protection bit
 13311                           ;	WRT1 = OFF, Block 1 (004000-007FFFh) not write-protected
 13312                           ;	Write Protection bit
 13313                           ;	WRT2 = OFF, Block 2 (008000-00BFFFh) not write-protected
 13314                           ;	Write Protection bit
 13315                           ;	WRT3 = OFF, Block 3 (00C000-00FFFFh) not write-protected
 13316   30000A                     	org	3145738
 13317   30000A  0F                 	db	15
 13318                           
 13319                           ;Config register CONFIG6H @ 0x30000B
 13320                           ;	Configuration Register Write Protection bit
 13321                           ;	WRTC = OFF, Configuration registers (300000-3000FFh) not write-protected
 13322                           ;	Boot Block Write Protection bit
 13323                           ;	WRTB = OFF, Boot Block (000000-0007FFh) not write-protected
 13324                           ;	Data EEPROM Write Protection bit
 13325                           ;	WRTD = OFF, Data EEPROM not write-protected
 13326   30000B                     	org	3145739
 13327   30000B  E0                 	db	224
 13328                           
 13329                           ;Config register CONFIG7L @ 0x30000C
 13330                           ;	Table Read Protection bit
 13331                           ;	EBTR0 = OFF, Block 0 (000800-003FFFh) not protected from table reads executed in other
      +                           blocks
 13332                           ;	Table Read Protection bit
 13333                           ;	EBTR1 = OFF, Block 1 (004000-007FFFh) not protected from table reads executed in other
      +                           blocks
 13334                           ;	Table Read Protection bit
 13335                           ;	EBTR2 = OFF, Block 2 (008000-00BFFFh) not protected from table reads executed in other
      +                           blocks
 13336                           ;	Table Read Protection bit
 13337                           ;	EBTR3 = OFF, Block 3 (00C000-00FFFFh) not protected from table reads executed in other
      +                           blocks
 13338   30000C                     	org	3145740
 13339   30000C  0F                 	db	15
 13340                           
 13341                           ;Config register CONFIG7H @ 0x30000D
 13342                           ;	Boot Block Table Read Protection bit
 13343                           ;	EBTRB = OFF, Boot Block (000000-0007FFh) not protected from table reads executed in ot
      +                          her blocks
 13344   30000D                     	org	3145741
 13345   30000D  40                 	db	64
 13346                           tosu	equ	0xFFF
 13347                           tosh	equ	0xFFE
 13348                           tosl	equ	0xFFD
 13349                           stkptr	equ	0xFFC
 13350                           pclatu	equ	0xFFB
 13351                           pclath	equ	0xFFA
 13352                           pcl	equ	0xFF9
 13353                           tblptru	equ	0xFF8
 13354                           tblptrh	equ	0xFF7
 13355                           tblptrl	equ	0xFF6
 13356                           tablat	equ	0xFF5
 13357                           prodh	equ	0xFF4
 13358                           prodl	equ	0xFF3
 13359                           indf0	equ	0xFEF
 13360                           postinc0	equ	0xFEE
 13361                           postdec0	equ	0xFED
 13362                           preinc0	equ	0xFEC
 13363                           plusw0	equ	0xFEB
 13364                           fsr0h	equ	0xFEA
 13365                           fsr0l	equ	0xFE9
 13366                           wreg	equ	0xFE8
 13367                           indf1	equ	0xFE7
 13368                           postinc1	equ	0xFE6
 13369                           postdec1	equ	0xFE5
 13370                           preinc1	equ	0xFE4
 13371                           plusw1	equ	0xFE3
 13372                           fsr1h	equ	0xFE2
 13373                           fsr1l	equ	0xFE1
 13374                           bsr	equ	0xFE0
 13375                           indf2	equ	0xFDF
 13376                           postinc2	equ	0xFDE
 13377                           postdec2	equ	0xFDD
 13378                           preinc2	equ	0xFDC
 13379                           plusw2	equ	0xFDB
 13380                           fsr2h	equ	0xFDA
 13381                           fsr2l	equ	0xFD9
 13382                           status	equ	0xFD8

Data Sizes:
    Strings     474
    Constant    16
    Data        74
    BSS         94
    Persistent  2
    Stack       0

Auto Spaces:
    Space          Size  Autos    Used
    COMRAM          126     50     100
    BANK0           128     19     128
    BANK1           256     21      32
    BANK2           256      0       0
    BANK3           256      0       0
    BANK4           256      0       0
    BANK5           256      0       0
    BANK6           256      0       0
    BANK7           256      0       0
    BANK8           256      0       0
    BANK9           256      0       0
    BANK10          256      0       0
    BANK11          256      0       0
    BANK12          256      0       0
    BANK13          256      0       0
    BANK14          256      0       0
    BANK15          128      0       0

Pointer List with Targets:

    vfprintf$2	PTR PTR void  size(2) Largest target is 2
		 -> sprintf@ap(COMRAM[2]), 

    vfprintf$1	PTR const unsigned char  size(2) Largest target is 3
		 -> STR_3(CODE[3]), STR_2(CODE[3]), STR_1(CODE[3]), 

    vfprintf$0	PTR struct _IO_FILE size(2) Largest target is 12
		 -> sprintf@f(COMRAM[12]), 

    I2C_Report_Receive_Overflow_InterruptHandle	PTR FTN()void  size(2) Largest target is 1
		 -> NULL(), 

    S5067$source	PTR const unsigned char  size(2) Largest target is 0

    f...source	PTR const unsigned char  size(2) Largest target is 0

    S5067$buffer	PTR unsigned char  size(2) Largest target is 0

    f...buffer	PTR unsigned char  size(2) Largest target is 0

    timer0.TIMER0_IntterruptHandeler	PTR FTN()void  size(2) Largest target is 1
		 -> timer0_isr(), 

    EUSART_OVERRUNERRORDefaultHandler_	PTR FTN()void  size(2) Largest target is 1
		 -> NULL(), 

    EUSART_FRAMINGERRORDefaultHandler_	PTR FTN()void  size(2) Largest target is 1
		 -> NULL(), 

    USART_RX_IntterruptHandeler_	PTR FTN()void  size(2) Largest target is 1
		 -> NULL(), 

    EUSART_ASYNC_RX_CONFIG@_usart.EUSART_OVERRUNERRORDefaultHandler	PTR FTN()void  size(2) Largest target is 0

    EUSART_ASYNC_RX_CONFIG@_usart.EUSART_FRAMINGERRORDefaultHandler	PTR FTN()void  size(2) Largest target is 0

    EUSART_ASYNC_RX_CONFIG@_usart.EUSART_RXDefaultInterruptHandler	PTR FTN()void  size(2) Largest target is 0

    EUSART_ASYNC_RX_CONFIG@_usart.EUSART_TxDefaultInterruptHandler	PTR FTN()void  size(2) Largest target is 0

    USART_TX_IntterruptHandeler_	PTR FTN()void  size(2) Largest target is 1
		 -> NULL(), 

    EUSART_ASYNC_TX_CONFIG@_usart.EUSART_OVERRUNERRORDefaultHandler	PTR FTN()void  size(2) Largest target is 0

    EUSART_ASYNC_TX_CONFIG@_usart.EUSART_FRAMINGERRORDefaultHandler	PTR FTN()void  size(2) Largest target is 0

    EUSART_ASYNC_TX_CONFIG@_usart.EUSART_RXDefaultInterruptHandler	PTR FTN()void  size(2) Largest target is 0

    EUSART_ASYNC_TX_CONFIG@_usart.EUSART_TxDefaultInterruptHandler	PTR FTN()void  size(2) Largest target is 0

    S4009$EUSART_OVERRUNERRORDefaultHandler	PTR FTN()void  size(2) Largest target is 0

    EUSART_Baud_Rate_Calculation@_usart.EUSART_OVERRUNERRORDefaultHandler	PTR FTN()void  size(2) Largest target is 0

    S4009$EUSART_FRAMINGERRORDefaultHandler	PTR FTN()void  size(2) Largest target is 0

    EUSART_Baud_Rate_Calculation@_usart.EUSART_FRAMINGERRORDefaultHandler	PTR FTN()void  size(2) Largest target is 0

    S4009$EUSART_RXDefaultInterruptHandler	PTR FTN()void  size(2) Largest target is 0

    EUSART_Baud_Rate_Calculation@_usart.EUSART_RXDefaultInterruptHandler	PTR FTN()void  size(2) Largest target is 0

    S4009$EUSART_TxDefaultInterruptHandler	PTR FTN()void  size(2) Largest target is 0

    EUSART_Baud_Rate_Calculation@_usart.EUSART_TxDefaultInterruptHandler	PTR FTN()void  size(2) Largest target is 0

    Timer3_mode_select@_timer.TIMER3_InterruptHandler	PTR FTN()void  size(2) Largest target is 0

    TIMER3_InterruptHandler	PTR FTN()void  size(2) Largest target is 1
		 -> NULL(), 

    S3821$TIMER3_InterruptHandler	PTR FTN()void  size(2) Largest target is 0

    timer3_init@_timer.TIMER3_InterruptHandler	PTR FTN()void  size(2) Largest target is 0

    TIMER2_IntterruptHandeler_	PTR FTN()void  size(2) Largest target is 1
		 -> NULL(), 

    S3694$TIMER2_IntterruptHandeler	PTR FTN()void  size(2) Largest target is 0

    Timer2_Intialization@timer2_.TIMER2_IntterruptHandeler	PTR FTN()void  size(2) Largest target is 0

    Timer1_Mode_Select@timer1_.TIMER1_IntterruptHandeler	PTR FTN()void  size(2) Largest target is 0

    TIMER1_IntterruptHandeler	PTR FTN()void  size(2) Largest target is 1
		 -> NULL(), 

    S3490$TIMER1_IntterruptHandeler	PTR FTN()void  size(2) Largest target is 0

    Timer1_Intialization@timer1_.TIMER1_IntterruptHandeler	PTR FTN()void  size(2) Largest target is 0

    Timer0_Bit_Mode_Select@timer0_.TIMER0_IntterruptHandeler	PTR FTN()void  size(2) Largest target is 1
		 -> timer0_isr(), 

    Timer0_Bit_Mode_Select@timer0_	PTR const struct . size(2) Largest target is 6
		 -> timer0(BANK0[6]), 

    Timer0_Mode_Select@timer0_.TIMER0_IntterruptHandeler	PTR FTN()void  size(2) Largest target is 1
		 -> timer0_isr(), 

    Timer0_Mode_Select@timer0_	PTR const struct . size(2) Largest target is 6
		 -> timer0(BANK0[6]), 

    Timer0_Prescaler_Config@timer0_.TIMER0_IntterruptHandeler	PTR FTN()void  size(2) Largest target is 1
		 -> timer0_isr(), 

    Timer0_Prescaler_Config@timer0_	PTR const struct . size(2) Largest target is 6
		 -> timer0(BANK0[6]), 

    TIMER0_IntterruptHandeler	PTR FTN()void  size(2) Largest target is 1
		 -> timer0_isr(), NULL(), 

    S3334$TIMER0_IntterruptHandeler	PTR FTN()void  size(2) Largest target is 1
		 -> timer0_isr(), 

    Timer0_Intialization@timer0_.TIMER0_IntterruptHandeler	PTR FTN()void  size(2) Largest target is 1
		 -> timer0_isr(), 

    Timer0_Intialization@timer0_	PTR const struct . size(2) Largest target is 6
		 -> timer0(BANK0[6]), 

    MSSP_SPI_Slave_Mode_GPIO_PIN_Configurations@_SPI_	PTR const struct . size(2) Largest target is 2
		 -> spi_master(BANK0[2]), 

    SPI_Init@_SPI_	PTR const struct . size(2) Largest target is 2
		 -> spi_master(BANK0[2]), 

    Set_RBX_Handler@int_obj.Interrupt_Handler_Low	PTR FTN()void  size(2) Largest target is 0

    Set_RBX_Handler@int_obj.Interrupt_Handler_High	PTR FTN()void  size(2) Largest target is 0

    S2559$Interrupt_Handler_Low	PTR FTN()void  size(2) Largest target is 0

    Interrupt_RBX_Pin_Intiat@int_obj.Interrupt_Handler_Low	PTR FTN()void  size(2) Largest target is 0

    S2559$Interrupt_Handler_High	PTR FTN()void  size(2) Largest target is 0

    Interrupt_RBX_Pin_Intiat@int_obj.Interrupt_Handler_High	PTR FTN()void  size(2) Largest target is 0

    Set_INTX_Handler@int_obj.Interrupt_Handler	PTR FTN()void  size(2) Largest target is 0

    Interrupt_INTX_Clear_Flag@int_obj.Interrupt_Handler	PTR FTN()void  size(2) Largest target is 0

    Interrupt_INTX_Pin_Intiat@int_obj.Interrupt_Handler	PTR FTN()void  size(2) Largest target is 0

    Interrupt_INTX_Edge_Intiat@int_obj.Interrupt_Handler	PTR FTN()void  size(2) Largest target is 0

    Interrupt_INTX_Disable@int_obj.Interrupt_Handler	PTR FTN()void  size(2) Largest target is 0

    S2451$Interrupt_Handler	PTR FTN()void  size(2) Largest target is 0

    Interrupt_INTX_Enable@int_obj.Interrupt_Handler	PTR FTN()void  size(2) Largest target is 0

    RB7_interruptHandler_Low	PTR FTN()void  size(2) Largest target is 1
		 -> NULL(), 

    RB7_interruptHandler_High	PTR FTN()void  size(2) Largest target is 1
		 -> NULL(), 

    RB6_interruptHandler_Low	PTR FTN()void  size(2) Largest target is 1
		 -> NULL(), 

    RB6_interruptHandler_High	PTR FTN()void  size(2) Largest target is 1
		 -> NULL(), 

    RB5_interruptHandler_Low	PTR FTN()void  size(2) Largest target is 1
		 -> NULL(), 

    RB5_interruptHandler_High	PTR FTN()void  size(2) Largest target is 1
		 -> NULL(), 

    RB4_interruptHandler_Low	PTR FTN()void  size(2) Largest target is 1
		 -> NULL(), 

    RB4_interruptHandler_High	PTR FTN()void  size(2) Largest target is 1
		 -> NULL(), 

    INT2_interruptHandler	PTR FTN()void  size(2) Largest target is 1
		 -> NULL(), 

    INT1_interruptHandler	PTR FTN()void  size(2) Largest target is 1
		 -> NULL(), 

    INT0_interruptHandler	PTR FTN()void  size(2) Largest target is 1
		 -> NULL(), 

    MSSP_I2C_Interrupt_Configurations@i2c_obj.I2C_Report_Receive_Overflow	PTR FTN()void  size(2) Largest target is 0

    MSSP_I2C_Interrupt_Configurations@i2c_obj.I2C_DefaultInterruptHandler	PTR FTN()void  size(2) Largest target is 0

    MSSP_I2C_Interrupt_Configurations@i2c_obj.I2C_Report_Write_Collision	PTR FTN()void  size(2) Largest target is 0

    I2C_Slave_Mode_Configurations@i2c_obj.I2C_Report_Receive_Overflow	PTR FTN()void  size(2) Largest target is 0

    I2C_Slave_Mode_Configurations@i2c_obj.I2C_DefaultInterruptHandler	PTR FTN()void  size(2) Largest target is 0

    I2C_Slave_Mode_Configurations@i2c_obj.I2C_Report_Write_Collision	PTR FTN()void  size(2) Largest target is 0

    I2C_Master_Mode_Clock_Configurations@i2c_obj.I2C_Report_Receive_Overflow	PTR FTN()void  size(2) Largest target is 0

    I2C_Master_Mode_Clock_Configurations@i2c_obj.I2C_DefaultInterruptHandler	PTR FTN()void  size(2) Largest target is 0

    I2C_Master_Mode_Clock_Configurations@i2c_obj.I2C_Report_Write_Collision	PTR FTN()void  size(2) Largest target is 0

    I2C_Report_Write_Collision_InterruptHandler	PTR FTN()void  size(2) Largest target is 1
		 -> NULL(), 

    I2C_DefaultInterruptHandle	PTR FTN()void  size(2) Largest target is 1
		 -> NULL(), 

    S1930$I2C_Report_Receive_Overflow	PTR FTN()void  size(2) Largest target is 0

    MSSP_I2C_Init@i2c_obj.I2C_Report_Receive_Overflow	PTR FTN()void  size(2) Largest target is 0

    S1930$I2C_DefaultInterruptHandler	PTR FTN()void  size(2) Largest target is 0

    MSSP_I2C_Init@i2c_obj.I2C_DefaultInterruptHandler	PTR FTN()void  size(2) Largest target is 0

    S1930$I2C_Report_Write_Collision	PTR FTN()void  size(2) Largest target is 0

    MSSP_I2C_Init@i2c_obj.I2C_Report_Write_Collision	PTR FTN()void  size(2) Largest target is 0

    GPIO_Pin_Intialize@_Pin_Config_	PTR const struct . size(2) Largest target is 8
		 -> lcd1.data_pin(COMRAM[4]), lcd1(COMRAM[6]), key_pad1.Key_Pad_Coulmns(BANK0[4]), key_pad1.Key_Pad_Rows(BANK0[4]), 
		 -> key_pad1(BANK0[8]), Relay_Intialize@_pin_config(COMRAM[1]), Led_Intialize@_pin_config_(BANK1[1]), 

    GPIO_Pin_Read_Logic@Logic	PTR enum E2744 size(2) Largest target is 1
		 -> Key_Pad_Get_Value@coulmns_logic(BANK1[1]), Button_Read_Status@logic(COMRAM[1]), 

    GPIO_Pin_Read_Logic@_Pin_Config_	PTR const struct . size(2) Largest target is 8
		 -> key_pad1.Key_Pad_Coulmns(BANK0[4]), key_pad1(BANK0[8]), 

    GPIO_Pin_Write_Logic@_Pin_Config_	PTR const struct . size(2) Largest target is 8
		 -> lcd1.data_pin(COMRAM[4]), lcd1(COMRAM[6]), key_pad1.Key_Pad_Coulmns(BANK0[4]), key_pad1.Key_Pad_Rows(BANK0[4]), 
		 -> key_pad1(BANK0[8]), Relay_Turn_Off@_pin_config(COMRAM[1]), Relay_Turn_On@_pin_config(COMRAM[1]), Relay_Intialize@_pin_config(COMRAM[1]), 
		 -> Led_Turn_Off@_pin_config_(COMRAM[1]), Led_Turn_On@_pin_config_(BANK0[1]), Led_Intialize@_pin_config_(BANK1[1]), 

    GPIO_Pin_Direction_Intialize@_Pin_Config_	PTR const struct . size(2) Largest target is 8
		 -> MSSP_SPI_Slave_Mode_GPIO_PIN_Configurations@SPI_SS(BANK0[1]), MSSP_SPI_Slave_Mode_GPIO_PIN_Configurations@SPI_SCK(BANK0[1]), MSSP_SPI_Slave_Mode_GPIO_PIN_Configurations@SPI_SDI(BANK0[1]), MSSP_SPI_Slave_Mode_GPIO_PIN_Configurations@SPI_SDO(BANK0[1]), 
		 -> MSSP_SPI_Msster_Mode_GPIO_PIN_Configurations@SPI_SCK(BANK0[1]), MSSP_SPI_Msster_Mode_GPIO_PIN_Configurations@SPI_SDI(BANK0[1]), MSSP_SPI_Msster_Mode_GPIO_PIN_Configurations@SPI_SDO(BANK0[1]), lcd1.data_pin(COMRAM[4]), 
		 -> lcd1(COMRAM[6]), key_pad1.Key_Pad_Coulmns(BANK0[4]), key_pad1.Key_Pad_Rows(BANK0[4]), key_pad1(BANK0[8]), 
		 -> Relay_Intialize@_pin_config(COMRAM[1]), Led_Intialize@_pin_config_(BANK1[1]), 

    Port_Reg	PTR volatile unsigned char [5] size(2) Largest target is 1
		 -> PORTE(BITBIGSFRllll[1]), PORTD(BITBIGSFRllll[1]), PORTC(BITBIGSFRllll[1]), PORTB(BITBIGSFRllll[1]), 
		 -> PORTA(BITBIGSFRllll[1]), 

    Lat_Reg	PTR volatile unsigned char [5] size(2) Largest target is 1
		 -> LATE(BITBIGSFRlllh[1]), LATD(BITBIGSFRlllh[1]), LATC(BITBIGSFRlllh[1]), LATB(BITBIGSFRlllh[1]), 
		 -> LATA(BITBIGSFRllll[1]), 

    Tris_Reg	PTR volatile unsigned char [5] size(2) Largest target is 1
		 -> TRISD(ABS[1]), TRISC(ABS[1]), TRISB(ABS[1]), TRISE(ABS[1]), 
		 -> TRISA(BITBIGSFRllll[1]), 

    EEPROM_Data_ReadByte@bData	PTR unsigned char  size(2) Largest target is 1
		 -> eeprom_digit_read(BANK0[1]), Guest_pass_status(BANK0[1]), Admin_pass_status(BANK0[1]), 

    ECCP_Interrupt_Config@_ECCP_.ECCP_IntterruptHandeler	PTR FTN()void  size(2) Largest target is 0

    ECCP_IntterruptHandeler_	PTR FTN()void  size(2) Largest target is 1
		 -> NULL(), 

    ECCP_PWM_Start@_ECCP_.ECCP_IntterruptHandeler	PTR FTN()void  size(2) Largest target is 0

    S1439$ECCP_IntterruptHandeler	PTR FTN()void  size(2) Largest target is 0

    ECCP_intialize@_ECCP_.ECCP_IntterruptHandeler	PTR FTN()void  size(2) Largest target is 0

    CCP_Compare_Mode_Config_@_CCP_.CCP2_IntterruptHandeler	PTR FTN()void  size(2) Largest target is 0

    CCP_Compare_Mode_Config_@_CCP_.CCP1_IntterruptHandeler	PTR FTN()void  size(2) Largest target is 0

    CCP_capture_Mode_Config_@_CCP_.CCP2_IntterruptHandeler	PTR FTN()void  size(2) Largest target is 0

    CCP_capture_Mode_Config_@_CCP_.CCP1_IntterruptHandeler	PTR FTN()void  size(2) Largest target is 0

    CCP_Capture_Compare_Timer_Selection@_CCP_.CCP2_IntterruptHandeler	PTR FTN()void  size(2) Largest target is 0

    CCP_Capture_Compare_Timer_Selection@_CCP_.CCP1_IntterruptHandeler	PTR FTN()void  size(2) Largest target is 0

    CCP_PWM_Config@_CCP_.CCP2_IntterruptHandeler	PTR FTN()void  size(2) Largest target is 0

    CCP_PWM_Config@_CCP_.CCP1_IntterruptHandeler	PTR FTN()void  size(2) Largest target is 0

    CCP2_IntterruptHandeler	PTR FTN()void  size(2) Largest target is 1
		 -> NULL(), 

    CCP1_IntterruptHandeler	PTR FTN()void  size(2) Largest target is 1
		 -> NULL(), 

    CCP_Interrupt_Config@_CCP_.CCP2_IntterruptHandeler	PTR FTN()void  size(2) Largest target is 0

    CCP_Interrupt_Config@_CCP_.CCP1_IntterruptHandeler	PTR FTN()void  size(2) Largest target is 0

    CCP_Capture_Read_Value@_CCP_.CCP2_IntterruptHandeler	PTR FTN()void  size(2) Largest target is 0

    CCP_Capture_Read_Value@_CCP_.CCP1_IntterruptHandeler	PTR FTN()void  size(2) Largest target is 0

    CCP_Capture_Is_Ready@_CCP_.CCP2_IntterruptHandeler	PTR FTN()void  size(2) Largest target is 0

    CCP_Capture_Is_Ready@_CCP_.CCP1_IntterruptHandeler	PTR FTN()void  size(2) Largest target is 0

    CCP_Deintialize@_CCP_.CCP2_IntterruptHandeler	PTR FTN()void  size(2) Largest target is 0

    CCP_Deintialize@_CCP_.CCP1_IntterruptHandeler	PTR FTN()void  size(2) Largest target is 0

    S883$CCP2_IntterruptHandeler	PTR FTN()void  size(2) Largest target is 0

    CCP_intialize@_CCP_.CCP2_IntterruptHandeler	PTR FTN()void  size(2) Largest target is 0

    S883$CCP1_IntterruptHandeler	PTR FTN()void  size(2) Largest target is 0

    CCP_intialize@_CCP_.CCP1_IntterruptHandeler	PTR FTN()void  size(2) Largest target is 0

    Led_Turn_On@Led	PTR const struct . size(2) Largest target is 1
		 -> led_Admin(COMRAM[1]), led_Guest(COMRAM[1]), led_Block(COMRAM[1]), 

    Led_Intialize@Led	PTR const struct . size(2) Largest target is 1
		 -> led_Admin(COMRAM[1]), led_Guest(COMRAM[1]), led_Block(COMRAM[1]), 

    Key_Pad_Get_Value@value	PTR unsigned char  size(2) Largest target is 1
		 -> key_status(BANK0[1]), 

    Key_Pad_Get_Value@_key_pad	PTR const struct . size(2) Largest target is 8
		 -> key_pad1(BANK0[8]), 

    Key_Pad_Intialize@_key_pad	PTR const struct . size(2) Largest target is 8
		 -> key_pad1(BANK0[8]), 

    lcd_set_cursor@_LCD_	PTR const struct . size(2) Largest target is 6
		 -> lcd1(COMRAM[6]), 

    lcd_send_enable@_LCD_	PTR const struct . size(2) Largest target is 6
		 -> lcd1(COMRAM[6]), 

    lcd_send_4_bit_data@_LCD_	PTR const struct . size(2) Largest target is 6
		 -> lcd1(COMRAM[6]), 

    sp__memset	PTR void  size(2) Largest target is 0

    lcd_send_ATpos_string_data@str	PTR unsigned char  size(2) Largest target is 21
		 -> STR_87(CODE[15]), STR_86(CODE[20]), STR_85(CODE[16]), STR_84(CODE[13]), 
		 -> STR_83(CODE[13]), STR_82(CODE[6]), STR_81(CODE[9]), STR_80(CODE[8]), 
		 -> STR_79(CODE[4]), STR_78(CODE[4]), STR_77(CODE[6]), STR_76(CODE[13]), 
		 -> STR_75(CODE[6]), STR_74(CODE[10]), STR_73(CODE[9]), STR_72(CODE[4]), 
		 -> STR_71(CODE[4]), STR_70(CODE[9]), STR_69(CODE[6]), STR_68(CODE[11]), 
		 -> STR_67(CODE[5]), STR_66(CODE[8]), STR_65(CODE[13]), STR_64(CODE[13]), 
		 -> STR_63(CODE[6]), STR_62(CODE[10]), STR_61(CODE[9]), STR_60(CODE[4]), 
		 -> STR_59(CODE[4]), STR_58(CODE[9]), STR_57(CODE[13]), STR_56(CODE[6]), 
		 -> STR_55(CODE[10]), STR_54(CODE[9]), STR_53(CODE[4]), STR_52(CODE[4]), 
		 -> STR_51(CODE[9]), STR_50(CODE[13]), STR_49(CODE[6]), STR_48(CODE[10]), 
		 -> STR_47(CODE[9]), STR_46(CODE[4]), STR_45(CODE[4]), STR_44(CODE[9]), 
		 -> STR_43(CODE[13]), STR_42(CODE[6]), STR_41(CODE[10]), STR_40(CODE[9]), 
		 -> STR_39(CODE[4]), STR_38(CODE[4]), STR_37(CODE[9]), STR_36(CODE[13]), 
		 -> STR_35(CODE[7]), STR_34(CODE[8]), STR_33(CODE[8]), STR_32(CODE[8]), 
		 -> STR_31(CODE[8]), STR_30(CODE[13]), STR_29(CODE[13]), STR_28(CODE[13]), 
		 -> STR_27(CODE[18]), STR_26(CODE[13]), STR_25(CODE[18]), STR_24(CODE[12]), 
		 -> STR_23(CODE[13]), STR_22(CODE[16]), STR_21(CODE[12]), STR_20(CODE[13]), 
		 -> STR_19(CODE[12]), STR_18(CODE[13]), STR_17(CODE[16]), STR_16(CODE[12]), 
		 -> STR_15(CODE[13]), STR_14(CODE[9]), STR_13(CODE[9]), STR_12(CODE[14]), 
		 -> STR_11(CODE[19]), STR_10(CODE[12]), STR_9(CODE[19]), STR_8(CODE[19]), 
		 -> STR_7(CODE[12]), STR_6(CODE[19]), STR_5(CODE[21]), STR_4(CODE[8]), 

    lcd_send_ATpos_string_data@_LCD_	PTR const struct . size(2) Largest target is 6
		 -> lcd1(COMRAM[6]), 

    lcd_send_string_data@str	PTR unsigned char  size(2) Largest target is 21
		 -> STR_87(CODE[15]), STR_86(CODE[20]), STR_85(CODE[16]), STR_84(CODE[13]), 
		 -> STR_83(CODE[13]), STR_82(CODE[6]), STR_81(CODE[9]), STR_80(CODE[8]), 
		 -> STR_79(CODE[4]), STR_78(CODE[4]), STR_77(CODE[6]), STR_76(CODE[13]), 
		 -> STR_75(CODE[6]), STR_74(CODE[10]), STR_73(CODE[9]), STR_72(CODE[4]), 
		 -> STR_71(CODE[4]), STR_70(CODE[9]), STR_69(CODE[6]), STR_68(CODE[11]), 
		 -> STR_67(CODE[5]), STR_66(CODE[8]), STR_65(CODE[13]), STR_64(CODE[13]), 
		 -> STR_63(CODE[6]), STR_62(CODE[10]), STR_61(CODE[9]), STR_60(CODE[4]), 
		 -> STR_59(CODE[4]), STR_58(CODE[9]), STR_57(CODE[13]), STR_56(CODE[6]), 
		 -> STR_55(CODE[10]), STR_54(CODE[9]), STR_53(CODE[4]), STR_52(CODE[4]), 
		 -> STR_51(CODE[9]), STR_50(CODE[13]), STR_49(CODE[6]), STR_48(CODE[10]), 
		 -> STR_47(CODE[9]), STR_46(CODE[4]), STR_45(CODE[4]), STR_44(CODE[9]), 
		 -> STR_43(CODE[13]), STR_42(CODE[6]), STR_41(CODE[10]), STR_40(CODE[9]), 
		 -> STR_39(CODE[4]), STR_38(CODE[4]), STR_37(CODE[9]), STR_36(CODE[13]), 
		 -> STR_35(CODE[7]), STR_34(CODE[8]), STR_33(CODE[8]), STR_32(CODE[8]), 
		 -> STR_31(CODE[8]), STR_30(CODE[13]), STR_29(CODE[13]), STR_28(CODE[13]), 
		 -> STR_27(CODE[18]), STR_26(CODE[13]), STR_25(CODE[18]), STR_24(CODE[12]), 
		 -> STR_23(CODE[13]), STR_22(CODE[16]), STR_21(CODE[12]), STR_20(CODE[13]), 
		 -> STR_19(CODE[12]), STR_18(CODE[13]), STR_17(CODE[16]), STR_16(CODE[12]), 
		 -> STR_15(CODE[13]), STR_14(CODE[9]), STR_13(CODE[9]), STR_12(CODE[14]), 
		 -> STR_11(CODE[19]), STR_10(CODE[12]), STR_9(CODE[19]), STR_8(CODE[19]), 
		 -> STR_7(CODE[12]), STR_6(CODE[19]), STR_5(CODE[21]), STR_4(CODE[8]), 

    lcd_send_string_data@_LCD_	PTR const struct . size(2) Largest target is 6
		 -> lcd1(COMRAM[6]), 

    lcd_send_ATpos_char_data@_LCD_	PTR const struct . size(2) Largest target is 6
		 -> lcd1(COMRAM[6]), 

    lcd_send_char_data@_LCD_	PTR const struct . size(2) Largest target is 6
		 -> lcd1(COMRAM[6]), 

    lcd_send_command@_LCD_	PTR const struct . size(2) Largest target is 6
		 -> lcd1(COMRAM[6]), 

    lcd_intialize@_LCD_	PTR const struct . size(2) Largest target is 6
		 -> lcd1(COMRAM[6]), 


Critical Paths under _main in COMRAM

    None.

Critical Paths under _InterruptManagerHigh in COMRAM

    _TIMER0_ISR->_timer0_isr
    _timer0_isr->i2_lcd_send_ATpos_string_data
    i2_lcd_send_ATpos_string_data->i2_lcd_send_string_data
    i2_lcd_send_ATpos_string_data->i2_lcd_set_cursor
    i2_lcd_set_cursor->i2_lcd_send_command
    i2_lcd_send_command->i2_lcd_send_4_bit_data
    i2_lcd_send_string_data->i2_lcd_send_char_data
    i2_lcd_send_char_data->i2_lcd_send_4_bit_data
    i2_lcd_send_enable->i2_GPIO_Pin_Write_Logic
    i2_lcd_send_4_bit_data->i2_GPIO_Pin_Write_Logic

Critical Paths under _main in BANK0

    _lcd_send_char_data->_lcd_send_4_bit_data
    _intialization->_SPI_Init
    _ecu_intialize->_Key_Pad_Intialize
    _lcd_send_command->_lcd_send_4_bit_data
    _lcd_send_enable->_GPIO_Pin_Write_Logic
    _lcd_send_4_bit_data->_GPIO_Pin_Write_Logic
    _Led_Intialize->_GPIO_Pin_Intialize
    _Key_Pad_Intialize->_GPIO_Pin_Intialize
    _GPIO_Pin_Intialize->_GPIO_Pin_Write_Logic
    _SPI_Init->_MSSP_SPI_Slave_Mode_GPIO_PIN_Configurations
    _MSSP_SPI_Slave_Mode_GPIO_PIN_Configurations->_GPIO_Pin_Direction_Intialize
    _MSSP_SPI_Msster_Mode_GPIO_PIN_Configurations->_GPIO_Pin_Direction_Intialize
    _Timer0_Intialization->_Timer0_Prescaler_Config
    _Led_Turn_On->_GPIO_Pin_Write_Logic
    _Key_Pad_Get_Value->_GPIO_Pin_Read_Logic

Critical Paths under _InterruptManagerHigh in BANK0

    None.

Critical Paths under _main in BANK1

    _main->_lcd_send_ATpos_string_data
    _lcd_send_ATpos_string_data->_lcd_send_string_data
    _lcd_send_ATpos_string_data->_lcd_set_cursor
    _lcd_send_string_data->_lcd_send_char_data
    _lcd_send_ATpos_char_data->_lcd_set_cursor
    _lcd_set_cursor->_lcd_send_command
    _ecu_intialize->_lcd_intialize
    _lcd_intialize->_lcd_send_command

Critical Paths under _InterruptManagerHigh in BANK1

    None.

Critical Paths under _main in BANK2

    None.

Critical Paths under _InterruptManagerHigh in BANK2

    None.

Critical Paths under _main in BANK3

    None.

Critical Paths under _InterruptManagerHigh in BANK3

    None.

Critical Paths under _main in BANK4

    None.

Critical Paths under _InterruptManagerHigh in BANK4

    None.

Critical Paths under _main in BANK5

    None.

Critical Paths under _InterruptManagerHigh in BANK5

    None.

Critical Paths under _main in BANK6

    None.

Critical Paths under _InterruptManagerHigh in BANK6

    None.

Critical Paths under _main in BANK7

    None.

Critical Paths under _InterruptManagerHigh in BANK7

    None.

Critical Paths under _main in BANK8

    None.

Critical Paths under _InterruptManagerHigh in BANK8

    None.

Critical Paths under _main in BANK9

    None.

Critical Paths under _InterruptManagerHigh in BANK9

    None.

Critical Paths under _main in BANK10

    None.

Critical Paths under _InterruptManagerHigh in BANK10

    None.

Critical Paths under _main in BANK11

    None.

Critical Paths under _InterruptManagerHigh in BANK11

    None.

Critical Paths under _main in BANK12

    None.

Critical Paths under _InterruptManagerHigh in BANK12

    None.

Critical Paths under _main in BANK13

    None.

Critical Paths under _InterruptManagerHigh in BANK13

    None.

Critical Paths under _main in BANK14

    None.

Critical Paths under _InterruptManagerHigh in BANK14

    None.

Critical Paths under _main in BANK15

    None.

Critical Paths under _InterruptManagerHigh in BANK15

    None.

Call Graph Tables:

 ---------------------------------------------------------------------------------
 (Depth) Function   	        Calls       Base Space   Used Autos Params    Refs
 ---------------------------------------------------------------------------------
 (0) _main                                                 2     2      0  210601
                                             19 BANK1      2     2      0
               _EEPROM_Data_ReadByte
              _EEPROM_Data_WriteByte
                  _Key_Pad_Get_Value
                        _Led_Turn_On
                      _SPI_Send_Byte
               _Timer0_Intialization
                      _intialization
           _lcd_send_ATpos_char_data
         _lcd_send_ATpos_string_data
                   _lcd_send_command
 ---------------------------------------------------------------------------------
 (1) _lcd_send_ATpos_string_data                           8     2      6   71639
                                             11 BANK1      8     2      6
               _lcd_send_string_data
                     _lcd_set_cursor
 ---------------------------------------------------------------------------------
 (2) _lcd_send_string_data                                 6     2      4   15194
                                              5 BANK1      6     2      4
                 _lcd_send_char_data
 ---------------------------------------------------------------------------------
 (1) _lcd_send_ATpos_char_data                             7     2      5   45367
                                             11 BANK1      7     2      5
                 _lcd_send_char_data
                     _lcd_set_cursor
 ---------------------------------------------------------------------------------
 (2) _lcd_set_cursor                                       6     2      4   26368
                                              5 BANK1      6     2      4
                   _lcd_send_command
 ---------------------------------------------------------------------------------
 (3) _lcd_send_char_data                                   5     2      3   14816
                                              0 BANK1      5     2      3
               _GPIO_Pin_Write_Logic
                _lcd_send_4_bit_data
                    _lcd_send_enable
 ---------------------------------------------------------------------------------
 (1) _intialization                                        0     0      0   52636
                           _SPI_Init
                      _ecu_intialize
 ---------------------------------------------------------------------------------
 (2) _ecu_intialize                                        2     2      0   49128
                  _Key_Pad_Intialize
                      _Led_Intialize
                      _lcd_intialize
 ---------------------------------------------------------------------------------
 (3) _lcd_intialize                                        7     5      2   33528
                                              5 BANK1      7     5      2
                 _GPIO_Pin_Intialize
                   _lcd_send_command
 ---------------------------------------------------------------------------------
 (1) _lcd_send_command                                     5     2      3   25546
                                              0 BANK1      5     2      3
               _GPIO_Pin_Write_Logic
                _lcd_send_4_bit_data
                    _lcd_send_enable
 ---------------------------------------------------------------------------------
 (2) _lcd_send_enable                                      2     0      2    4639
                                             11 BANK0      2     0      2
               _GPIO_Pin_Write_Logic
 ---------------------------------------------------------------------------------
 (2) _lcd_send_4_bit_data                                  8     5      3    5132
                                             11 BANK0      8     5      3
               _GPIO_Pin_Write_Logic
 ---------------------------------------------------------------------------------
 (3) _Led_Intialize                                        6     4      2    7872
                                             15 BANK0      3     1      2
                                              0 BANK1      3     3      0
                 _GPIO_Pin_Intialize
 ---------------------------------------------------------------------------------
 (3) _Key_Pad_Intialize                                    7     5      2    7703
                                             15 BANK0      4     2      2
                                              0 BANK1      3     3      0
                 _GPIO_Pin_Intialize
 ---------------------------------------------------------------------------------
 (4) _GPIO_Pin_Intialize                                   4     2      2    7341
                                             11 BANK0      4     2      2
       _GPIO_Pin_Direction_Intialize
               _GPIO_Pin_Write_Logic
 ---------------------------------------------------------------------------------
 (2) _SPI_Init                                             5     3      2    3508
                                             17 BANK0      2     0      2
                                              0 BANK1      1     1      0
_MSSP_SPI_Msster_Mode_GPIO_PIN_Confi
_MSSP_SPI_Slave_Mode_GPIO_PIN_Config
 ---------------------------------------------------------------------------------
 (3) _MSSP_SPI_Slave_Mode_GPIO_PIN_Configurations          9     7      2    1625
                                             10 BANK0      7     5      2
       _GPIO_Pin_Direction_Intialize
 ---------------------------------------------------------------------------------
 (3) _MSSP_SPI_Msster_Mode_GPIO_PIN_Configurations         5     5      0    1415
                                             10 BANK0      3     3      0
       _GPIO_Pin_Direction_Intialize
 ---------------------------------------------------------------------------------
 (5) _GPIO_Pin_Direction_Intialize                        10     8      2    1247
                                              0 BANK0     10     8      2
 ---------------------------------------------------------------------------------
 (1) _Timer0_Intialization                                 6     4      2     986
                                              3 BANK0      6     4      2
             _Timer0_Bit_Mode_Select
                 _Timer0_Mode_Select
            _Timer0_Prescaler_Config
 ---------------------------------------------------------------------------------
 (2) _Timer0_Prescaler_Config                              3     1      2     183
                                              0 BANK0      3     1      2
 ---------------------------------------------------------------------------------
 (2) _Timer0_Mode_Select                                   2     0      2     276
                                              0 BANK0      2     0      2
 ---------------------------------------------------------------------------------
 (2) _Timer0_Bit_Mode_Select                               2     0      2     152
                                              0 BANK0      2     0      2
 ---------------------------------------------------------------------------------
 (1) _SPI_Send_Byte                                        5     3      2      34
                                              0 BANK0      3     1      2
 ---------------------------------------------------------------------------------
 (1) _Led_Turn_On                                          6     4      2    4817
                                             11 BANK0      6     4      2
               _GPIO_Pin_Write_Logic
 ---------------------------------------------------------------------------------
 (1) _Key_Pad_Get_Value                                   11     7      4    7780
                                             12 BANK0      6     2      4
                                              0 BANK1      5     5      0
                _GPIO_Pin_Read_Logic
               _GPIO_Pin_Write_Logic
 ---------------------------------------------------------------------------------
 (3) _GPIO_Pin_Write_Logic                                11     8      3    4217
                                              0 BANK0     11     8      3
 ---------------------------------------------------------------------------------
 (2) _GPIO_Pin_Read_Logic                                 12     8      4     583
                                              0 BANK0     12     8      4
 ---------------------------------------------------------------------------------
 (1) _EEPROM_Data_WriteByte                                6     3      3     915
                                              0 BANK0      6     3      3
 ---------------------------------------------------------------------------------
 (1) _EEPROM_Data_ReadByte                                 6     2      4     881
                                              0 BANK0      6     2      4
 ---------------------------------------------------------------------------------
 Estimated maximum stack depth 5
 ---------------------------------------------------------------------------------
 (Depth) Function   	        Calls       Base Space   Used Autos Params    Refs
 ---------------------------------------------------------------------------------
 (7) _InterruptManagerHigh                                10    10      0   10636
                                             40 COMRAM    10    10      0
                            _ADC_ISR
                           _CCP1_ISR
                           _CCP2_ISR
                           _ECCP_ISR
                           _INT0_ISR
                           _INT1_ISR
                           _INT2_ISR
                    _MSSP_I2C_BC_ISR
                       _MSSP_I2C_ISR
                            _RB4_ISR
                            _RB5_ISR
                            _RB6_ISR
                            _RB7_ISR
                            _SPI_ISR
                         _TIMER0_ISR
                         _TIMER1_ISR
                         _TIMER2_ISR
                         _TIMER3_ISR
                       _USART_RX_ISR
                       _USART_TX_ISR
 ---------------------------------------------------------------------------------
 (8) _USART_TX_ISR                                         0     0      0       0
 ---------------------------------------------------------------------------------
 (8) _USART_RX_ISR                                         0     0      0       0
 ---------------------------------------------------------------------------------
 (8) _TIMER3_ISR                                           0     0      0       0
 ---------------------------------------------------------------------------------
 (8) _TIMER2_ISR                                           0     0      0       0
 ---------------------------------------------------------------------------------
 (8) _TIMER1_ISR                                           0     0      0       0
 ---------------------------------------------------------------------------------
 (8) _TIMER0_ISR                                           0     0      0   10460
                                NULL *
                         _timer0_isr *
 ---------------------------------------------------------------------------------
 (9) _timer0_isr                                           2     2      0   10460
                                             38 COMRAM     2     2      0
       i2_lcd_send_ATpos_string_data
                 i2_lcd_send_command
 ---------------------------------------------------------------------------------
 (10) i2_lcd_send_ATpos_string_data                        8     2      6    7324
                                             30 COMRAM     8     2      6
             i2_lcd_send_string_data
                   i2_lcd_set_cursor
 ---------------------------------------------------------------------------------
 (11) i2_lcd_set_cursor                                    6     2      4    3523
                                             24 COMRAM     6     2      4
                 i2_lcd_send_command
 ---------------------------------------------------------------------------------
 (10) i2_lcd_send_command                                  5     2      3    3136
                                             19 COMRAM     5     2      3
             i2_GPIO_Pin_Write_Logic
              i2_lcd_send_4_bit_data
                  i2_lcd_send_enable
 ---------------------------------------------------------------------------------
 (11) i2_lcd_send_string_data                              6     2      4    3124
                                             24 COMRAM     6     2      4
               i2_lcd_send_char_data
 ---------------------------------------------------------------------------------
 (12) i2_lcd_send_char_data                                5     2      3    2856
                                             19 COMRAM     5     2      3
             i2_GPIO_Pin_Write_Logic
              i2_lcd_send_4_bit_data
                  i2_lcd_send_enable
 ---------------------------------------------------------------------------------
 (11) i2_lcd_send_enable                                   2     0      2     809
                                             11 COMRAM     2     0      2
             i2_GPIO_Pin_Write_Logic
 ---------------------------------------------------------------------------------
 (11) i2_lcd_send_4_bit_data                               8     5      3    1082
                                             11 COMRAM     8     5      3
             i2_GPIO_Pin_Write_Logic
 ---------------------------------------------------------------------------------
 (12) i2_GPIO_Pin_Write_Logic                             11     8      3     607
                                              0 COMRAM    11     8      3
 ---------------------------------------------------------------------------------
 (9) NULL(Fake)                                            0     0      0       0
 ---------------------------------------------------------------------------------
 (8) _SPI_ISR                                              0     0      0       0
 ---------------------------------------------------------------------------------
 (8) _RB7_ISR                                              1     1      0      44
                                              0 COMRAM     1     1      0
 ---------------------------------------------------------------------------------
 (8) _RB6_ISR                                              1     1      0      44
                                              0 COMRAM     1     1      0
 ---------------------------------------------------------------------------------
 (8) _RB5_ISR                                              1     1      0      44
                                              0 COMRAM     1     1      0
 ---------------------------------------------------------------------------------
 (8) _RB4_ISR                                              1     1      0      44
                                              0 COMRAM     1     1      0
 ---------------------------------------------------------------------------------
 (8) _MSSP_I2C_ISR                                         0     0      0       0
 ---------------------------------------------------------------------------------
 (8) _MSSP_I2C_BC_ISR                                      0     0      0       0
 ---------------------------------------------------------------------------------
 (8) _INT2_ISR                                             0     0      0       0
 ---------------------------------------------------------------------------------
 (8) _INT1_ISR                                             0     0      0       0
 ---------------------------------------------------------------------------------
 (8) _INT0_ISR                                             0     0      0       0
 ---------------------------------------------------------------------------------
 (8) _ECCP_ISR                                             0     0      0       0
 ---------------------------------------------------------------------------------
 (8) _CCP2_ISR                                             0     0      0       0
 ---------------------------------------------------------------------------------
 (8) _CCP1_ISR                                             0     0      0       0
 ---------------------------------------------------------------------------------
 (8) _ADC_ISR                                              0     0      0       0
 ---------------------------------------------------------------------------------
 Estimated maximum stack depth 12
 ---------------------------------------------------------------------------------

 Call Graph Graphs:

 _main (ROOT)
   _EEPROM_Data_ReadByte
   _EEPROM_Data_WriteByte
   _Key_Pad_Get_Value
     _GPIO_Pin_Read_Logic
     _GPIO_Pin_Write_Logic
   _Led_Turn_On
     _GPIO_Pin_Write_Logic
   _SPI_Send_Byte
   _Timer0_Intialization
     _Timer0_Bit_Mode_Select
     _Timer0_Mode_Select
     _Timer0_Prescaler_Config
   _intialization
     _SPI_Init
       _MSSP_SPI_Msster_Mode_GPIO_PIN_Configurations
         _GPIO_Pin_Direction_Intialize
       _MSSP_SPI_Slave_Mode_GPIO_PIN_Configurations
         _GPIO_Pin_Direction_Intialize
     _ecu_intialize
       _Key_Pad_Intialize
         _GPIO_Pin_Intialize
           _GPIO_Pin_Direction_Intialize
           _GPIO_Pin_Write_Logic
       _Led_Intialize
         _GPIO_Pin_Intialize
       _lcd_intialize
         _GPIO_Pin_Intialize
         _lcd_send_command
           _GPIO_Pin_Write_Logic
           _lcd_send_4_bit_data
             _GPIO_Pin_Write_Logic
           _lcd_send_enable
             _GPIO_Pin_Write_Logic
   _lcd_send_ATpos_char_data
     _lcd_send_char_data
       _GPIO_Pin_Write_Logic
       _lcd_send_4_bit_data
       _lcd_send_enable
     _lcd_set_cursor
       _lcd_send_command
   _lcd_send_ATpos_string_data
     _lcd_send_string_data
       _lcd_send_char_data
     _lcd_set_cursor
   _lcd_send_command

 _InterruptManagerHigh (ROOT)
   _ADC_ISR
   _CCP1_ISR
   _CCP2_ISR
   _ECCP_ISR
   _INT0_ISR
   _INT1_ISR
   _INT2_ISR
   _MSSP_I2C_BC_ISR
   _MSSP_I2C_ISR
   _RB4_ISR
   _RB5_ISR
   _RB6_ISR
   _RB7_ISR
   _SPI_ISR
   _TIMER0_ISR
     NULL(Fake) *
     _timer0_isr *
       i2_lcd_send_ATpos_string_data
         i2_lcd_send_string_data
           i2_lcd_send_char_data
             i2_GPIO_Pin_Write_Logic
             i2_lcd_send_4_bit_data
               i2_GPIO_Pin_Write_Logic
             i2_lcd_send_enable
               i2_GPIO_Pin_Write_Logic
         i2_lcd_set_cursor
           i2_lcd_send_command
             i2_GPIO_Pin_Write_Logic
             i2_lcd_send_4_bit_data
             i2_lcd_send_enable
       i2_lcd_send_command
   _TIMER1_ISR
   _TIMER2_ISR
   _TIMER3_ISR
   _USART_RX_ISR
   _USART_TX_ISR

 Address spaces:
Name               Size   Autos  Total    Cost      Usage
BIGRAM             F7F      0       0      48        0.0%
EEDATA             400      0       0       0        0.0%
BITBANK14          100      0       0      32        0.0%
BANK14             100      0       0      33        0.0%
BITBANK13          100      0       0      30        0.0%
BANK13             100      0       0      31        0.0%
BITBANK12          100      0       0      28        0.0%
BANK12             100      0       0      29        0.0%
BITBANK11          100      0       0      26        0.0%
BANK11             100      0       0      27        0.0%
BITBANK10          100      0       0      24        0.0%
BANK10             100      0       0      25        0.0%
BITBANK9           100      0       0      22        0.0%
BANK9              100      0       0      23        0.0%
BITBANK8           100      0       0      20        0.0%
BANK8              100      0       0      21        0.0%
BITBANK7           100      0       0      18        0.0%
BANK7              100      0       0      19        0.0%
BITBANK6           100      0       0      16        0.0%
BANK6              100      0       0      17        0.0%
BITBANK5           100      0       0      14        0.0%
BANK5              100      0       0      15        0.0%
BITBANK4           100      0       0      12        0.0%
BANK4              100      0       0      13        0.0%
BITBANK3           100      0       0      10        0.0%
BANK3              100      0       0      11        0.0%
BITBANK2           100      0       0       8        0.0%
BANK2              100      0       0       9        0.0%
BITBANK1           100      0       0       6        0.0%
BANK1              100     15      20       7       12.5%
BITBANK15           80      0       0      34        0.0%
BANK15              80      0       0      35        0.0%
BITBANK0            80      0       0       4        0.0%
BANK0               80     13      80       5      100.0%
BITCOMRAM           7E      0       0       0        0.0%
COMRAM              7E     32      64       1       79.4%
BITBIGSFRhhlhlh     18      0       0      37        0.0%
BITBIGSFRhhh         D      0       0      36        0.0%
BITBIGSFRllhhll      6      0       0      44        0.0%
BITBIGSFRlllh        4      0       0      45        0.0%
BITBIGSFRllhhll      4      0       0      42        0.0%
BITBIGSFRllll        4      0       0      46        0.0%
BITBIGSFRhhlhll      3      0       0      38        0.0%
BITBIGSFRllhhll      2      0       0      41        0.0%
BITBIGSFRhhlhll      1      0       0      39        0.0%
BITBIGSFRllhhll      1      0       0      40        0.0%
BITBIGSFRllhhll      1      0       0      43        0.0%
BIGSFR               0      0       0     200        0.0%
BITSFR               0      0       0     200        0.0%
SFR                  0      0       0     200        0.0%
STACK                0      0       0       2        0.0%
NULL                 0      0       0       0        0.0%
ABS                  0      0     104      47        0.0%
DATA                 0      0     104       3        0.0%
CODE                 0      0       0       0        0.0%


Microchip Technology PIC18 Macro Assembler V2.41 build 20230208172133 
Symbol Table                                                                                   Tue Aug 29 00:29:06 2023

                        ??_lcd_send_ATpos_string_data 00FE                                           _SSPSTATbits 0FC7  
                                                  l54 3724                                                    l70 3590  
                                                  l64 3BB4                                                    l49 289A  
                                                  l81 39DA                                                    l74 3598  
                                                  l59 36A2                                 i2_lcd_send_4_bit_data 3BB6  
                                       _SPI_Send_Byte 3E10                              i2lcd_send_char_data@data 0016  
                      Timer0_Prescaler_Config@timer0_ 00EB                                                   l200 32A8  
                                                 l203 3498                                                   l123 3B04  
                                                 l126 3DC2                                                   l207 350C  
                                                 l136 3344                                                   l175 3476  
                                                 l281 3CA4                                                   l187 2EFC  
                                                 l196 3224                                                   l701 2C8E  
                                                 l720 3AA8                                                   l625 3886  
                                                 l634 3C5C                                                   l626 386A  
                                                 l628 3878                                                   l708 2FCA  
                                                 l629 388E                                                   l682 29F2  
                                                 l676 29EA                                                   l695 2C86  
                                                 _PR2 0FCB                                ??_InterruptManagerHigh 0029  
                                     __end_of_ADC_ISR 3EEE                                                   _ret 00FE  
                                                 prod 0FF3                                                   tosl 0FFD  
                                                 wreg 0FE8                            __end_of_lcd_send_char_data 36A4  
                              ??_GPIO_Pin_Write_Logic 00EE                                       ?_lcd_set_cursor 0105  
                                     __end_of_RB4_ISR 3E92                                       __end_of_RB5_ISR 3E78  
                                     __end_of_RB6_ISR 3E5E                                       __end_of_RB7_ISR 3E44  
                                                l1300 3D56                                                  l1312 3900  
                                                l1341 3200                                                  l1248 2A0C  
                                                l1266 3E18                                                  l1258 2B42  
                                                l1363 3B5E                                                  l1339 3174  
                                                l1268 3E26                                                  l1269 3E28  
                                                l1368 30EE                                                  l1385 3CE4  
                                                l1378 314A                                                  l1770 0572  
                                                l1942 3E0E                                                  l1939 22BE  
                                                l9021 28DA                                                  l9023 28E6  
                                                l9015 289C                                                  l9025 294A  
                                                l9017 28A6                                                  l9201 340C  
                                                l9041 3AB4                                                  l9019 28B8  
                                                l9203 3452                                                  l9043 3AF0  
                                                l9035 3AAA                                                  l9131 2738  
                                                l9029 29A8                                                  l9205 3456  
                                                l9221 3270                                                  l9213 3202  
                                                l9045 3AF4                                                  l9133 274C  
                                                l9301 32B2                                                  l9231 3D20  
                                                l9207 3466                                                  l9223 3272  
                                                l9215 3202                                                  l9047 3D90  
                                                l9151 27BE                                                  l9135 2758  
                                                l9303 32C8                                                  l9401 3128  
                                                l9241 3D3A                                                  l9233 3D20  
                                                l9081 3A66                                                  l9209 346E  
                                                l9225 328A                                                  l9217 3216  
                                                l9049 3DA6                                                  l9161 2826  
                                                l9153 27D0                                                  l9145 2780  
                                                l9137 2758                                                  l9129 2738  
                                                l9305 32DE                                                  l9321 352A  
                                                l9411 3CC8                                                  l9403 312E  
                                                l9243 3D48                                                  l9235 3D24  
                                                l9251 3898                                                  l9083 3AA0  
                                                l9075 3A46                                                  l9219 3228  
                                                l9227 32A0                                                  l9091 36B8  
                                                l9171 2880                                                  l9163 2838  
                                                l9155 27E2                                                  l9147 27AA  
                                                l9139 276E                                                  l9331 3C5E  
                                                l9307 32F4                                                  l9323 353C  
                                                l9501 2EDA                                                  l9413 3CE2  
                                                l9405 3148                                                  l9237 3D28  
                                                l9261 38CA                                                  l9253 389C  
                                                l9245 3890                                                  l9077 3A46  
                                                l9093 36C4                                                  l9165 284A  
                                                l9157 2804                                                  l9149 27AE  
                                                l9173 2892                                                  l9341 3C96  
                                                l9333 3C5E                                                  l9181 3636  
                                                l9309 330A                                                  l9325 3548  
                                                l9317 350E                                                  l9503 2EDC  
                                                l9511 3478                                                  l9407 3CA6  
                                                l9239 3D2C                                                  l9263 38D8  
                                                l9255 38A0                                                  l9247 3890  
                                                l9351 2A0E                                                  l9079 3A5A  
                                                l9191 33E0                                                  l9095 371C  
                                                l9087 36A4                                                  l9167 285C  
                                                l9159 2814                                                  l9335 3C6C  
                                                l9183 3642                                                  l9431 3B60  
                                                l9327 356C                                                  l9319 3518  
                                                l9505 2EEC                                                  l9521 34D8  
                                                l9513 3478                                                  l9409 3CC2  
                                                l9601 3156                                                  l9265 38F2  
                                                l9257 38AE                                                  l9249 3894  
                                                l9361 2A8A                                                  l9353 2A26  
                                                l9345 29F4                                                  l9193 33F4  
                                                l9089 36A4                                                  l9169 286E  
                                                l9337 3C7A                                                  l9185 369A  
                                                l9177 3622                                                  l9433 3B6A  
                                                l9329 3572                                                  l9531 3824  
                                                l9291 2F4E                                                  l9283 2EFE  
                                                l9507 2EF4                                                  l9523 34EC  
                                                l9515 348C                                                  l9611 31CA  
                                                l9603 3168                                                  l9259 38BC  
                                                l9371 2B40                                                  l9363 2A92  
                                                l9355 2A3E                                                  l9347 29F4  
                                                l9195 3402                                                  l9339 3C88  
                                                l9179 3622                                                  l9435 3B7C  
                                                l9451 39A2                                                  l9443 3970  
                                                l9541 3854                                                  l9533 3836  
                                                l9293 2F5A                                                  l9285 2F08  
                                                l9461 2DD6                                                  l9517 349C  
                                                l9525 3504                                                  l9381 3B5C  
                                                l9373 3B06                                                  l9621 31F4  
                                                l9613 31DE                                                  l9605 3176  
                                                l9365 2AAC                                                  l9357 2A56  
                                                l9349 2A08                                                  l9189 33E0  
                                                l9437 3B88                                                  l9453 39B6  
                                                l9445 3970                                                  l9551 3860  
                                                l9543 3858                                                  l9535 3842  
                                                l9295 2FC2                                                  l9287 2F1A  
                                                l9471 2E06                                                  l9463 2DEA  
                                                l9519 34D6                                                  l9391 30CE  
                                                l9383 3090                                                  l9375 3B22  
                                                l9623 31F6                                                  l9615 31E0  
                                                l9607 319A                                                  l9367 2AC6  
                                                l9359 2A70                                                  l9439 3BAC  
                                                l9455 39D2                                                  l9447 3984  
                                                l9561 3C28                                                  l9553 3864  
                                                l9545 385A                                                  l9537 384A  
                                                l9529 381A                                                  l9289 2F2C  
                                                l9481 2E28                                                  l9465 2DF8  
                                                l9393 30E8                                                  l9385 30AC  
                                                l9377 3B24                                                  l9617 31E2  
                                                l9609 31BA                                                  l9625 31F8  
                                                l9369 2AD2                                                  l9449 3996  
                                                l9571 3C42                                                  l9563 3C34  
                                                l9555 3868                                                  l9547 385C  
                                                l9539 3850                                                  l9491 2E58  
                                                l9483 2E38                                                  l9459 2DD6  
                                                l9387 30AE                                                  l9395 30F2  
                                                l9379 3B42                                                  l9619 31F2  
                                                l9299 32AA                                                  l9573 3C44  
                                                l9565 3C3A                                                  l9557 3C0C  
                                                l9549 385E                                                  l9493 2E7E  
                                                l9485 2E52                                                  l9477 2E0A  
                                                l9397 310C                                                  l9389 30C8  
                                                l9629 3DF4                                                  l9575 3C46  
                                                l9567 3C3E                                                  l9559 3C16  
                                                l9495 2E90                                                  l9479 2E24  
                                                l9399 310E                                                  l9577 3C48  
                                                l9569 3C40                                                  l9497 2EC6  
                                                l9579 3C54                                                  l9499 2ECA  
                                                l9595 3E14                                                  l8981 2B4E  
                                                l9597 3E14                                                  l8991 2C50  
                                                l8983 2B60                                                  l9599 314C  
                                                STR_1 FFFC                                                  l8993 2C5C  
                                                l8985 2B82                                                  STR_4 FFCC  
                                                l8987 2B8E                                                  l8979 2B44  
                                                STR_5 FE25                                                  STR_6 FE61  
                                                l8989 2BF2                                                  STR_7 FF17  
                                                STR_8 FE4E                                                  STR_9 FE74  
                                    ?_lcd_send_enable 00F6                                                  _LATA 0F89  
                                                _LATB 0F8A                                                  _LATC 0F8B  
                                                _LATD 0F8C                                                  _LATE 0F8D  
                                                u7300 2B82                                                  u8020 3E26  
                                                u7301 2B7E                                                  u8021 3E22  
                                                u8030 3168                                                  u8031 3164  
                                                u7400 29C2                                                  u9000 00FE  
                                                u9001 00FA                                                  u7314 2BAE  
                                                u9010 010E                                                  u7315 2BAA  
                                                u9011 010A                                                  u7324 2C12  
                                                u7420 3B04                                                  u7500 274C  
                                                u9100 068A                                                  u9020 018C  
                                                u7325 2C0E                                                  u7421 3B00  
                                                u7501 2748                                                  u9101 0686  
                                                u9021 0188                                                  i2l70 3618  
                                                i2l54 379E                                                  u7350 28B8  
                                                u7414 3ADE                                                  u7510 27BE  
                                                u9110 073C                                                  u9030 0252  
                                                u7351 28B4                                                  u7415 3ADA  
                                                u7511 27BA                                                  u9111 0738  
                                                u9031 024E                                                  u7600 2F1A  
                                                u7360 28DA                                                  u7520 3636  
                                                u9200 0C0A                                                  u9120 074E  
                                                u9040 034E                                                  i2l81 3A44  
                                                u7601 2F16                                                  u7361 28D6  
                                                u7521 3632                                                  u9201 0C06  
                                                u9121 074A                                                  u9041 034A  
                                                i2l74 3620                                                  u7610 2F2C  
                                                u7290 2B60                                                  u7450 3A5A  
                                                u7530 33F4                                                  u9210 0C30  
                                                u9130 08B8                                                  u9050 0412  
                                                i2l59 3818                                                  u7611 2F28  
                                                u7291 2B5C                                                  u7451 3A56  
                                                u7531 33F0                                                  u9211 0C2C  
                                                u9131 08B4                                                  u9051 040E  
                                                u7620 2F4E                                                  u7700 2A70  
                                                u7540 3466                                                  u7460 36B8  
                                                u9300 0F9C                                                  u9220 0CC0  
                                                u9140 08C8                                                  u9060 04F0  
                                                u7621 2F4A                                                  u7701 2A6C  
                                                u7541 3462                                                  u7461 36B4  
                                                u9301 0F98                                                  u9221 0CBC  
                                                u9141 08C4                                                  u9061 04EC  
                                                u7390 29C0                                                  u7374 2906  
                                                u7710 2A8A                                                  u7550 3216  
                                                u9310 0FAE                                                  u9230 0D26  
                                                u9150 0982                                                  u9070 0500  
                                                u7391 29BA                                                  u7375 2902  
                                                u7711 2A86                                                  u7551 3212  
                                                u9311 0FAA                                                  u9231 0D22  
                                                u9151 097E                                                  u9071 04FC  
                                                u7800 3128                                                  u7384 296A  
                                                u7720 2AAC                                                  u7640 352A  
                                                u9400 149E                                                  u9320 111A  
                                                u9240 0D62                                                  u9160 09B0  
                                                u9080 05A2                                                  u7801 3124  
                                                u7385 2966                                                  u7721 2AA8  
                                                u7641 3526                                                  u9401 149A  
                                                u9321 1116                                                  u9241 0D5E  
                                                u9161 09AC                                                  u9081 059E  
                                                u7634 2FAC                                                  u7810 3148  
                                                u7570 38F2                                                  u7730 2AC6  
                                                u7650 353C                                                  u9410 152C  
                                                u9330 11A8                                                  u9250 0E28  
                                                u9170 0A62                                                  u9090 065C  
                                                u7635 2FA8                                                  u7811 3144  
                                                u7571 38EE                                                  u7731 2AC2  
                                                u7651 3538                                                  u9411 1528  
                                                u9331 11A4                                                  u9251 0E24  
                                                u9171 0A5E                                                  u9091 0658  
                                                u7900 2E38                                                  u7820 3CC2  
                                                u7740 3B22                                                  u7660 3590  
                                                u9500 1A34                                                  u9420 1698  
                                                u9340 11D8                                                  u9260 0E7A  
                                                u9180 0A74                                                  u7901 2E34  
                                                u7821 3CBE                                                  u7741 3B1E  
                                                u7565 3286                                                  u7661 358C  
                                                u9501 1A30                                                  u9421 1694  
                                                u9341 11D4                                                  u9261 0E76  
                                                u9181 0A70                                                  u7910 2E90  
                                                u7830 3CE2                                                  u7750 3B5C  
                                                u7670 2A08                                                  u9510 1A46  
                                                u9430 1726                                                  u9350 11EA  
                                                u9270 0EEA                                                  u9190 0BFA  
                                                u7911 2E8C                                                  u7831 3CDE  
                                                u7751 3B58                                                  u7671 2A04  
                                                u7567 328A                                                  u9511 1A42  
                                                u9431 1722                                                  u9351 11E6  
                                                u9271 0EE6                                                  u9191 0BF6  
                                                u7920 2EDA                                                  u7760 30AC  
                                                u7680 2A3E                                                  u9600 2048  
                                                u9520 1AD4                                                  u9440 1756  
                                                u9360 1262                                                  u9280 0F78  
                                                u7921 2ED6                                                  u7761 30A8  
                                                u7681 2A3A                                                  u9601 2044  
                                                u9521 1AD0                                                  u9441 1752  
                                                u9361 125E                                                  u9281 0F74  
                                                u7930 2EEC                                                  u7770 30C8  
                                                u7690 2A56                                                  u9610 20D6  
                                                u9530 1AEA                                                  u9450 1768  
                                                u9370 13CE                                                  u9290 0F8A  
                                                u7931 2EE8                                                  u7771 30C4  
                                                u7691 2A52                                                  u9611 20D2  
                                                u9531 1AE6                                                  u9451 1764  
                                                u9371 13CA                                                  u9291 0F86  
                                                u7940 348C                                                  u7780 30E8  
                                                u7860 3B7C                                                  u9700 2294  
                                                u9620 2106                                                  u9540 1BFA  
                                                u9460 17F6                                                  u9380 145C  
                                                u7941 3488                                                  u7781 30E4  
                                                u7861 3B78                                                  u9701 2290  
                                                u9621 2102                                                  u9541 1BF6  
                                                u9461 17F2                                                  u9381 1458  
                                                u7790 310C                                                  u7870 3984  
                                                u9710 22A8                                                  u9630 2118  
                                                u9550 1D7E                                                  u9470 180A  
                                                u9390 148C                                                  u7791 3108  
                                                u7871 3980                                                  u9711 22A4  
                                                u9631 2114                                                  u9551 1D7A  
                                                u9471 1806                                                  u9391 1488  
                                                u7960 3836                                                  u7880 3996  
                                                u9720 22BA                                                  u9640 21A6  
                                                u9560 1E0C                                                  u9480 1976  
                                                u7961 3832                                                  u7881 3992  
                                                u9721 22B6                                                  u9641 21A2  
                                                u9561 1E08                                                  u9481 1972  
                                                u7970 3878                                                  u7890 2DEA  
                                                u9650 21BA                                                  u9570 1E3C  
                                                u9490 1A04                                                  u7971 3874  
                                                u7891 2DE6                                                  u7955 34E8  
                                                u9651 21B6                                                  u9571 1E38  
                                                u9491 1A00                                                  u9660 21CC  
                                                u9580 1E4E                                                  u7957 34EC  
                                                u9661 21C8                                                  u9581 1E4A  
                                                u7990 3C28                                                  u9670 21E2  
                                                u9590 1EDC                                                  u7991 3C24  
                                                u9671 21DE                                                  u9591 1ED8  
                                                u9807 06BA                                                  u9680 21F4  
                                                u7985 3884                                                  u9681 21F0  
                                                u9817 07BA                                                  u9737 0088  
                                                u7986 3886                                                  u9690 2206  
                                                u9691 2202                                                  u9907 1126  
                                                u9827 0882                                                  u9747 01D0  
                                                u9917 1236                                                  u9837 0944  
                                                u9757 029E                                                  u9927 13DA  
                                                u9847 09E0                                                  u9767 0392  
                                                u9937 14EA                                                  u9857 0AE0  
                                                u9777 041E                                                  _TMR2 0FCC  
                                                u9947 150A                                                  u9867 0BC4  
                                                u9787 0478                                                  u9957 16A4  
                                                u9877 0C9E                                                  u9797 061E  
                                                u9967 17B4                                                  u9887 0EF6  
                                                u9977 17D4                                                  u9897 0F52  
                                                u9987 1982                                                  u9997 1A92  
                           _RB6_interruptHandler_High 00D5                                                  _lcd1 005D  
                     GPIO_Pin_Direction_Intialize@ret 00F3                                                  _main 0012  
                                    __end_of_CCP1_ISR 3EE8                                      __end_of_CCP2_ISR 3EE4  
                                     __end_of_SPI_ISR 3EEC                                                  fsr2h 0FDA  
                                                indf2 0FDF                                                  fsr1l 0FE1  
                                                fsr2l 0FD9                                                  btemp 0065  
                             GPIO_Pin_Write_Logic@ret 00F4                                                  prodh 0FF4  
                                                prodl 0FF3                                      __end_of_ECCP_ISR 3EE0  
                                                start 000E                              _RB5_interruptHandler_Low 00D7  
                                        ___param_bank 0000                         Timer0_Bit_Mode_Select@timer0_ 00EB  
                                _timer3_preload_value 0033                              Key_Pad_Intialize@counter 0102  
                                 __end_of_Led_Turn_On 350E                                 Key_Pad_Get_Value@rows 0103  
                          _TIMER2_IntterruptHandeler_ 00CB                                           ?_TIMER0_ISR 0001  
                                         ?_TIMER1_ISR 0001                                           ?_TIMER2_ISR 0001  
                              ??_EEPROM_Data_ReadByte 00EF                                           ?_TIMER3_ISR 0001  
                                      ?_SPI_Send_Byte 00EB                                      __end_of_INT0_ISR 3EDC  
                                    __end_of_INT1_ISR 3ED8                                      __end_of_INT2_ISR 3ED4  
                  _EUSART_FRAMINGERRORDefaultHandler_ 00C3                                                 l10201 0320  
                                               l10211 03A0                                                 l10203 033C  
                                               l10301 07AE                                                 l10221 03FE  
                                               l10213 03BA                                                 l10205 034E  
                                               l10141 0030                                                 l10311 0828  
                                               l10303 07CA                                                 l10231 0446  
                                               l10223 0400                                                 l10215 03DC  
                                               l10207 0364                                                 l10151 00CE  
                                               l10143 0056                                                 l10401 0BDC  
                                               l10321 089A                                                 l10313 084E  
                                               l10305 07CE                                                 l10241 04AA  
                                               l10233 046C                                                 l10217 03F6  
                                               l10209 0386                                                 l10225 0402  
                                               l10161 017A                                                 l10153 00EC  
                                               l10145 007C                                                 l10411 0C0A  
                                               l10403 0BE0                                                 l10331 08CC  
                                               l10323 089E                                                 l10315 0876  
                                               l10307 07E8                                                 l10251 0590  
                                               l10243 04C2                                                 l10235 0486  
                                               l10227 0412                                                 l10219 03FC  
                                               l10171 01F8                                                 l10163 018C  
                                               l10155 00FE                                                 l10147 0096  
                                               l10139 0012                                                 l10501 111A  
                                               l10413 0C1E                                                 l10405 0BE4  
                                               l10341 0954                                                 l10333 08E6  
                                               l10325 08A2                                                 l10317 0890  
                                               l10309 0802                                                 l10261 0612  
                                               l10253 05A6                                                 l10237 04A0  
                                               l10229 042C                                                 l10181 023E  
                                               l10173 021A                                                 l10165 01A2  
                                               l10245 04E0                                                 l10157 010E  
                                               l10149 00B0                                                 l10503 1136  
                                               l10415 0C30                                                 l10423 0CB0  
                                               l10351 09B2                                                 l10343 0970  
                                               l10335 090C                                                 l10407 0BE6  
                                               l10319 0896                                                 l10271 068A  
                                               l10263 062E                                                 l10255 05C0  
                                               l10327 08A4                                                 l10247 04F0  
                                               l10239 04A6                                                 l10191 02AC  
                                               l10175 0234                                                 l10167 01C4  
                                               l10159 015E                                                 l10183 0240  
                                               l10601 15C4                                                 l10521 11C6  
                                               l10505 1144                                                 l10513 1166  
                                               l10441 0D50                                                 l10425 0CC0  
                                               l10417 0C7C                                                 l10409 0BFA  
                                               l10361 0A44                                                 l10353 09D4  
                                               l10345 0982                                                 l10337 0932  
                                               l10329 08B8                                                 l10281 0704  
                                               l10273 068C                                                 l10265 064A  
                                               l10257 05E6                                                 l10249 0500  
                                               l10193 02C6                                                 l10185 0252  
                                               l10177 023A                                                 l10169 01DE  
                                               l10611 16B4                                                 l10603 15F2  
                                               l11411 1312                                                 l10523 11D8  
                                               l10531 1244                                                 l10507 114E  
                                               l10515 1194                                                 l10451 0E28  
                                               l10443 0D62                                                 l10427 0CC4  
                                               l10419 0C92                                                 l10371 0A62  
                                               l10363 0A4A                                                 l10355 09EE  
                                               l10347 099C                                                 l10339 0938  
                                               l10283 071E                                                 l10275 06AE  
                                               l10267 065C                                                 l10291 072A  
                                               l10259 060C                                                 l10195 02EC  
                                               l10187 026C                                                 l10179 023C  
                              _Timer0_Bit_Mode_Select 3CA6                                                 l11421 19DA  
                                               l10701 1AC0                                                 l10613 16C2  
                                               l10621 16E4                                                 l10605 1664  
                                               l11413 1432                                                 l10541 12AA  
                                               l10525 11EA                                                 l10517 11A8  
                                               l10509 115C                                                 l10461 0EB6  
                                               l10453 0E4E                                                 l10445 0D7C  
                                               l10437 0D14                                                 l10429 0CEA  
                                               l10381 0AEE                                                 l10373 0A74  
                                               l10365 0A4C                                                 l10357 0A08  
                                               l10349 09B0                                                 l10293 073C  
                                               l10285 0724                                                 l10277 06C8  
                                               l10269 0676                                                 l10197 0312  
                                               l10189 0292                                                 l11431 331E  
                                               l11423 1CC2                                                 l10711 1B2E  
                                               l10703 1AD8                                                 l10631 1756  
                                               l10615 16CC                                                 l10623 1712  
                                               l10607 166A                                                 l11415 15DC  
                                               l10551 139A                                                 l10543 12D2  
                                               l10527 1204                                                 l11407 105E  
                                               l10535 124E                                                 l10471 0F20  
                                               l10463 0EBC                                                 l10455 0E68  
                                               l10447 0DA2                                                 l10439 0D26  
                                               l10391 0B6A                                                 l10375 0AA8  
                                               l10383 0B0C                                                 l10367 0A4E  
                                               l10359 0A2A                                                 l10295 074E  
                                               l10287 0726                                                 l10279 06E2  
                                               l10199 0318                                                 l11433 29D4  
                                               l10801 2064                                                 l11425 1DE2  
                                               l10721 1BCC                                                 l10713 1B54  
                                               l10641 17C8                                                 l10633 1768  
                                               l10625 1726                                                 l11417 16FC  
                                               l10617 16DA                                                 l10609 1698  
                                               l10561 1402                                                 l10553 13A0  
                                               l10537 1266                                                 l10529 122A  
                                               l11409 117E                                                 l10481 0F9C  
                                               l10473 0F46                                                 l10465 0ED8  
                                               l10457 0E7A                                                 l10449 0E14  
                                               l10393 0B90                                                 l10385 0B10  
                                               l10377 0ACE                                                 l10369 0A50  
                                               l10297 0782                                                 l10289 0728  
                                               l11435 2C70                                                 l10803 2072  
                                               l10811 2094                                                 l11427 1F8C  
                                               l10731 1C5A                                                 l10723 1BE8  
                                               l10715 1B7A                                                 l10707 1AEE  
                                               l11419 18BA                                                 l10651 1828  
                                               l10635 1782                                                 l10643 17E2  
                                               l10571 145C                                                 l10563 1410  
                                               l10555 13CE                                                 l10547 12FA  
                                               l10539 1280                                                 l10483 0FB2  
                                               l10475 0F64                                                 l10467 0EEA  
                                               l10459 0EA0                                                 l10395 0BB8  
                                               l10387 0B2A                                                 l10379 0AD4  
                                               l10299 07A8                                                 l10821 2106  
                                               l11429 20AC                                                 l10805 207C  
                                               l10813 20C2                                                 l10741 1D4A  
                                               l10733 1C82                                                 l10725 1BFA  
                                               l10717 1BA0                                                 l10709 1B08  
                                               l10661 18D0                                                 l10653 1852  
                                               l10637 17A8                                                 l10645 17F6  
                                               l10629 1744                                                 l10581 14B8  
                                               l10557 13EA                                                 l10549 1328  
                                               l10493 1046                                                 l10485 0FCC  
                                               l10477 0F78                                                 l10469 0F06  
                                               l10397 0BD2                                                 l10389 0B44  
                                               l10831 2178                                                 l10823 2118  
                                               l10815 20D6                                                 l10807 208A  
                                               l10751 1DB2                                                 l10743 1D50  
                                               l10727 1C16                                                 l10719 1BC6  
                                               l10671 19A0                                                 l10663 1942  
                                               l10655 187A                                                 l10639 17C2  
                                               l10591 1530                                                 l10583 14DE  
                                               l10575 147A                                                 l10559 13F8  
                                               l10567 141A                                                 l10495 1074  
                                               l10487 0FF6                                                 l10479 0F8A  
                                               l10399 0BD8                                         fp__timer0_isr 0000  
                                               l10825 2132                                                 l10833 2192  
                                               l10761 1E0C                                                 l10753 1DC0  
                                               l10745 1D7E                                                 l10737 1CAA  
                                               l10729 1C30                                                 l10673 19AA  
                                               l10681 19F0                                                 l10665 1948  
                                               l10649 180E                                                 l10593 154A  
                                               l10577 148C                                                 l10585 14F8  
                                               l10569 1448                                                 l10497 10E6  
                                               l10489 101E                                                 l10851 2220  
                                               l10843 21D0                                                 l10827 2158  
                                               l10835 21A6                                                 l10819 20F4  
                                               l10771 1E68                                                 l10747 1D9A  
                                               l10739 1CD8                                                 l10691 1A46  
                                               l10683 1A04                                                 l10675 19B8  
                                               l10667 1976                                                 l10659 18A2  
                                               l10595 1574                                                 l10587 14FE  
                                               l10579 149E                                                 l10499 10EC  
                                               l10853 2246                                                 l10845 21E2  
                                               l10837 21BA                                                 l10829 2172  
                                               l10781 1EE0                                                 l10773 1E8E  
                                               l10765 1E2A                                                 l10749 1DA8  
                                               l10757 1DCA                                                 l10693 1A60  
                                               l10669 1992                                                 l10597 159C  
                                               l10589 1518                                                 l10861 2294  
                                               l10863 22A8                                                 l10847 21F4  
                                               l10855 2260                                                 l10791 1F74  
                                               l10783 1EFA                                                 l10767 1E3C  
                                               l10775 1EA8                                                 l10759 1DF8  
                                               l10695 1A86                                                 l10687 1A22  
                                               l10679 19C2                                                 l10857 2266  
                                               l10849 2206                                                 l10793 1FA2  
                                               l10785 1F24                                                 l10777 1EAE  
                                               l10769 1E4E                                                 l10689 1A34  
                                               l10697 1AA0                                                 l10795 2014  
                                               l10787 1F4C                                                 l10779 1EC8  
                                               l10859 2280                                                 l10699 1AA6  
                                               l10797 201A                                                 l10799 2048  
                                               ?_main 0001                                                 _EEADR 0FA9  
                                               STR_10 FF23                                                 STR_11 FE4E  
                                               STR_20 FEE3                                                 STR_12 FEC8  
                                               STR_21 FF2F                                                 STR_13 FF89  
                                               STR_30 FED6                                                 STR_22 FE99  
                                               STR_14 FF9B                                                 STR_23 FEF0  
                                               STR_31 FFA4                                                 STR_15 FED6  
                                               STR_24 FF3B                                                 STR_32 FFAC  
                                               STR_40 FF92                                                 STR_16 FF2F  
                                               STR_33 FFB4                                                 STR_41 FF52  
                                               STR_17 FE99                                                 STR_25 FE87  
                                               STR_50 FF0A                                                 STR_42 FFE9  
                                               STR_34 FFC4                                                 STR_26 FEFD  
                                               STR_18 FEF0                                                 STR_27 FE87  
                                               STR_43 FF0A                                                 STR_35 FFDC  
                                               STR_51 FF6E                                                 STR_19 FF3B  
                                               STR_52 FFF4                                                 STR_60 FFF8  
                                               STR_28 FEFD                                                 STR_44 FF65  
                                               STR_36 FF0A                                                 STR_45 FFF4  
                                               STR_29 FEE3                                                 STR_53 FFF8  
                                               STR_61 FF92                                                 STR_37 FF5C  
                                               STR_70 FF77                                                 STR_46 FFF8  
                                               STR_62 FF52                                                 STR_54 FF92  
                                               STR_38 FFF4                                                 STR_71 FFF4  
                                               STR_55 FF52                                                 STR_47 FF92  
                                               STR_63 FFE9                                                 STR_39 FFF8  
                                               STR_72 FFF8                                                 STR_64 FF0A  
                                               STR_48 FF52                                                 STR_56 FFE9  
                                               STR_80 FFD4                                                 STR_65 FED6  
                                               STR_57 FF0A                                                 STR_73 FF92  
                                               STR_49 FFE9                                                 STR_81 FF80  
                                               STR_74 FF52                                                 STR_82 FFE9  
                                               STR_66 FFBC                                                 STR_58 FF77  
                                               STR_59 FFF4                                                 STR_83 FF0A  
                                               STR_75 FFE9                                                 STR_67 FFEF  
                                               STR_84 FF0A                                                 STR_76 FF0A  
                                               STR_68 FF47                                                 STR_69 FFE9  
                                               STR_77 FFE3                                                 STR_85 FEA9  
                                               STR_78 FFF4                                                 STR_86 FE3A  
                                               STR_79 FFF8                                                 STR_87 FEB9  
                                               u10007 1AB2                                                 u10017 1C06  
                                               u10107 27C6                                                 u10027 1D8A  
                                               u10117 27EA                                                 u10037 1E9A  
                                               u10127 280C                                                 u10047 1EBA  
                                               u10057 2054                                                 u10067 2164  
                                               u10077 2184                                                 u10087 2252  
                                               u10097 2272                                                 i2l123 3C0A  
                                               i2l126 3DF2                                                 i2l136 33DE  
                                               i2l701 2DD4                                                 i2l607 3EDE  
                                               i2l553 3EE2                                                 i2l397 3EEC  
                                               i2l549 3EE6                                                 i2l695 2DCC  
                                               i2l963 3EDA                                                 i2l973 3ED2  
                                               i2l893 3ECE                                                 i2l968 3ED6  
                                               i2l889 3ECA                                                 i2l994 3E90  
                                               _RCREG 0FAE                                     ?_lcd_send_command 0100  
                                               _TMR0H 0FD7                                                 _TMR1H 0FCF  
                                               _TMR0L 0FD6                                                 _TMR1L 0FCE  
                                               _TMR3H 0FB3                                                 _TMR3L 0FB2  
                                               _SPBRG 0FAF                                                 _PORTA 0F80  
                                               _PORTB 0F81                                                 _PORTC 0F82  
                                               _PORTD 0F83                                                 _PORTE 0F84  
                                               _TRISA 0F92                                                 _TRISB 0F93  
                                               _TRISC 0F94                                                 _TRISD 0F95  
                                               _TRISE 0F96                                                 _TXREG 0FAD  
                            ??i2_lcd_send_string_data 001D                                    ??_lcd_send_command 00FE  
                      ??_GPIO_Pin_Direction_Intialize 00ED                            __end_of_GPIO_Pin_Intialize 3AAA  
                                    __end_of_SPI_Init 2B44                                                 pclath 0FFA  
                                               pclatu 0FFB                                                 tablat 0FF5  
                                               ttemp5 0066                                                 ttemp6 0069  
                                               ttemp7 006D                                                 status 0FD8  
                                               wtemp8 0066                                       _Admin_pass_flag 00E9  
                             _Timer0_Prescaler_Config 3B06                  __end_ofi2_lcd_send_ATpos_string_data 3A46  
                        i2_lcd_send_ATpos_string_data 39DC                                       ??_lcd_intialize 0107  
                                    lcd_intialize@ret 0109                         lcd_intialize@data_pin_counter 010B  
                                Key_Pad_Intialize@ret 0100                                       __initialization 3902  
                                        RB4_ISR@state 0001                                          __end_of_main 22C2  
                              ?i2_lcd_send_4_bit_data 000C                               Timer0_Intialization@ret 00F2  
                              Key_Pad_Get_Value@value 00F9                                             ??_ADC_ISR 0001  
                                        RB5_ISR@state 0001                                                ??_main 0113  
                                       __activetblptr 0003                                             ??_RB4_ISR 0001  
                                           ??_RB5_ISR 0001                                             ??_RB6_ISR 0001  
                                           ??_RB7_ISR 0001                                          RB6_ISR@state 0001  
                                           ??_SPI_ISR 0001                                                _ADRESH 0FC4  
                                              _EEADRH 0FAA                                                _ADRESL 0FC3  
                                              _EEDATA 0FA8                                                _CCPR1H 0FBF  
                                              _CCPR2H 0FBC                                                _CCPR1L 0FBE  
                                              _CCPR2L 0FBB                                                _EECON2 0FA7  
                        __end_of_Timer0_Intialization 3202                                                i2l1005 3E76  
                                              i2l1016 3E5C                                                i2l1201 232C  
                                              i2l1027 3E42                                                i2l1211 245C  
                                              i2l1203 234C                                                i2l1213 24A0  
                                              i2l1205 2390                                                i2l1231 270C  
                                              i2l1207 23D4                                                i2l1216 2528  
                                              i2l1209 2418                                                i2l1318 3EEA  
                                              i2l1530 3EB0                                                i2l1390 3D1E  
                                              i2l1199 230C                                                i2l1448 3EBA  
                                              i2l1486 3EC2                                                i2l3335 3EC8  
                                              i2l3273 3EE0                                                i2l1665 3EC6  
                                              i2l1674 3EE8                                                i2l3339 3ECC  
                                              i2l3269 3EE4                                                i2l3277 3EDC  
                                              i2l1946 308E                                                i2l9011 3DC4  
                                              i2l9005 3BBE                                                i2l9013 3DD8  
                                              i2l9101 35A2                                                i2l9007 3BF8  
                                              i2l9111 35FA                                                i2l9103 35B4  
                                              i2l6721 3ED4                                                i2l9009 3BFA  
                                              i2l9105 35C6                                                i2l9121 338E  
                                              i2l9113 3346                                                i2l6715 3ED8  
                                              i2l9107 35D2                                                i2l9051 3726  
                                              i2l9115 334C                                                i2l9123 33A4  
                                              i2l6741 3E90                                                i2l6733 3E7A  
                                              i2l9109 35F6                                                i2l9053 3726  
                                              i2l9117 3362                                                i2l6727 3ED0  
                                              i2l6735 3E7C                                                i2l9071 3810  
                                              i2l9063 37A0                                                i2l9055 3738  
                                              i2l9119 3378                                                i2l6831 3EB2  
                                              i2l6761 3E46                                                i2l9065 37A0  
                                              i2l9057 3744                                                i2l6833 3EB6  
                                              i2l6755 3E76                                                i2l6747 3E60  
                                              i2l6763 3E48                                                i2l9067 37B2  
                                              i2l9059 3796                                                i2l6843 3EA6  
                                              i2l6851 3EC4                                                i2l6749 3E62  
                                              i2l9069 37BE                                                i2l9421 2FF4  
                                              i2l6845 3EA8                                                i2l6783 3E42  
                                              i2l6775 3E2C                                                i2l9271 39EE  
                                              i2l9423 300C                                                i2l9415 2FCC  
                                              i2l6839 3EBC                                                i2l6847 3EAC  
                                              i2l6769 3E5C                                                i2l6777 3E2E  
                                              i2l9273 3A00                                                i2l9425 3030  
                                              i2l9417 2FCE                                                i2l6857 3EE8  
                                              i2l9099 359A                                                i2l9275 3A0C  
                                              i2l9267 39DC                                                i2l9427 3054  
                                              i2l9419 2FE0                                                i2l9277 3A20  
                                              i2l9269 39DC                                                i2l9429 3078  
                                              i2l9279 3A3C                                                i2l9583 3CE6  
                                              i2l8961 2C98                                                i2l9593 3D06  
                                              i2l9585 3CE8                                                i2l8971 2D96  
                                              i2l8963 2CAA                                                i2l9587 3CEC  
                                              i2l8973 2DA2                                                i2l8965 2CCC  
                                              i2l9589 3CF0                                                i2l8967 2CD8  
                                              i2l8959 2C90                                                i2l8969 2D3A  
                                              i2l9961 2308                                                i2l9971 235A  
                                              i2l9963 231A                                                i2l9981 239E  
                                              i2l9973 2368                                                i2l9965 2328  
                                              i2l9957 22EC                                                i2l8999 3BB6  
                                              i2l9991 23E2                                                i2l9983 23AC  
                                              i2l9975 2376                                                i2l9967 233A  
                                              i2l9959 22FA                                                i2l9993 23F0  
                                              i2l9985 23BA                                                i2l9977 2386  
                                              i2l9969 2348                                                i2l9995 23FE  
                                              i2l9987 23CA                                                i2l9979 238A  
                                              i2l9997 240E                                                i2l9989 23CE  
                                              i2l9999 2412                                                _SPBRGH 0FB0  
                                        RB7_ISR@state 0001                                                _SSPADD 0FC8  
                                              _SSPBUF 0FC9                        GPIO_Pin_Intialize@_Pin_Config_ 00F6  
                                         _Led_Turn_On 3478                    __end_of_lcd_send_ATpos_string_data 39DC  
                       ?i2_lcd_send_ATpos_string_data 001F                            _lcd_send_ATpos_string_data 3970  
                         __end_of_GPIO_Pin_Read_Logic 2FCC                                       ??_SPI_Send_Byte 00ED  
                            ??i2_GPIO_Pin_Write_Logic 0004                        Key_Pad_Get_Value@coulmns_logic 0102  
                                 _lcd_send_4_bit_data 3AAA                                                _cursor 00A1  
                                              clear_0 3948                                                clear_1 3954  
                                              clear_2 3960                                                _timer0 00AC  
                                              isa$std 0001                     i2lcd_send_ATpos_string_data@_LCD_ 001F  
                     lcd_send_ATpos_string_data@_LCD_ 010B                               ??_EEPROM_Data_WriteByte 00EE  
         _I2C_Report_Receive_Overflow_InterruptHandle 00E5                                             ?_CCP1_ISR 0001  
                                        __pdataCOMRAM 0052                                             ?_CCP2_ISR 0001  
                               __end_of_Led_Intialize 32AA                                          __mediumconst FE14  
                         Timer0_Intialization@timer0_ 00EE                                             ?_ECCP_ISR 0001  
                                              tblptrh 0FF7                                                tblptrl 0FF6  
                                              tblptru 0FF8                            ??_lcd_send_ATpos_char_data 00FE  
                                _count_sec_timer_flag 0049                                         SPI_Init@_SPI_ 00FC  
                                ?_lcd_send_4_bit_data 00F6                             ??_Timer0_Prescaler_Config 00ED  
                             lcd_send_char_data@_LCD_ 0100                                            __accesstop 0080  
                             __end_of__initialization 3966                                             ?_INT0_ISR 0001  
                                           ?_INT1_ISR 0001                                             ?_INT2_ISR 0001  
                                   ?i2_lcd_set_cursor 0019                                      Led_Turn_On@F2825 004F  
                                       ___rparam_used 0001                              _ECCP_IntterruptHandeler_ 0041  
                                lcd_send_enable@_LCD_ 00F6                                    ??i2_lcd_set_cursor 001D  
                           i2lcd_send_command@command 0016                                        __pcstackCOMRAM 0001  
                          _I2C_DefaultInterruptHandle 003D                           i2GPIO_Pin_Write_Logic@Logic 0003  
                                        __pidataBANK0 3D58                          convert_short_to_string@F3106 00B7  
                               __end_of_ecu_intialize 3CA6                                   Relay_Turn_Off@F2829 004A  
                                           ?_SPI_Init 00FC                                     _eeprom_digit_read 00B4  
                                    ??_lcd_set_cursor 0109                               _CCP2_IntterruptHandeler 0045  
                                          ??_CCP1_ISR 0001                                            ??_CCP2_ISR 0001  
                                          ??_ECCP_ISR 0001                                  lcd_set_cursor@coulmn 0108  
                          EEPROM_Data_WriteByte@bData 00ED                                 ??_lcd_send_4_bit_data 00F9  
                                          __pbssBANK0 00B7                                            __pbssBANK1 0115  
                               lcd_send_char_data@ret 0103                                            ??_INT0_ISR 0001  
                                          ??_INT1_ISR 0001                                            ??_INT2_ISR 0001  
                             lcd_send_string_data@ret 0109                               lcd_send_string_data@str 0107  
                                  _lcd_send_char_data 3622                           i2lcd_send_string_data@_LCD_ 0019  
                              i2_lcd_send_string_data 359A                               ?_Timer0_Bit_Mode_Select 00EB  
                                 ?_lcd_send_char_data 0100                                          ??_TIMER0_ISR 0029  
                                        ??_TIMER1_ISR 0001                                          ??_TIMER2_ISR 0001  
                                        ??_TIMER3_ISR 0001   __end_of_MSSP_SPI_Slave_Mode_GPIO_PIN_Configurations 3902  
       ??_MSSP_SPI_Slave_Mode_GPIO_PIN_Configurations 00F7          ?_MSSP_SPI_Slave_Mode_GPIO_PIN_Configurations 00F5  
         _MSSP_SPI_Slave_Mode_GPIO_PIN_Configurations 3890                                               _ADC_ISR 3EEC  
                     GPIO_Pin_Read_Logic@_Pin_Config_ 00EB                                  _Timer0_Intialization 314C  
                                          ??_SPI_Init 0100                                               i2l10001 2426  
                                             i2l10011 246A                                               i2l10003 2434  
                                             i2l10101 266C                                               i2l10021 24AE  
                                             i2l10013 2478                                               i2l10005 2442  
                                             i2l10111 26A8                                               i2l10103 267A  
                                             i2l10023 24BC                                               i2l10031 24E4  
                                             i2l10015 2486                                               i2l10007 2452  
                                             i2l10121 26DA                                               i2l10113 26AC  
                                             i2l10105 2688                                               i2l10041 2522  
                                             i2l10033 24F2                                               i2l10025 24CA  
                                             i2l10017 2496                                               i2l10009 2456  
                                             i2l10123 26E8                                               i2l10115 26BA  
                                             i2l10107 268C                                               i2l10051 2566  
                                             i2l10043 2536                                               i2l10035 2500  
                                             i2l10027 24DA                                               i2l10019 249A  
                                             i2l10125 26EC                                               i2l10117 26C8  
                                             i2l10109 269A                                               i2l10061 259A  
                                             i2l10045 2544                                               i2l10053 256C  
                                             i2l10037 250E                                               i2l10029 24DE  
                                             i2l10127 26FA                                               i2l10119 26CC  
                                             i2l10071 25CC                                               i2l10063 25A8  
                                             i2l10055 257A                                               i2l10047 2552  
                                             i2l10039 251E                                               i2l10129 2708  
                                             i2l10081 2608                                               i2l10073 25DA  
                                             i2l10065 25AC                                               i2l10057 2588  
                                             i2l10049 2562                                               i2l10091 263A  
                                             i2l10083 260C                                               i2l10075 25E8  
                                             i2l10067 25BA                                               i2l10059 258C  
                                             i2l10093 2648                                               i2l10085 261A  
                                             i2l10077 25EC                                               i2l10069 25C8  
                                             i2l10095 264C                                               i2l10087 2628  
                                             i2l10079 25FA                                               i2l10097 265A  
                                             i2l10089 262C                                               i2l10099 2668  
                                             i2l11437 33B8                                               i2l11439 2DB6  
                                             _RB4_ISR 3E78                                               _RB5_ISR 3E5E  
                                             _RB6_ISR 3E44                                               _RB7_ISR 3E2A  
                                       ?_MSSP_I2C_ISR 0001                             _TIMER1_IntterruptHandeler 00CD  
                                ??_lcd_send_char_data 00FE                                     _Key_Pad_Get_Value 2DD6  
                                             _SPI_ISR 3EEA                          _USART_RX_IntterruptHandeler_ 00C5  
                                    Led_Intialize@Led 00FA                             _RB4_interruptHandler_High 00DD  
                                    Led_Intialize@ret 0100                                    ?_Key_Pad_Get_Value 00F7  
                                 _Admin_Start_address 00A3                             Timer0_Mode_Select@timer0_ 00EB  
                           _RB7_interruptHandler_High 00D1                                    __end_of_TIMER0_ISR 3D20  
                                  __end_of_TIMER1_ISR 3EBC                                    __end_of_TIMER2_ISR 3EC4  
                                  __end_of_TIMER3_ISR 3EB2                                               _Lat_Reg 008A  
                                   ??_MSSP_I2C_BC_ISR 0001                              _RB4_interruptHandler_Low 00DB  
                             ??i2_lcd_send_4_bit_data 000F                                               __Hparam 0000  
                                 ??_Key_Pad_Get_Value 00FB                              _RB7_interruptHandler_Low 00CF  
                                             __Lparam 0000                        __end_of_Timer0_Bit_Mode_Select 3CE6  
                                  _GPIO_Pin_Intialize 3A46                                     _Key_Pad_Intialize 33E0  
                               ?_Timer0_Intialization 00EE                                               __pcinit 3902  
__end_of_MSSP_SPI_Msster_Mode_GPIO_PIN_Configurations 3D58         ?_MSSP_SPI_Msster_Mode_GPIO_PIN_Configurations 0001  
      ??_MSSP_SPI_Msster_Mode_GPIO_PIN_Configurations 00F5          _MSSP_SPI_Msster_Mode_GPIO_PIN_Configurations 3D20  
                                             __ramtop 1000                                            _key_status 00EA  
                                 ?_GPIO_Pin_Intialize 00F6                                    ?_Key_Pad_Intialize 00FA  
                                             __ptext0 0012                                               __ptext1 3970  
                                             __ptext2 350E                                               __ptext3 3B60  
                                             __ptext4 32AA                                               __ptext5 3622  
                                             __ptext6 3DF4                                               __ptext7 3C5E  
                                             __ptext8 2738                                               __ptext9 36A4  
                                       _intialization 3DF4                                             _T0CONbits 0FD5  
                           i2GPIO_Pin_Write_Logic@ret 000A                                             _T1CONbits 0FCD  
                                      ??_MSSP_I2C_ISR 0001                                             _T2CONbits 0FCA  
                                           _T3CONbits 0FB1                              EEPROM_Data_ReadByte@bAdd 00EB  
                           __end_of_Key_Pad_Get_Value 2EFE                                   ??_Key_Pad_Intialize 00FC  
                            GPIO_Pin_Read_Logic@Logic 00ED                                 i2lcd_set_cursor@_LCD_ 0019  
                    __end_of_lcd_send_ATpos_char_data 3BB6                                i2_GPIO_Pin_Write_Logic 2C90  
                                      __pintcode_body 22C2                                  end_of_initialization 3966  
                                ??_GPIO_Pin_Intialize 00F8                                               int_func 22C2  
                           EEPROM_Data_ReadByte@bData 00ED                                             i2u1013_47 3082  
                                        ?_Led_Turn_On 00F6                                 __end_of_lcd_intialize 289C  
                         ?_lcd_send_ATpos_string_data 010B                                     i2_lcd_send_enable 3DC4  
                           __end_of_Key_Pad_Intialize 3478                                             _RCSTAbits 0FAB  
                                             postdec1 0FE5                                               postdec2 0FDD  
                                          _timer0_isr 2FCC                                               postinc0 0FEE  
                                             postinc2 0FDE                                    ?i2_lcd_send_enable 000C  
                               i2lcd_send_command@ret 0017                                        ?_intialization 0001  
                                           _PORTBbits 0F81                                    Led_Intialize@F2820 0050  
                               __end_of_Key_Pad_Array FE25                           lcd_send_ATpos_char_data@ret 0110  
                                          _spi_master 00B2                                   ??i2_lcd_send_enable 000E  
                         lcd_send_ATpos_char_data@row 010D                         __end_of_EEPROM_Data_WriteByte 3890  
                          i2lcd_send_4_bit_data@_LCD_ 000C    MSSP_SPI_Slave_Mode_GPIO_PIN_Configurations@SPI_SCK 00FB  
  MSSP_SPI_Slave_Mode_GPIO_PIN_Configurations@SPI_SDI 00F9   MSSP_SPI_Msster_Mode_GPIO_PIN_Configurations@SPI_SCK 00F7  
 MSSP_SPI_Msster_Mode_GPIO_PIN_Configurations@SPI_SDI 00F6    MSSP_SPI_Slave_Mode_GPIO_PIN_Configurations@SPI_SDO 00F8  
 MSSP_SPI_Msster_Mode_GPIO_PIN_Configurations@SPI_SDO 00F5                                     _Admin_pass_status 00B6  
                                           _TRISCbits 0F94                                    lcd_intialize@_LCD_ 0105  
            GPIO_Pin_Direction_Intialize@_Pin_Config_ 00EB                               i2lcd_send_char_data@ret 0017  
                                       ?_USART_RX_ISR 0001                                         ?_USART_TX_ISR 0001  
                             Led_Turn_On@_pin_config_ 00FB                                           _CCP1CONbits 0FBD  
                                         _CCP2CONbits 0FBA                                             _TXSTAbits 0FAC  
                           __end_ofi2_lcd_send_enable 3DF4                            __end_of_Timer0_Mode_Select 314C  
                            EEPROM_Data_WriteByte@ret 00EF                                  Key_Pad_Get_Value@ret 0100  
                                   Led_Turn_Off@F2830 004E                                           _ECCP1ASbits 0FB6  
                              ??_Timer0_Intialization 00F0                         lcd_send_ATpos_char_data@_LCD_ 010B  
                               __end_of_SPI_Send_Byte 3E2A                                           _BAUDCONbits 0FB8  
                                   ??_lcd_send_enable 00F8                                         __pidataCOMRAM 3E92  
                        __end_ofi2_lcd_send_char_data 381A                    i2GPIO_Pin_Write_Logic@_Pin_Config_ 0001  
                    GPIO_Pin_Write_Logic@_Pin_Config_ 00EB                                   start_initialization 3902  
                        __end_of_lcd_send_string_data 359A                              Key_Pad_Get_Value@coulmns 0104  
                               GPIO_Pin_Intialize@ret 00F8                                        Led_Turn_On@Led 00F6  
   MSSP_SPI_Msster_Mode_GPIO_PIN_Configurations@F2863 0058      MSSP_SPI_Slave_Mode_GPIO_PIN_Configurations@F2872 0055  
   MSSP_SPI_Msster_Mode_GPIO_PIN_Configurations@F2865 0057      MSSP_SPI_Slave_Mode_GPIO_PIN_Configurations@F2874 0054  
   MSSP_SPI_Msster_Mode_GPIO_PIN_Configurations@F2867 0056      MSSP_SPI_Slave_Mode_GPIO_PIN_Configurations@F2876 0053  
    MSSP_SPI_Slave_Mode_GPIO_PIN_Configurations@F2878 0052                                        Led_Turn_On@ret 00F9  
                                      ??_USART_RX_ISR 0001                                        ??_USART_TX_ISR 0001  
    MSSP_SPI_Slave_Mode_GPIO_PIN_Configurations@_SPI_ 00F5                                      _admin_pass_tries 009F  
                                    _lcd_send_command 36A4                               ?i2_lcd_send_string_data 0019  
                                 _Guest_Start_address 00A2                                  __end_of_MSSP_I2C_ISR 3ECC  
                          convert_int_to_string@F3113 0115                           convert_byte_to_string@F3099 00BD  
                                         ?_timer0_isr 0001                             ?_lcd_send_ATpos_char_data 010B  
                                     ??_intialization 00FE                                           __pdataBANK0 0080  
                                            ?_ADC_ISR 0001                                   i2lcd_set_cursor@row 001B  
                     i2lcd_send_ATpos_string_data@ret 0025                         lcd_send_ATpos_string_data@ret 0111  
                     i2lcd_send_ATpos_string_data@row 0021                         lcd_send_ATpos_string_data@row 010D  
                     i2lcd_send_ATpos_string_data@str 0023                         lcd_send_ATpos_string_data@str 010F  
                           i2lcd_send_char_data@_LCD_ 0014                               _CCP1_IntterruptHandeler 0047  
                                            ?_RB4_ISR 0001                                              ?_RB5_ISR 0001  
                                            ?_RB6_ISR 0001                                              ?_RB7_ISR 0001  
                         __end_of_lcd_send_4_bit_data 3B06                                    Relay_Turn_On@F2823 004B  
                  i2lcd_send_4_bit_data@_data_command 000E                      lcd_send_4_bit_data@_data_command 00F8  
                                         __pbssCOMRAM 0033                                lcd_send_char_data@data 0102  
         _I2C_Report_Write_Collision_InterruptHandler 003F                                         __pcstackBANK0 00EB  
                                       __pcstackBANK1 0100                              ?_Timer0_Prescaler_Config 00EB  
                                     _MSSP_I2C_BC_ISR 3ECC                                              ?_SPI_ISR 0001  
                                 lcd_set_cursor@_LCD_ 0105                            __end_ofi2_lcd_send_command 37A0  
                      __end_ofi2_lcd_send_string_data 3622                                 _INT0_interruptHandler 00E3  
                           EEPROM_Data_WriteByte@bAdd 00EB                                             __pnvBANK0 00FE  
                        __end_of_InterruptManagerHigh 2738                                      _spi_slave_reader 00E7  
                                  SPI_Send_Byte@_data 00ED                         __end_ofi2_lcd_send_4_bit_data 3C0C  
                                           __pintcode 0008                                         __pmediumconst FE14  
                        __end_of_GPIO_Pin_Write_Logic 2C90                                             _led_Admin 0051  
                                           _led_Block 0064                                             _led_Guest 0063  
                                 lcd_send_command@ret 0103                   i2lcd_send_ATpos_string_data@coulmns 0022  
                   lcd_send_ATpos_string_data@coulmns 010E                               _TIMER3_InterruptHandler 00C9  
                           i2lcd_send_string_data@ret 001D                             i2lcd_send_string_data@str 001B  
                                            _CCP1_ISR 3EE4                                              _CCP2_ISR 3EE0  
                             ?i2_GPIO_Pin_Write_Logic 0001                                              _ECCP_ISR 3EDC  
                                       _Led_Intialize 3202                             Key_Pad_Get_Value@_key_pad 00F7  
                           _TIMER0_IntterruptHandeler 003B                          _USART_TX_IntterruptHandeler_ 00C7  
                           Key_Pad_Intialize@_key_pad 00FA                             _RB5_interruptHandler_High 00D9  
                        __end_of_EEPROM_Data_ReadByte 3C5E                                 lcd_send_command@_LCD_ 0100  
                             EEPROM_Data_ReadByte@ret 00EF                                              _INT0_ISR 3ED8  
                                            _INT1_ISR 3ED4                                              _INT2_ISR 3ED0  
                                i2_lcd_send_char_data 37A0                                              _RB4_flag 005C  
                                            _PIE1bits 0F9D                                              _PIE2bits 0FA0  
                                            _RB5_flag 005B                                              _RB6_flag 005A  
                                            _RB7_flag 0059                              _RB6_interruptHandler_Low 00D3  
                                            _PIR1bits 0F9E                                              _PIR2bits 0FA1  
                                            i2u800_40 3D02                                              i2u800_41 3CFE  
                                            i2u801_48 3D0C                                              i2u801_49 3D1E  
                                            i2u725_40 2CAA                                              i2u725_41 2CA6  
                                            i2u733_44 3BE8                                              i2u733_45 3BE4  
                                            i2u494_40 3E8C                                              i2u726_40 2CCC  
                                            i2u734_40 3C0A                                              i2u494_41 3E88  
                                            i2u726_41 2CC8                                              i2u734_41 3C06  
                                            i2u495_40 3E72                                              i2u743_40 3738  
                                            i2u495_41 3E6E                                              i2u743_41 3734  
                                            i2u727_44 2CF8                                              i2u727_45 2CF4  
                                            i2u496_40 3E58                                              i2u744_40 37B2  
                                            i2u840_40 2348                                              i2u496_41 3E54  
                                            i2u744_41 37AE                                              i2u840_41 2344  
                                            i2u728_44 2D5A                                              i2u728_45 2D56  
                                            i2u497_40 3E3E                                              i2u841_40 235A  
                                            i2u497_41 3E3A                                              i2u841_41 2356  
                                            i2u850_40 23F0                                              i2u842_40 2368  
                                            i2u850_41 23EC                                              i2u842_41 2364  
                                            i2u747_40 35B4                                              i2u851_40 23FE  
                                            i2u843_40 2376                                              i2u835_40 22FA  
                                            i2u747_41 35B0                                              i2u851_41 23FA  
                                            i2u843_41 2372                                              i2u835_41 22F6  
                                            i2u748_40 35C6                                              i2u860_40 2496  
                                            i2u852_40 240E                                              i2u844_40 2386  
                                            i2u836_40 2308                                              i2u748_41 35C2  
                                            i2u860_41 2492                                              i2u852_41 240A  
                                            i2u844_41 2382                                              i2u836_41 2304  
                                            i2u749_40 3618                                              i2u861_40 24AE  
                                            i2u853_40 2426                                              i2u845_40 239E  
                                            i2u837_40 231A                                              i2u749_41 3614  
                                            i2u861_41 24AA                                              i2u853_41 2422  
                                            i2u845_41 239A                                              i2u837_41 2316  
                                            i2u758_40 39EE                                              i2u870_40 2544  
                                            i2u862_40 24BC                                              i2u854_40 2434  
                                            i2u846_40 23AC                                              i2u838_40 2328  
                                            i2u758_41 39EA                                              i2u870_41 2540  
                                            i2u862_41 24B8                                              i2u854_41 2430  
                                            i2u846_41 23A8                                              i2u838_41 2324  
                                            i2u759_40 3A00                                              i2u871_40 2552  
                                            i2u863_40 24CA                                              i2u855_40 2442  
                                            i2u847_40 23BA                                              i2u839_40 233A  
                                            i2u759_41 39FC                                              i2u871_41 254E  
                                            i2u863_41 24C6                                              i2u855_41 243E  
                                            i2u847_41 23B6                                              i2u839_41 2336  
                                            i2u784_40 2FE0                                              i2u880_40 25E8  
                                            i2u872_40 2562                                              i2u864_40 24DA  
                                            i2u856_40 2452                                              i2u848_40 23CA  
                                            i2u784_41 2FDC                                              i2u880_41 25E4  
                                            i2u872_41 255E                                              i2u864_41 24D6  
                                            i2u856_41 244E                                              i2u848_41 23C6  
                                _lcd_send_string_data 350E                                              i2u785_40 2FF4  
                                            i2u881_40 25FA                                              i2u873_40 257A  
                                            i2u865_40 24F2                                              i2u857_40 246A  
                                            i2u849_40 23E2                                              i2u785_41 2FF0  
                                            i2u881_41 25F6                                              i2u873_41 2576  
                                            i2u865_41 24EE                                              i2u857_41 2466  
                                            i2u849_41 23DE                                              i2u890_40 2688  
                                            i2u882_40 2608                                              i2u874_40 2588  
                                            i2u866_40 2500                                              i2u858_40 2478  
                                            i2u890_41 2684                                              i2u882_41 2604  
                                            i2u874_41 2584                                              i2u866_41 24FC  
                                            i2u858_41 2474                                              i2u891_40 269A  
                                            i2u883_40 261A                                              i2u875_40 259A  
                                            i2u867_40 250E                                              i2u859_40 2486  
                                            i2u891_41 2696                                              i2u883_41 2616  
                                            i2u875_41 2596                                              i2u867_41 250A  
                                            i2u859_41 2482                                              i2u892_40 26A8  
                                            i2u884_40 2628                                              i2u876_40 25A8  
                                            i2u868_40 251E                                              i2u892_41 26A4  
                                            i2u884_41 2624                                              i2u876_41 25A4  
                                            i2u868_41 251A                                              i2u893_40 26BA  
                                            i2u885_40 263A                                              i2u877_40 25BA  
                                            i2u869_40 2536                                              i2u893_41 26B6  
                                            i2u885_41 2636                                              i2u877_41 25B6  
                                            i2u869_41 2532                                              i2u894_40 26C8  
                                            i2u886_40 2648                                              i2u878_40 25C8  
                                            i2u894_41 26C4                                              i2u886_41 2644  
                                            i2u878_41 25C4                                              i2u895_40 26DA  
                                            i2u887_40 265A                                              i2u879_40 25DA  
                                            i2u895_41 26D6                                              i2u887_41 2656  
                                            i2u879_41 25D6                                              i2u896_40 26E8  
                                            i2u888_40 2668                                              i2u896_41 26E4  
                                            i2u888_41 2664                                              i2u897_40 26FA  
                                            i2u889_40 267A                                              i2u897_41 26F6  
                                            i2u889_41 2676                                              i2u898_40 2708  
                                            i2u898_41 2704                             Led_Intialize@_pin_config_ 0102  
                                __end_of_USART_RX_ISR 3EEA                                  __end_of_USART_TX_ISR 3EC8  
   MSSP_SPI_Slave_Mode_GPIO_PIN_Configurations@SPI_SS 00FA                                         _ecu_intialize 3C5E  
                                    i2_lcd_set_cursor 3346                                              _SPI_Init 29F4  
                                        _pass_counter 00A0                                            _ADCON0bits 0FC2  
                                          _ADCON1bits 0FC1                                            _ADCON2bits 0FC0  
                             __end_of_MSSP_I2C_BC_ISR 3ED0                       __end_of_Timer0_Prescaler_Config 3B60  
                      ??i2_lcd_send_ATpos_string_data 0025                        __end_ofi2_GPIO_Pin_Write_Logic 2DD6  
                                      ?_Led_Intialize 00FA                              lcd_send_4_bit_data@_LCD_ 00F6  
                                         _INTCON2bits 0FF1                                           _INTCON3bits 0FF0  
                                           copy_data0 3916                                             copy_data1 3936  
                         CCP_Capture_Read_Value@F2943 0043                                   _GPIO_Pin_Read_Logic 2EFE  
                               ?i2_lcd_send_char_data 0014                                            _EECON1bits 0FA6  
                                     _lcd_send_enable 3D90                                              __Hrparam 0000  
                               ?_lcd_send_string_data 0105                                              __Lrparam 0000  
                                   _Guest_pass_status 00B5                                              _Port_Reg 0080  
                           GPIO_Pin_Write_Logic@Logic 00ED                                              _Tris_Reg 0094  
                                      ?_ecu_intialize 0001                                  ?_GPIO_Pin_Read_Logic 00EB  
                                  _Timer0_Mode_Select 3090                                 _INT1_interruptHandler 00E1  
                    i2lcd_send_4_bit_data@pin_counter 0013                        lcd_send_4_bit_data@pin_counter 00FD  
                            __end_of_lcd_send_command 3726                                          _MSSP_I2C_ISR 3EC8  
                                 ?_Timer0_Mode_Select 00EB                                  _InterruptManagerHigh 0008  
                                            __ptext10 3D90                                              __ptext11 3AAA  
                                            __ptext20 3B06                                              __ptext12 3202  
                                            __ptext21 3090                                              __ptext13 33E0  
                                            __ptext22 3CA6                                              __ptext14 3A46  
                                            __ptext31 3EC4                                              __ptext23 3E10  
                                            __ptext15 29F4                                              __ptext40 3726  
                                            __ptext32 3EE8                                              __ptext24 3478  
                                            __ptext16 3890                                              __ptext41 359A  
                                            __ptext33 3EA6                                              __ptext25 2DD6  
                                            __ptext17 3D20                                              __ptext50 3E78  
                                            __ptext42 37A0                                              __ptext34 3EBC  
                                            __ptext26 2B44                                              __ptext18 289C  
                                            __ptext51 3EC8                                              __ptext43 3DC4  
                                            __ptext35 3EB2                                              __ptext27 2EFE  
                                            __ptext19 314C                                              __ptext60 0000  
                                            __ptext52 3ECC                                              __ptext44 3BB6  
                                            __ptext36 3CE6                                              __ptext28 381A  
                                            __ptext53 3ED0                                              __ptext45 2C90  
                                            __ptext37 2FCC                                              __ptext29 3C0C  
                                            __ptext54 3ED4                                              __ptext46 3EEA  
                                            __ptext38 39DC                                              __ptext55 3ED8  
                                            __ptext47 3E2A                                              __ptext39 3346  
                                            __ptext56 3EDC                                              __ptext48 3E44  
                                            __ptext57 3EE0                                              __ptext49 3E5E  
                                            __ptext58 3EE4                                              __ptext59 3EEC  
                               _EEPROM_Data_WriteByte 381A                EEPROM_Data_WriteByte@Global_int_status 00EE  
                                _GPIO_Pin_Write_Logic 2B44                            _pre_load@mcal_timer1$F3621 0037  
                          _pre_load@mcal_timer2$F3791 0035                              ??_Timer0_Bit_Mode_Select 00ED  
                                            _key_pad1 00A4                    _EUSART_OVERRUNERRORDefaultHandler_ 00C1  
                              i2lcd_send_enable@_LCD_ 000C                                GPIO_Pin_Read_Logic@ret 00F5  
                                            _pre_load 0039                                  ??_Timer0_Mode_Select 00ED  
                           lcd_send_string_data@_LCD_ 0105                                              isa$xinst 0000  
                                        ??_timer0_isr 0027                                              int$flags 0065  
                               ??_GPIO_Pin_Read_Logic 00EF                  __end_of_GPIO_Pin_Direction_Intialize 29F4  
                        _GPIO_Pin_Direction_Intialize 289C                                  _EEPROM_Data_ReadByte 3C0C  
                                     ??_Led_Intialize 00FC                                      ?_MSSP_I2C_BC_ISR 0001  
                                          _INTCONbits 0FF2                                           _PWM1CONbits 0FB7  
                               ?_InterruptManagerHigh 0001                                i2lcd_set_cursor@coulmn 001C  
                                    _Guest_pass_tries 009E                               lcd_send_command@command 0102  
                               ?_GPIO_Pin_Write_Logic 00EB                               i2lcd_send_command@_LCD_ 0014  
                             __end_of_lcd_send_enable 3DC4                                              intlevel2 0000  
                                      _lcd_set_cursor 32AA                                    __end_of_timer0_isr 3090  
                                   lcd_set_cursor@row 0107                                ??i2_lcd_send_char_data 0017  
                              ??_lcd_send_string_data 00FE                                       Led_Toggle@F2835 004D  
                                       _lcd_intialize 2738                                    i2_lcd_send_command 3726  
                                     ??_ecu_intialize 00FE                                            _TIMER0_ISR 3CE6  
                                          _TIMER1_ISR 3EB2                                            _TIMER2_ISR 3EBC  
                                          _TIMER3_ISR 3EA6                                       _Guest_pass_flag 00E8  
                               ?_EEPROM_Data_ReadByte 00EB                                 __end_of_intialization 3E10  
                                 ?i2_lcd_send_command 0014                         ?_GPIO_Pin_Direction_Intialize 00EB  
                                       _Key_Pad_Array FE15                                ?_EEPROM_Data_WriteByte 00EB  
                                         _SSPCON1bits 0FC6                                           _SSPCON2bits 0FC5  
                                          _WDTCONbits 0FD1                                __end_of_lcd_set_cursor 3346  
                                Relay_Intialize@F2818 004C                          lcd_send_ATpos_char_data@data 010F  
                                        _USART_RX_ISR 3EE8                                          _USART_TX_ISR 3EC4  
                     lcd_send_ATpos_char_data@coulmns 010E                              __end_ofi2_lcd_set_cursor 33E0  
                                ??i2_lcd_send_command 0017                                 _INT2_interruptHandler 00DF  
                                       ??_Led_Turn_On 00F8                              _lcd_send_ATpos_char_data 3B60  
                                      ?_lcd_intialize 0105  
