Microchip MPLAB XC8 Compiler V2.41

Linker command line:

-W-3 \
  --edf=C:\Program Files\Microchip\xc8\v2.41\pic\dat\20230208172133_en.msgs \
  -cn -h+dist/default/production\code.production.sym \
  --cmf=dist/default/production\code.production.cmf -z -Q18F4620 \
  -oC:\Users\Yossri\AppData\Local\Temp\xcAs8t4.\driver_tmp_3.o \
  --defsym=__MPLAB_BUILD=1 --fixupoverflow=error \
  -Mdist/default/production/code.production.map \
  --md=C:\Users\Yossri\AppData\Local\Temp\xcAs8t4.\driver_tmp_0.dat -E1 \
  -ver=XC8 Compiler --acfsm=1493 -ACODE=00h-0FFFFh -ACONST=00h-0FFFFh \
  -ASMALLCONST=01000h-010FFhx240 -AMEDIUMCONST=01000h-0FFFFh \
  -ACOMRAM=01h-07Fh -AABS1=00h-0F7Fh -ABIGRAM=01h-0F7Fh \
  -ARAM=080h-0FFh,0100h-01FFhx14,0F00h-0F7Fh -ABANK0=080h-0FFh \
  -ABANK1=0100h-01FFh -ABANK2=0200h-02FFh -ABANK3=0300h-03FFh \
  -ABANK4=0400h-04FFh -ABANK5=0500h-05FFh -ABANK6=0600h-06FFh \
  -ABANK7=0700h-07FFh -ABANK8=0800h-08FFh -ABANK9=0900h-09FFh \
  -ABANK10=0A00h-0AFFh -ABANK11=0B00h-0BFFh -ABANK12=0C00h-0CFFh \
  -ABANK13=0D00h-0DFFh -ABANK14=0E00h-0EFFh -ABANK15=0F00h-0F7Fh \
  -ASFR=0F80h-0FFFh -ABIGSFR=0F80h-0FFFh -ACONFIG=0300000h-030000Dh \
  -AIDLOC=0200000h-0200007h -AEEDATA=0F00000h-0F003FFh -peeprom_data=EEDATA \
  -preset_vec=00h,intcode=08h,intcodelo,powerup,init -pramtop=01000h \
  -psmallconst=SMALLCONST -pmediumconst=MEDIUMCONST -pconst=CONST \
  -AFARRAM=00h-00h \
  -prdata=COMRAM,nvrram=COMRAM,nvbit=COMRAM,rbss=COMRAM,rbit=COMRAM \
  -pfarbss=FARRAM,fardata=FARRAM,nvFARRAM=FARRAM \
  -pintsave_regs=BIGRAM,bigbss=BIGRAM,bigdata=BIGRAM -pbss=RAM \
  -pidata=CODE,irdata=CODE,ibigdata=CODE,ifardata=CODE -prparam=COMRAM \
  C:\Users\Yossri\AppData\Local\Temp\xcAs8t4.\driver_tmp_9.o \
  dist/default/production\code.production.o 

Object code version is 3.11

Machine type is 18F4620



                Name                               Link     Load   Length Selector   Space Scale
C:\Users\Yossri\AppData\Local\Temp\xcAs8t4.\driver_tmp_9.o
                idloc                            200000   200000        8        0       5
                config                           300000   300000        E        0       4
                init                                  E        E        4        4       0
                reset_vec                             0        0        4        0       0
dist/default/production\code.production.o
                intcode                               8        8        6        4       0
                idloc                            200000   200000        8        0       5
                config                           300000   300000        E        0       4
                temp                                 64       64        1        1       1
                mediumconst                        FDA8     FDA8      258     7ED4       0
                text64                             4830     4830        4     23ED       0
                text63                             482C     482C        4     23ED       0
                text62                             4828     4828        4     23ED       0
                text61                             4824     4824        4     23ED       0
                text60                             4820     4820        4     23ED       0
                text59                             481C     481C        4     23ED       0
                text58                             4818     4818        4     23ED       0
                text57                             4814     4814        4     23ED       0
                text56                             4810     4810        4     23ED       0
                text55                             47AC     47AC       1A     2354       0
                text54                             4792     4792       1A     2354       0
                text53                             4778     4778       1A     2354       0
                text52                             475E     475E       1A     2354       0
                text51                             4836     4836        2     23ED       0
                text50                             344E     344E      146        4       0
                text49                             44CE     44CE       56        4       0
                text48                             46DC     46DC       30     2354       0
                text47                             40A4     40A4       7A        4       0
                text46                             3E1E     3E1E       88        4       0
                text45                             402A     402A       7A        4       0
                text44                             3C60     3C60       9A        4       0
                text43                             434E     434E       6A        4       0
                text42                             47FA     47FA        A     23ED       0
                text41                             3FAA     3FAA       80        4       0
                text40                             45FE     45FE       3A        4       0
                text39                             47F0     47F0        A     23ED       0
                text38                             4804     4804        8     23ED       0
                text37                             47DA     47DA        C     23ED       0
                text36                             4834     4834        2     23ED       0
                text35                             480C     480C        4     23ED       0
                intcode_body                       2A80     2A80      476        4       0
                text33                             4524     4524       52        4       0
                text32                             411E     411E       76        4       0
                text31                             36BC     36BC       CE        4       0
                text30                             3302     3302      14C        4       0
                text29                             3594     3594      128        4       0
                text28                             3A74     3A74       AC        4       0
                text27                             4728     4728       1C     2354       0
                text26                             4744     4744       1A     2354       0
                text25                             45BE     45BE       40        4       0
                text24                             3850     3850       BC        4       0
                text23                             441E     441E       5A        4       0
                text22                             390C     390C       B6        4       0
                text21                             378A     378A       C6        4       0
                text20                             39C2     39C2       B2        4       0
                text19                             305A     305A      158        4       0
                text18                             4638     4638       38        4       0
                text17                             4194     4194       72        4       0
                text16                             31B2     31B2      150        4       0
                text15                             43B8     43B8       66        4       0
                text14                             3CFA     3CFA       98        4       0
                text13                             3B20     3B20       A4        4       0
                text12                             4274     4274       6E        4       0
                text11                             46A8     46A8       34     2354       0
                text10                             3F28     3F28       82        4       0
                text9                              2EF6     2EF6      164        4       0
                text8                              4576     4576       48        4       0
                text7                              470C     470C       1C     2354       0
                text6                              3EA6     3EA6       82        4       0
                text5                              3BC4     3BC4       9C        4       0
                text4                              4478     4478       56        4       0
                text3                              3D92     3D92       8C        4       0
                text2                              42E2     42E2       6C        4       0
                text1                              47E6     47E6        A     23ED       0
                text0                                12       12     2A6E        4       0
                cstackCOMRAM                          1        1       32        1       1
                cstackBANK0                          F0       F0        E       80       1
                cstackBANK1                         100      100       1A      100       1
                bssBANK1                            11A      11A        B      100       1
                dataBANK0                            B9       B9       37       80       1
                bssBANK0                             80       80       39       80       1
                dataCOMRAM                           51       51       13        1       1
                bssCOMRAM                            33       33       1E        1       1
                cinit                              4206     4206       6E        4       0
                nvBANK0                              FE       FE        2       80       1
                idataBANK0                         4670     4670       37        4       0
                idataCOMRAM                        47C6     47C6       13     2354       0

TOTAL           Name                               Link     Load   Length     Space
        CLASS   CODE           
                intcode                               8        8        6         0
                init                                  E        E        4         0
                reset_vec                             0        0        4         0
                text64                             4830     4830        4         0
                text63                             482C     482C        4         0
                text62                             4828     4828        4         0
                text61                             4824     4824        4         0
                text60                             4820     4820        4         0
                text59                             481C     481C        4         0
                text58                             4818     4818        4         0
                text57                             4814     4814        4         0
                text56                             4810     4810        4         0
                text55                             47AC     47AC       1A         0
                text54                             4792     4792       1A         0
                text53                             4778     4778       1A         0
                text52                             475E     475E       1A         0
                text51                             4836     4836        2         0
                text50                             344E     344E      146         0
                text49                             44CE     44CE       56         0
                text48                             46DC     46DC       30         0
                text47                             40A4     40A4       7A         0
                text46                             3E1E     3E1E       88         0
                text45                             402A     402A       7A         0
                text44                             3C60     3C60       9A         0
                text43                             434E     434E       6A         0
                text42                             47FA     47FA        A         0
                text41                             3FAA     3FAA       80         0
                text40                             45FE     45FE       3A         0
                text39                             47F0     47F0        A         0
                text38                             4804     4804        8         0
                text37                             47DA     47DA        C         0
                text36                             4834     4834        2         0
                text35                             480C     480C        4         0
                intcode_body                       2A80     2A80      476         0
                text33                             4524     4524       52         0
                text32                             411E     411E       76         0
                text31                             36BC     36BC       CE         0
                text30                             3302     3302      14C         0
                text29                             3594     3594      128         0
                text28                             3A74     3A74       AC         0
                text27                             4728     4728       1C         0
                text26                             4744     4744       1A         0
                text25                             45BE     45BE       40         0
                text24                             3850     3850       BC         0
                text23                             441E     441E       5A         0
                text22                             390C     390C       B6         0
                text21                             378A     378A       C6         0
                text20                             39C2     39C2       B2         0
                text19                             305A     305A      158         0
                text18                             4638     4638       38         0
                text17                             4194     4194       72         0
                text16                             31B2     31B2      150         0
                text15                             43B8     43B8       66         0
                text14                             3CFA     3CFA       98         0
                text13                             3B20     3B20       A4         0
                text12                             4274     4274       6E         0
                text11                             46A8     46A8       34         0
                text10                             3F28     3F28       82         0
                text9                              2EF6     2EF6      164         0
                text8                              4576     4576       48         0
                text7                              470C     470C       1C         0
                text6                              3EA6     3EA6       82         0
                text5                              3BC4     3BC4       9C         0
                text4                              4478     4478       56         0
                text3                              3D92     3D92       8C         0
                text2                              42E2     42E2       6C         0
                text1                              47E6     47E6        A         0
                text0                                12       12     2A6E         0
                cinit                              4206     4206       6E         0
                idataBANK0                         4670     4670       37         0
                idataCOMRAM                        47C6     47C6       13         0

        CLASS   CONST          

        CLASS   SMALLCONST     

        CLASS   MEDIUMCONST    
                mediumconst                        FDA8     FDA8      258         0

        CLASS   COMRAM         
                temp                                 64       64        1         1
                cstackCOMRAM                          1        1       32         1
                dataCOMRAM                           51       51       13         1
                bssCOMRAM                            33       33       1E         1

        CLASS   ABS1           

        CLASS   BIGRAM         

        CLASS   RAM            

        CLASS   BANK0          
                cstackBANK0                          F0       F0        E         1
                dataBANK0                            B9       B9       37         1
                bssBANK0                             80       80       39         1
                nvBANK0                              FE       FE        2         1

        CLASS   BANK1          
                cstackBANK1                         100      100       1A         1
                bssBANK1                            11A      11A        B         1

        CLASS   BANK2          

        CLASS   BANK3          

        CLASS   BANK4          

        CLASS   BANK5          

        CLASS   BANK6          

        CLASS   BANK7          

        CLASS   BANK8          

        CLASS   BANK9          

        CLASS   BANK10         

        CLASS   BANK11         

        CLASS   BANK12         

        CLASS   BANK13         

        CLASS   BANK14         

        CLASS   BANK15         

        CLASS   SFR            

        CLASS   BIGSFR         

        CLASS   CONFIG         
                config                           300000   300000        E         4

        CLASS   IDLOC          
                idloc                            200000   200000        8         5

        CLASS   EEDATA         

        CLASS   FARRAM         

        CLASS   HEAP           

        CLASS   STACK          



SEGMENTS        Name                           Load    Length   Top    Selector   Space  Class

                reset_vec                      000000  000004  000004         0       0  CODE    
                cstackCOMRAM                   000001  000064  000065         1       1  COMRAM  
                intcode                        000008  00469F  0046A7         4       0  CODE    
                bssBANK0                       000080  000080  000100        80       1  BANK0   
                cstackBANK1                    000100  000025  000125       100       1  BANK1   
                text11                         0046A8  000131  0047D9      2354       0  CODE    
                text37                         0047DA  00005E  004838      23ED       0  CODE    
                mediumconst                    00FDA8  000258  010000      7ED4       0  MEDIUMCO


UNUSED ADDRESS RANGES

        Name                Unused          Largest block    Delta
        BANK1            000125-0001FF               DB
        BANK10           000A00-000AFF              100
        BANK11           000B00-000BFF              100
        BANK12           000C00-000CFF              100
        BANK13           000D00-000DFF              100
        BANK14           000E00-000EFF              100
        BANK15           000F00-000F7F               80
        BANK2            000200-0002FF              100
        BANK3            000300-0003FF              100
        BANK4            000400-0004FF              100
        BANK5            000500-0005FF              100
        BANK6            000600-0006FF              100
        BANK7            000700-0007FF              100
        BANK8            000800-0008FF              100
        BANK9            000900-0009FF              100
        BIGRAM           000065-00007F               1B
                         000125-000F7F              E5B
        BIGSFR           000F80-000FFF               80
        CODE             000004-000007                4
                         0046A7-0046A7                1
                         0047D9-0047D9                1
                         004838-00FDA7             B570
        COMRAM           000065-00007F               1B
        CONST            000004-000007                4
                         0046A7-0046A7                1
                         0047D9-0047D9                1
                         004838-00FDA7             B570
        EEDATA           F00000-F003FF              400
        MEDIUMCONST      0046A7-0046A7                1
                         0047D9-0047D9                1
                         004838-00FDA7             B570
        RAM              000125-000F7F              100
        SFR              000F80-000FFF               80
        SMALLCONST       0046A7-0046A7                1
                         0047D9-0047D9                1
                         004838-00FDA7              100

                                  Symbol Table

?_EEPROM_Data_ReadByte                                cstackBANK0  0000F0
?_EEPROM_Data_WriteByte                               cstackBANK0  0000F0
?_GPIO_Pin_Direction_Intialize                        cstackBANK0  0000F0
?_GPIO_Pin_Intialize                                  cstackBANK0  0000FB
?_GPIO_Pin_Read_Logic                                 cstackBANK0  0000F0
?_GPIO_Pin_Write_Logic                                cstackBANK0  0000F0
?_Key_Pad_Get_Value                                   cstackBANK1  000100
?_Key_Pad_Intialize                                   cstackBANK1  000102
?_Led_Intialize                                       cstackBANK1  000102
?_Led_Turn_On                                         cstackBANK0  0000FB
?_Timer0_Intialization                                cstackBANK0  0000F3
?___awdiv                                             cstackBANK0  0000F0
?___awmod                                             cstackBANK0  0000F0
?_lcd_intialize                                       cstackBANK1  00010A
?_lcd_send_ATpos_char_data                            cstackBANK1  000110
?_lcd_send_ATpos_string_data                          cstackBANK1  000110
?_lcd_send_char_data                                  cstackBANK1  000105
?_lcd_send_command                                    cstackBANK1  000105
?_lcd_send_string_data                                cstackBANK1  00010A
?i2_GPIO_Pin_Write_Logic                              cstackCOMRAM 000001
?i2_lcd_send_ATpos_string_data                        cstackCOMRAM 00001F
?i2_lcd_send_char_data                                cstackCOMRAM 000014
?i2_lcd_send_command                                  cstackCOMRAM 000014
?i2_lcd_send_string_data                              cstackCOMRAM 000019
CCP_Capture_Read_Value@F2943                          bssCOMRAM    00003F
EEPROM_Data_ReadByte@bAdd                             cstackBANK0  0000F0
EEPROM_Data_ReadByte@bData                            cstackBANK0  0000F2
EEPROM_Data_ReadByte@ret                              cstackBANK0  0000F4
EEPROM_Data_WriteByte@Global_int_status               cstackBANK0  0000F3
EEPROM_Data_WriteByte@bAdd                            cstackBANK0  0000F0
EEPROM_Data_WriteByte@bData                           cstackBANK0  0000F2
EEPROM_Data_WriteByte@ret                             cstackBANK0  0000F4
GPIO_Pin_Direction_Intialize@_Pin_Config_             cstackBANK0  0000F0
GPIO_Pin_Direction_Intialize@ret                      cstackBANK0  0000F8
GPIO_Pin_Intialize@_Pin_Config_                       cstackBANK0  0000FB
GPIO_Pin_Intialize@ret                                cstackBANK1  000100
GPIO_Pin_Read_Logic@Logic                             cstackBANK0  0000F2
GPIO_Pin_Read_Logic@_Pin_Config_                      cstackBANK0  0000F0
GPIO_Pin_Read_Logic@ret                               cstackBANK0  0000FA
GPIO_Pin_Write_Logic@Logic                            cstackBANK0  0000F2
GPIO_Pin_Write_Logic@_Pin_Config_                     cstackBANK0  0000F0
GPIO_Pin_Write_Logic@ret                              cstackBANK0  0000F9
Key_Pad_Get_Value@_key_pad                            cstackBANK1  000100
Key_Pad_Get_Value@coulmns                             cstackBANK1  000108
Key_Pad_Get_Value@coulmns_logic                       cstackBANK1  000106
Key_Pad_Get_Value@ret                                 cstackBANK1  000104
Key_Pad_Get_Value@rows                                cstackBANK1  000107
Key_Pad_Get_Value@value                               cstackBANK1  000102
Key_Pad_Intialize@_key_pad                            cstackBANK1  000102
Key_Pad_Intialize@counter                             cstackBANK1  000108
Key_Pad_Intialize@ret                                 cstackBANK1  000106
Led_Intialize@F2820                                   bssCOMRAM    00004F
Led_Intialize@Led                                     cstackBANK1  000102
Led_Intialize@_pin_config_                            cstackBANK1  000106
Led_Intialize@ret                                     cstackBANK1  000104
Led_Toggle@F2835                                      bssCOMRAM    00004C
Led_Turn_Off@F2830                                    bssCOMRAM    00004D
Led_Turn_On@F2825                                     bssCOMRAM    00004E
Led_Turn_On@Led                                       cstackBANK0  0000FB
Led_Turn_On@_pin_config_                              cstackBANK1  000102
Led_Turn_On@ret                                       cstackBANK1  000100
MSSP_SPI_Msster_Mode_GPIO_PIN_Configurations@F2863    dataCOMRAM   000057
MSSP_SPI_Msster_Mode_GPIO_PIN_Configurations@F2865    dataCOMRAM   000056
MSSP_SPI_Msster_Mode_GPIO_PIN_Configurations@F2867    dataCOMRAM   000055
MSSP_SPI_Msster_Mode_GPIO_PIN_Configurations@SPI_SCK  cstackBANK0  0000FC
MSSP_SPI_Msster_Mode_GPIO_PIN_Configurations@SPI_SDI  cstackBANK0  0000FB
MSSP_SPI_Msster_Mode_GPIO_PIN_Configurations@SPI_SDO  cstackBANK0  0000FA
MSSP_SPI_Slave_Mode_GPIO_PIN_Configurations@F2872     dataCOMRAM   000054
MSSP_SPI_Slave_Mode_GPIO_PIN_Configurations@F2874     dataCOMRAM   000053
MSSP_SPI_Slave_Mode_GPIO_PIN_Configurations@F2876     dataCOMRAM   000052
MSSP_SPI_Slave_Mode_GPIO_PIN_Configurations@F2878     dataCOMRAM   000051
MSSP_SPI_Slave_Mode_GPIO_PIN_Configurations@SPI_SCK   cstackBANK1  000103
MSSP_SPI_Slave_Mode_GPIO_PIN_Configurations@SPI_SDI   cstackBANK1  000101
MSSP_SPI_Slave_Mode_GPIO_PIN_Configurations@SPI_SDO   cstackBANK1  000100
MSSP_SPI_Slave_Mode_GPIO_PIN_Configurations@SPI_SS    cstackBANK1  000102
MSSP_SPI_Slave_Mode_GPIO_PIN_Configurations@_SPI_     cstackBANK0  0000FA
RB4_ISR@state                                         cstackCOMRAM 000001
RB5_ISR@state                                         cstackCOMRAM 000001
RB6_ISR@state                                         cstackCOMRAM 000001
RB7_ISR@state                                         cstackCOMRAM 000001
Relay_Intialize@F2818                                 bssCOMRAM    00004B
Relay_Turn_Off@F2829                                  bssCOMRAM    000049
Relay_Turn_On@F2823                                   bssCOMRAM    00004A
SPI_Init@_SPI_                                        cstackBANK1  000104
SPI_Read_Byte@_data                                   cstackBANK0  0000F0
SPI_Send_Byte@_data                                   cstackBANK0  0000F2
Timer0_Bit_Mode_Select@timer0_                        cstackBANK0  0000F0
Timer0_Intialization@ret                              cstackBANK0  0000F7
Timer0_Intialization@timer0_                          cstackBANK0  0000F3
Timer0_Mode_Select@timer0_                            cstackBANK0  0000F0
Timer0_Prescaler_Config@timer0_                       cstackBANK0  0000F0
_ADCON0bits                                           (abs)        000FC2
_ADCON1bits                                           (abs)        000FC1
_ADCON2bits                                           (abs)        000FC0
_ADC_ISR                                              text64       004830
_ADC_interruptHandler                                 bssCOMRAM    000045
_ADRESH                                               (abs)        000FC4
_ADRESL                                               (abs)        000FC3
_Admin_Start_address                                  dataBANK0    0000DC
_Admin_pass_flag                                      bssBANK0     0000B6
_Admin_pass_status                                    dataBANK0    0000EF
_BAUDCONbits                                          (abs)        000FB8
_CCP1CONbits                                          (abs)        000FBD
_CCP1_ISR                                             text63       00482C
_CCP1_IntterruptHandeler                              bssCOMRAM    000043
_CCP2CONbits                                          (abs)        000FBA
_CCP2_ISR                                             text62       004828
_CCP2_IntterruptHandeler                              bssCOMRAM    000041
_CCPR1H                                               (abs)        000FBF
_CCPR1L                                               (abs)        000FBE
_CCPR2H                                               (abs)        000FBC
_CCPR2L                                               (abs)        000FBB
_Degree_sent                                          bssBANK0     0000B4
_ECCP1ASbits                                          (abs)        000FB6
_ECCP_ISR                                             text61       004824
_ECCP_IntterruptHandeler_                             bssCOMRAM    00003D
_EEADR                                                (abs)        000FA9
_EEADRH                                               (abs)        000FAA
_EECON1bits                                           (abs)        000FA6
_EECON2                                               (abs)        000FA7
_EEDATA                                               (abs)        000FA8
_EEPROM_Data_ReadByte                                 text33       004524
_EEPROM_Data_WriteByte                                text32       00411E
_EUSART_FRAMINGERRORDefaultHandler_                   bssBANK0     00008C
_EUSART_OVERRUNERRORDefaultHandler_                   bssBANK0     00008A
_GPIO_Pin_Direction_Intialize                         text19       00305A
_GPIO_Pin_Intialize                                   text15       0043B8
_GPIO_Pin_Read_Logic                                  text31       0036BC
_GPIO_Pin_Write_Logic                                 text30       003302
_Guest_Start_address                                  dataBANK0    0000DB
_Guest_pass_flag                                      bssBANK0     0000B5
_Guest_pass_status                                    dataBANK0    0000EE
_Guest_pass_tries                                     dataBANK0    0000D7
_I2C_DefaultInterruptHandle                           bssBANK0     0000B0
_I2C_Report_Write_Collision_InterruptHandler          bssBANK0     0000B2
_INT0_ISR                                             text60       004820
_INT0_interruptHandler                                bssBANK0     0000AC
_INT1_ISR                                             text59       00481C
_INT1_interruptHandler                                bssBANK0     0000AA
_INT2_ISR                                             text58       004818
_INT2_interruptHandler                                bssBANK0     0000A8
_INTCON2bits                                          (abs)        000FF1
_INTCON3bits                                          (abs)        000FF0
_INTCONbits                                           (abs)        000FF2
_InterruptManagerHigh                                 intcode      000008
_Key_Pad_Array                                        mediumconst  00FDA9
_Key_Pad_Get_Value                                    text29       003594
_Key_Pad_Intialize                                    text14       003CFA
_LATA                                                 (abs)        000F89
_LATB                                                 (abs)        000F8A
_LATC                                                 (abs)        000F8B
_LATD                                                 (abs)        000F8C
_LATE                                                 (abs)        000F8D
_Lat_Reg                                              dataBANK0    0000C3
_Led_Intialize                                        text13       003B20
_Led_Turn_On                                          text28       003A74
_MSSP_I2C_BC_ISR                                      text57       004814
_MSSP_I2C_ISR                                         text56       004810
_MSSP_SPI_Msster_Mode_GPIO_PIN_Configurations         text18       004638
_MSSP_SPI_Slave_Mode_GPIO_PIN_Configurations          text17       004194
_PIE1bits                                             (abs)        000F9D
_PIE2bits                                             (abs)        000FA0
_PIR1bits                                             (abs)        000F9E
_PIR2bits                                             (abs)        000FA1
_PORTA                                                (abs)        000F80
_PORTB                                                (abs)        000F81
_PORTBbits                                            (abs)        000F81
_PORTC                                                (abs)        000F82
_PORTD                                                (abs)        000F83
_PORTE                                                (abs)        000F84
_PR2                                                  (abs)        000FCB
_PWM1CONbits                                          (abs)        000FB7
_Port_Reg                                             dataBANK0    0000B9
_RB4_ISR                                              text55       0047AC
_RB4_flag                                             dataCOMRAM   00005B
_RB4_interruptHandler_High                            bssBANK0     0000A6
_RB4_interruptHandler_Low                             bssBANK0     0000A4
_RB5_ISR                                              text54       004792
_RB5_flag                                             dataCOMRAM   00005A
_RB5_interruptHandler_High                            bssBANK0     0000A2
_RB5_interruptHandler_Low                             bssBANK0     0000A0
_RB6_ISR                                              text53       004778
_RB6_flag                                             dataCOMRAM   000059
_RB6_interruptHandler_High                            bssBANK0     00009E
_RB6_interruptHandler_Low                             bssBANK0     00009C
_RB7_ISR                                              text52       00475E
_RB7_flag                                             dataCOMRAM   000058
_RB7_interruptHandler_High                            bssBANK0     00009A
_RB7_interruptHandler_Low                             bssBANK0     000098
_RCREG                                                (abs)        000FAE
_RCSTAbits                                            (abs)        000FAB
_SPBRG                                                (abs)        000FAF
_SPBRGH                                               (abs)        000FB0
_SPI_ISR                                              text51       004836
_SPI_Init                                             text16       0031B2
_SPI_Read_Byte                                        text27       004728
_SPI_Send_Byte                                        text26       004744
_SSPADD                                               (abs)        000FC8
_SSPBUF                                               (abs)        000FC9
_SSPCON1bits                                          (abs)        000FC6
_SSPCON2bits                                          (abs)        000FC5
_SSPSTATbits                                          (abs)        000FC7
_T0CONbits                                            (abs)        000FD5
_T1CONbits                                            (abs)        000FCD
_T2CONbits                                            (abs)        000FCA
_T3CONbits                                            (abs)        000FB1
_TIMER0_ISR                                           text40       0045FE
_TIMER0_IntterruptHandeler                            bssCOMRAM    00003B
_TIMER1_ISR                                           text39       0047F0
_TIMER1_IntterruptHandeler                            bssBANK0     000096
_TIMER2_ISR                                           text38       004804
_TIMER2_IntterruptHandeler_                           bssBANK0     000094
_TIMER3_ISR                                           text37       0047DA
_TIMER3_InterruptHandler                              bssBANK0     000092
_TMR0H                                                (abs)        000FD7
_TMR0L                                                (abs)        000FD6
_TMR1H                                                (abs)        000FCF
_TMR1L                                                (abs)        000FCE
_TMR2                                                 (abs)        000FCC
_TMR3H                                                (abs)        000FB3
_TMR3L                                                (abs)        000FB2
_TRISA                                                (abs)        000F92
_TRISB                                                (abs)        000F93
_TRISC                                                (abs)        000F94
_TRISCbits                                            (abs)        000F94
_TRISD                                                (abs)        000F95
_TRISE                                                (abs)        000F96
_TXREG                                                (abs)        000FAD
_TXSTAbits                                            (abs)        000FAC
_Timer0_Bit_Mode_Select                               text25       0045BE
_Timer0_Intialization                                 text22       00390C
_Timer0_Mode_Select                                   text24       003850
_Timer0_Prescaler_Config                              text23       00441E
_Tris_Reg                                             dataBANK0    0000CD
_USART_RX_ISR                                         text36       004834
_USART_RX_IntterruptHandeler_                         bssBANK0     00008E
_USART_TX_ISR                                         text35       00480C
_USART_TX_IntterruptHandeler_                         bssBANK0     000090
_WDTCONbits                                           (abs)        000FD1
__HRAM                                                (abs)        000000
__H__absolute__                                       __absolute__ 000000
__Habs1                                               abs1         000000
__Hbank0                                              bank0        000000
__Hbank1                                              bank1        000000
__Hbank10                                             bank10       000000
__Hbank11                                             bank11       000000
__Hbank12                                             bank12       000000
__Hbank13                                             bank13       000000
__Hbank14                                             bank14       000000
__Hbank15                                             bank15       000000
__Hbank2                                              bank2        000000
__Hbank3                                              bank3        000000
__Hbank4                                              bank4        000000
__Hbank5                                              bank5        000000
__Hbank6                                              bank6        000000
__Hbank7                                              bank7        000000
__Hbank8                                              bank8        000000
__Hbank9                                              bank9        000000
__Hbigbss                                             bigbss       000000
__Hbigdata                                            bigdata      000000
__Hbigram                                             bigram       000000
__Hbigsfr                                             bigsfr       000000
__Hbss                                                bss          000000
__HbssBANK0                                           bssBANK0     000000
__HbssBANK1                                           bssBANK1     000000
__HbssCOMRAM                                          bssCOMRAM    000000
__Hcinit                                              cinit        000000
__Hclrtext                                            clrtext      000000
__Hcomram                                             comram       000000
__Hconfig                                             config       30000E
__Hconst                                              const        000000
__HcstackBANK0                                        cstackBANK0  000000
__HcstackBANK1                                        cstackBANK1  000000
__HcstackCOMRAM                                       cstackCOMRAM 000000
__Hdata                                               data         000000
__HdataBANK0                                          dataBANK0    000000
__HdataCOMRAM                                         dataCOMRAM   000000
__Heeprom_data                                        eeprom_data  000000
__Hfarbss                                             farbss       000000
__Hfardata                                            fardata      000000
__Hheap                                               heap         000000
__Hibigdata                                           ibigdata     000000
__Hidata                                              idata        000000
__HidataBANK0                                         idataBANK0   000000
__HidataCOMRAM                                        idataCOMRAM  000000
__Hidloc                                              idloc        200008
__Hifardata                                           ifardata     000000
__Hinit                                               init         000012
__Hintcode                                            intcode      00000E
__Hintcode_body                                       intcode_body 000000
__Hintcodelo                                          intcodelo    00000E
__Hintentry                                           intentry     000000
__Hintret                                             intret       000000
__Hintsave_regs                                       intsave_regs 000000
__Hirdata                                             irdata       000000
__Hmediumconst                                        mediumconst  010000
__HnvBANK0                                            nvBANK0      000000
__HnvFARRAM                                           nvFARRAM     000000
__Hnvbit                                              nvbit        000000
__Hnvrram                                             nvrram       000000
__Hparam                                              rparam       000000
__Hpowerup                                            powerup      00000E
__Hram                                                ram          000000
__Hramtop                                             ramtop       001000
__Hrbit                                               rbit         000000
__Hrbss                                               rbss         000000
__Hrdata                                              rdata        000000
__Hreset_vec                                          reset_vec    000004
__Hrparam                                             rparam       000000
__Hsfr                                                sfr          000000
__Hsmallconst                                         smallconst   000000
__Hspace_0                                            (abs)        010000
__Hspace_1                                            (abs)        000125
__Hspace_2                                            (abs)        000000
__Hspace_4                                            (abs)        60000E
__Hstack                                              stack        000000
__Hstruct                                             struct       000000
__Htemp                                               temp         000065
__Htext                                               text         000000
__Htext0                                              text0        000000
__Htext1                                              text1        000000
__Htext10                                             text10       000000
__Htext11                                             text11       000000
__Htext12                                             text12       000000
__Htext13                                             text13       000000
__Htext14                                             text14       000000
__Htext15                                             text15       000000
__Htext16                                             text16       000000
__Htext17                                             text17       000000
__Htext18                                             text18       000000
__Htext19                                             text19       000000
__Htext2                                              text2        000000
__Htext20                                             text20       000000
__Htext21                                             text21       000000
__Htext22                                             text22       000000
__Htext23                                             text23       000000
__Htext24                                             text24       000000
__Htext25                                             text25       000000
__Htext26                                             text26       000000
__Htext27                                             text27       000000
__Htext28                                             text28       000000
__Htext29                                             text29       000000
__Htext3                                              text3        000000
__Htext30                                             text30       000000
__Htext31                                             text31       000000
__Htext32                                             text32       000000
__Htext33                                             text33       000000
__Htext35                                             text35       000000
__Htext36                                             text36       000000
__Htext37                                             text37       000000
__Htext38                                             text38       000000
__Htext39                                             text39       000000
__Htext4                                              text4        000000
__Htext40                                             text40       000000
__Htext41                                             text41       000000
__Htext42                                             text42       000000
__Htext43                                             text43       000000
__Htext44                                             text44       000000
__Htext45                                             text45       000000
__Htext46                                             text46       000000
__Htext47                                             text47       000000
__Htext48                                             text48       000000
__Htext49                                             text49       000000
__Htext5                                              text5        000000
__Htext50                                             text50       000000
__Htext51                                             text51       000000
__Htext52                                             text52       000000
__Htext53                                             text53       000000
__Htext54                                             text54       000000
__Htext55                                             text55       000000
__Htext56                                             text56       000000
__Htext57                                             text57       000000
__Htext58                                             text58       000000
__Htext59                                             text59       000000
__Htext6                                              text6        000000
__Htext60                                             text60       000000
__Htext61                                             text61       000000
__Htext62                                             text62       000000
__Htext63                                             text63       000000
__Htext64                                             text64       000000
__Htext65                                             text65       000000
__Htext7                                              text7        000000
__Htext8                                              text8        000000
__Htext9                                              text9        000000
__LRAM                                                (abs)        000001
__L__absolute__                                       __absolute__ 000000
__Labs1                                               abs1         000000
__Lbank0                                              bank0        000000
__Lbank1                                              bank1        000000
__Lbank10                                             bank10       000000
__Lbank11                                             bank11       000000
__Lbank12                                             bank12       000000
__Lbank13                                             bank13       000000
__Lbank14                                             bank14       000000
__Lbank15                                             bank15       000000
__Lbank2                                              bank2        000000
__Lbank3                                              bank3        000000
__Lbank4                                              bank4        000000
__Lbank5                                              bank5        000000
__Lbank6                                              bank6        000000
__Lbank7                                              bank7        000000
__Lbank8                                              bank8        000000
__Lbank9                                              bank9        000000
__Lbigbss                                             bigbss       000000
__Lbigdata                                            bigdata      000000
__Lbigram                                             bigram       000000
__Lbigsfr                                             bigsfr       000000
__Lbss                                                bss          000000
__LbssBANK0                                           bssBANK0     000000
__LbssBANK1                                           bssBANK1     000000
__LbssCOMRAM                                          bssCOMRAM    000000
__Lcinit                                              cinit        000000
__Lclrtext                                            clrtext      000000
__Lcomram                                             comram       000000
__Lconfig                                             config       000000
__Lconst                                              const        000000
__LcstackBANK0                                        cstackBANK0  000000
__LcstackBANK1                                        cstackBANK1  000000
__LcstackCOMRAM                                       cstackCOMRAM 000000
__Ldata                                               data         000000
__LdataBANK0                                          dataBANK0    000000
__LdataCOMRAM                                         dataCOMRAM   000000
__Leeprom_data                                        eeprom_data  000000
__Lfarbss                                             farbss       000000
__Lfardata                                            fardata      000000
__Lheap                                               heap         000000
__Libigdata                                           ibigdata     000000
__Lidata                                              idata        000000
__LidataBANK0                                         idataBANK0   000000
__LidataCOMRAM                                        idataCOMRAM  000000
__Lidloc                                              idloc        000000
__Lifardata                                           ifardata     000000
__Linit                                               init         00000E
__Lintcode                                            intcode      000008
__Lintcode_body                                       intcode_body 000000
__Lintcodelo                                          intcodelo    00000E
__Lintentry                                           intentry     000000
__Lintret                                             intret       000000
__Lintsave_regs                                       intsave_regs 000000
__Lirdata                                             irdata       000000
__Lmediumconst                                        mediumconst  00FDA8
__LnvBANK0                                            nvBANK0      000000
__LnvFARRAM                                           nvFARRAM     000000
__Lnvbit                                              nvbit        000000
__Lnvrram                                             nvrram       000000
__Lparam                                              rparam       000000
__Lpowerup                                            powerup      00000E
__Lram                                                ram          000000
__Lramtop                                             ramtop       001000
__Lrbit                                               rbit         000000
__Lrbss                                               rbss         000000
__Lrdata                                              rdata        000000
__Lreset_vec                                          reset_vec    000000
__Lrparam                                             rparam       000000
__Lsfr                                                sfr          000000
__Lsmallconst                                         smallconst   000000
__Lspace_0                                            (abs)        000000
__Lspace_1                                            (abs)        000000
__Lspace_2                                            (abs)        000000
__Lspace_4                                            (abs)        000000
__Lstack                                              stack        000000
__Lstruct                                             struct       000000
__Ltemp                                               temp         000064
__Ltext                                               text         000000
__Ltext0                                              text0        000000
__Ltext1                                              text1        000000
__Ltext10                                             text10       000000
__Ltext11                                             text11       000000
__Ltext12                                             text12       000000
__Ltext13                                             text13       000000
__Ltext14                                             text14       000000
__Ltext15                                             text15       000000
__Ltext16                                             text16       000000
__Ltext17                                             text17       000000
__Ltext18                                             text18       000000
__Ltext19                                             text19       000000
__Ltext2                                              text2        000000
__Ltext20                                             text20       000000
__Ltext21                                             text21       000000
__Ltext22                                             text22       000000
__Ltext23                                             text23       000000
__Ltext24                                             text24       000000
__Ltext25                                             text25       000000
__Ltext26                                             text26       000000
__Ltext27                                             text27       000000
__Ltext28                                             text28       000000
__Ltext29                                             text29       000000
__Ltext3                                              text3        000000
__Ltext30                                             text30       000000
__Ltext31                                             text31       000000
__Ltext32                                             text32       000000
__Ltext33                                             text33       000000
__Ltext35                                             text35       000000
__Ltext36                                             text36       000000
__Ltext37                                             text37       000000
__Ltext38                                             text38       000000
__Ltext39                                             text39       000000
__Ltext4                                              text4        000000
__Ltext40                                             text40       000000
__Ltext41                                             text41       000000
__Ltext42                                             text42       000000
__Ltext43                                             text43       000000
__Ltext44                                             text44       000000
__Ltext45                                             text45       000000
__Ltext46                                             text46       000000
__Ltext47                                             text47       000000
__Ltext48                                             text48       000000
__Ltext49                                             text49       000000
__Ltext5                                              text5        000000
__Ltext50                                             text50       000000
__Ltext51                                             text51       000000
__Ltext52                                             text52       000000
__Ltext53                                             text53       000000
__Ltext54                                             text54       000000
__Ltext55                                             text55       000000
__Ltext56                                             text56       000000
__Ltext57                                             text57       000000
__Ltext58                                             text58       000000
__Ltext59                                             text59       000000
__Ltext6                                              text6        000000
__Ltext60                                             text60       000000
__Ltext61                                             text61       000000
__Ltext62                                             text62       000000
__Ltext63                                             text63       000000
__Ltext64                                             text64       000000
__Ltext65                                             text65       000000
__Ltext7                                              text7        000000
__Ltext8                                              text8        000000
__Ltext9                                              text9        000000
__S0                                                  (abs)        010000
__S1                                                  (abs)        000125
__S4                                                  (abs)        000000
__S5                                                  (abs)        000000
___awdiv                                              text21       00378A
___awdiv@counter                                      cstackBANK0  0000F4
___awdiv@dividend                                     cstackBANK0  0000F0
___awdiv@divisor                                      cstackBANK0  0000F2
___awdiv@quotient                                     cstackBANK0  0000F6
___awdiv@sign                                         cstackBANK0  0000F5
___awmod                                              text20       0039C2
___awmod@counter                                      cstackBANK0  0000F4
___awmod@dividend                                     cstackBANK0  0000F0
___awmod@divisor                                      cstackBANK0  0000F2
___awmod@sign                                         cstackBANK0  0000F5
___heap_hi                                            (abs)        000000
___heap_lo                                            (abs)        000000
___inthi_sp                                           stack        000000
___intlo_sp                                           stack        000000
___param_bank                                         (abs)        000000
___rparam_used                                        (abs)        000001
___sp                                                 stack        000000
__accesstop                                           (abs)        000080
__activetblptr                                        (abs)        000003
__end_of_ADC_ISR                                      text64       004834
__end_of_CCP1_ISR                                     text63       004830
__end_of_CCP2_ISR                                     text62       00482C
__end_of_ECCP_ISR                                     text61       004828
__end_of_EEPROM_Data_ReadByte                         text33       004576
__end_of_EEPROM_Data_WriteByte                        text32       004194
__end_of_GPIO_Pin_Direction_Intialize                 text19       0031B2
__end_of_GPIO_Pin_Intialize                           text15       00441E
__end_of_GPIO_Pin_Read_Logic                          text31       00378A
__end_of_GPIO_Pin_Write_Logic                         text30       00344E
__end_of_INT0_ISR                                     text60       004824
__end_of_INT1_ISR                                     text59       004820
__end_of_INT2_ISR                                     text58       00481C
__end_of_InterruptManagerHigh                         intcode_body 002EF6
__end_of_Key_Pad_Array                                mediumconst  00FDB9
__end_of_Key_Pad_Get_Value                            text29       0036BC
__end_of_Key_Pad_Intialize                            text14       003D92
__end_of_Led_Intialize                                text13       003BC4
__end_of_Led_Turn_On                                  text28       003B20
__end_of_MSSP_I2C_BC_ISR                              text57       004818
__end_of_MSSP_I2C_ISR                                 text56       004814
__end_of_MSSP_SPI_Msster_Mode_GPIO_PIN_Configurations text18       004670
__end_of_MSSP_SPI_Slave_Mode_GPIO_PIN_Configurations  text17       004206
__end_of_RB4_ISR                                      text55       0047C6
__end_of_RB5_ISR                                      text54       0047AC
__end_of_RB6_ISR                                      text53       004792
__end_of_RB7_ISR                                      text52       004778
__end_of_SPI_ISR                                      text51       004838
__end_of_SPI_Init                                     text16       003302
__end_of_SPI_Read_Byte                                text27       004744
__end_of_SPI_Send_Byte                                text26       00475E
__end_of_TIMER0_ISR                                   text40       004638
__end_of_TIMER1_ISR                                   text39       0047FA
__end_of_TIMER2_ISR                                   text38       00480C
__end_of_TIMER3_ISR                                   text37       0047E6
__end_of_Timer0_Bit_Mode_Select                       text25       0045FE
__end_of_Timer0_Intialization                         text22       0039C2
__end_of_Timer0_Mode_Select                           text24       00390C
__end_of_Timer0_Prescaler_Config                      text23       004478
__end_of_USART_RX_ISR                                 text36       004836
__end_of_USART_TX_ISR                                 text35       004810
__end_of___awdiv                                      text21       003850
__end_of___awmod                                      text20       003A74
__end_of__initialization                              cinit        00426A
__end_of_ecu_intialize                                text8        0045BE
__end_of_intialization                                text7        004728
__end_of_lcd_intialize                                text9        00305A
__end_of_lcd_send_4_bit_data                          text12       0042E2
__end_of_lcd_send_ATpos_char_data                     text4        0044CE
__end_of_lcd_send_ATpos_string_data                   text2        00434E
__end_of_lcd_send_char_data                           text6        003F28
__end_of_lcd_send_command                             text10       003FAA
__end_of_lcd_send_enable                              text11       0046DC
__end_of_lcd_send_string_data                         text3        003E1E
__end_of_lcd_set_cursor                               text5        003C60
__end_of_main                                         text0        002A80
__end_of_softwareReset                                text1        0047F0
__end_of_timer0_isr                                   text41       00402A
__end_ofi2_GPIO_Pin_Write_Logic                       text50       003594
__end_ofi2_lcd_send_4_bit_data                        text49       004524
__end_ofi2_lcd_send_ATpos_string_data                 text43       0043B8
__end_ofi2_lcd_send_char_data                         text47       00411E
__end_ofi2_lcd_send_command                           text45       0040A4
__end_ofi2_lcd_send_enable                            text48       00470C
__end_ofi2_lcd_send_string_data                       text46       003EA6
__end_ofi2_lcd_set_cursor                             text44       003CFA
__end_ofi2_softwareReset                              text42       004804
__initialization                                      cinit        004206
__mediumconst                                         mediumconst  00FDA8
__pbssBANK0                                           bssBANK0     000080
__pbssBANK1                                           bssBANK1     00011A
__pbssCOMRAM                                          bssCOMRAM    000033
__pcinit                                              cinit        004206
__pcstackBANK0                                        cstackBANK0  0000F0
__pcstackBANK1                                        cstackBANK1  000100
__pcstackCOMRAM                                       cstackCOMRAM 000001
__pdataBANK0                                          dataBANK0    0000B9
__pdataCOMRAM                                         dataCOMRAM   000051
__pidataBANK0                                         idataBANK0   004670
__pidataCOMRAM                                        idataCOMRAM  0047C6
__pintcode                                            intcode      000008
__pintcode_body                                       intcode_body 002A80
__pmediumconst                                        mediumconst  00FDA8
__pnvBANK0                                            nvBANK0      0000FE
__ptext0                                              text0        000012
__ptext1                                              text1        0047E6
__ptext10                                             text10       003F28
__ptext11                                             text11       0046A8
__ptext12                                             text12       004274
__ptext13                                             text13       003B20
__ptext14                                             text14       003CFA
__ptext15                                             text15       0043B8
__ptext16                                             text16       0031B2
__ptext17                                             text17       004194
__ptext18                                             text18       004638
__ptext19                                             text19       00305A
__ptext2                                              text2        0042E2
__ptext20                                             text20       0039C2
__ptext21                                             text21       00378A
__ptext22                                             text22       00390C
__ptext23                                             text23       00441E
__ptext24                                             text24       003850
__ptext25                                             text25       0045BE
__ptext26                                             text26       004744
__ptext27                                             text27       004728
__ptext28                                             text28       003A74
__ptext29                                             text29       003594
__ptext3                                              text3        003D92
__ptext30                                             text30       003302
__ptext31                                             text31       0036BC
__ptext32                                             text32       00411E
__ptext33                                             text33       004524
__ptext35                                             text35       00480C
__ptext36                                             text36       004834
__ptext37                                             text37       0047DA
__ptext38                                             text38       004804
__ptext39                                             text39       0047F0
__ptext4                                              text4        004478
__ptext40                                             text40       0045FE
__ptext41                                             text41       003FAA
__ptext42                                             text42       0047FA
__ptext43                                             text43       00434E
__ptext44                                             text44       003C60
__ptext45                                             text45       00402A
__ptext46                                             text46       003E1E
__ptext47                                             text47       0040A4
__ptext48                                             text48       0046DC
__ptext49                                             text49       0044CE
__ptext5                                              text5        003BC4
__ptext50                                             text50       00344E
__ptext51                                             text51       004836
__ptext52                                             text52       00475E
__ptext53                                             text53       004778
__ptext54                                             text54       004792
__ptext55                                             text55       0047AC
__ptext56                                             text56       004810
__ptext57                                             text57       004814
__ptext58                                             text58       004818
__ptext59                                             text59       00481C
__ptext6                                              text6        003EA6
__ptext60                                             text60       004820
__ptext61                                             text61       004824
__ptext62                                             text62       004828
__ptext63                                             text63       00482C
__ptext64                                             text64       004830
__ptext65                                             text65       000000
__ptext7                                              text7        00470C
__ptext8                                              text8        004576
__ptext9                                              text9        002EF6
__ramtop                                              ramtop       001000
__smallconst                                          smallconst   000000
_admin_pass_tries                                     dataBANK0    0000D8
_count_sec_timer_flag                                 bssCOMRAM    000047
_cursor                                               dataBANK0    0000DA
_ecu_intialize                                        text8        004576
_eeprom_digit_read                                    dataBANK0    0000ED
_intialization                                        text7        00470C
_key_pad1                                             dataBANK0    0000DD
_key_status                                           bssBANK0     0000B8
_lcd1                                                 dataCOMRAM   00005C
_lcd_intialize                                        text9        002EF6
_lcd_send_4_bit_data                                  text12       004274
_lcd_send_ATpos_char_data                             text4        004478
_lcd_send_ATpos_string_data                           text2        0042E2
_lcd_send_char_data                                   text6        003EA6
_lcd_send_command                                     text10       003F28
_lcd_send_enable                                      text11       0046A8
_lcd_send_string_data                                 text3        003D92
_lcd_set_cursor                                       text5        003BC4
_led_Admin                                            bssCOMRAM    000050
_led_Block                                            dataCOMRAM   000063
_led_Guest                                            dataCOMRAM   000062
_main                                                 text0        000012
_pass_counter                                         dataBANK0    0000D9
_pre_load                                             bssCOMRAM    000039
_pre_load@mcal_timer1$F3694                           bssCOMRAM    000037
_pre_load@mcal_timer2$F3864                           bssCOMRAM    000035
_ret                                                  nvBANK0      0000FE
_softwareReset                                        text1        0047E6
_spi_master                                           dataBANK0    0000EB
_spi_slave_reader                                     bssBANK0     0000B7
_spi_slave_reader__                                   bssCOMRAM    000048
_timer0                                               dataBANK0    0000E5
_timer0_isr                                           text41       003FAA
_timer3_preload_value                                 bssCOMRAM    000033
btemp                                                 temp         000064
end_of_initialization                                 cinit        00426A
i2GPIO_Pin_Write_Logic@Logic                          cstackCOMRAM 000003
i2GPIO_Pin_Write_Logic@_Pin_Config_                   cstackCOMRAM 000001
i2GPIO_Pin_Write_Logic@ret                            cstackCOMRAM 00000A
i2_GPIO_Pin_Write_Logic                               text50       00344E
i2_lcd_send_4_bit_data                                text49       0044CE
i2_lcd_send_ATpos_string_data                         text43       00434E
i2_lcd_send_char_data                                 text47       0040A4
i2_lcd_send_command                                   text45       00402A
i2_lcd_send_enable                                    text48       0046DC
i2_lcd_send_string_data                               text46       003E1E
i2_lcd_set_cursor                                     text44       003C60
i2_softwareReset                                      text42       0047FA
i2lcd_send_4_bit_data@_LCD_                           cstackCOMRAM 00000C
i2lcd_send_4_bit_data@_data_command                   cstackCOMRAM 00000E
i2lcd_send_4_bit_data@pin_counter                     cstackCOMRAM 000013
i2lcd_send_ATpos_string_data@_LCD_                    cstackCOMRAM 00001F
i2lcd_send_ATpos_string_data@coulmns                  cstackCOMRAM 000022
i2lcd_send_ATpos_string_data@ret                      cstackCOMRAM 000025
i2lcd_send_ATpos_string_data@row                      cstackCOMRAM 000021
i2lcd_send_ATpos_string_data@str                      cstackCOMRAM 000023
i2lcd_send_char_data@_LCD_                            cstackCOMRAM 000014
i2lcd_send_char_data@data                             cstackCOMRAM 000016
i2lcd_send_char_data@ret                              cstackCOMRAM 000017
i2lcd_send_command@_LCD_                              cstackCOMRAM 000014
i2lcd_send_command@command                            cstackCOMRAM 000016
i2lcd_send_command@ret                                cstackCOMRAM 000017
i2lcd_send_enable@_LCD_                               cstackCOMRAM 00000C
i2lcd_send_string_data@_LCD_                          cstackCOMRAM 000019
i2lcd_send_string_data@ret                            cstackCOMRAM 00001D
i2lcd_send_string_data@str                            cstackCOMRAM 00001B
i2lcd_set_cursor@_LCD_                                cstackCOMRAM 000019
i2lcd_set_cursor@coulmn                               cstackCOMRAM 00001C
i2lcd_set_cursor@row                                  cstackCOMRAM 00001B
int$flags                                             temp         000064
int_func                                              intcode_body 002A80
intlevel0                                             text         000000
intlevel1                                             text         000000
intlevel2                                             text         000000
intlevel3                                             text         000000
isa$std                                               (abs)        000001
isa$xinst                                             (abs)        000000
lcd_intialize@_LCD_                                   cstackBANK1  00010A
lcd_intialize@data_pin_counter                        cstackBANK1  000110
lcd_intialize@ret                                     cstackBANK1  00010E
lcd_send_4_bit_data@_LCD_                             cstackBANK0  0000FB
lcd_send_4_bit_data@_data_command                     cstackBANK0  0000FD
lcd_send_4_bit_data@pin_counter                       cstackBANK1  000104
lcd_send_ATpos_char_data@_LCD_                        cstackBANK1  000110
lcd_send_ATpos_char_data@coulmns                      cstackBANK1  000113
lcd_send_ATpos_char_data@data                         cstackBANK1  000114
lcd_send_ATpos_char_data@ret                          cstackBANK1  000115
lcd_send_ATpos_char_data@row                          cstackBANK1  000112
lcd_send_ATpos_string_data@_LCD_                      cstackBANK1  000110
lcd_send_ATpos_string_data@coulmns                    cstackBANK1  000113
lcd_send_ATpos_string_data@ret                        cstackBANK1  000116
lcd_send_ATpos_string_data@row                        cstackBANK1  000112
lcd_send_ATpos_string_data@str                        cstackBANK1  000114
lcd_send_char_data@_LCD_                              cstackBANK1  000105
lcd_send_char_data@data                               cstackBANK1  000107
lcd_send_char_data@ret                                cstackBANK1  000108
lcd_send_command@_LCD_                                cstackBANK1  000105
lcd_send_command@command                              cstackBANK1  000107
lcd_send_command@ret                                  cstackBANK1  000108
lcd_send_enable@_LCD_                                 cstackBANK0  0000FB
lcd_send_string_data@_LCD_                            cstackBANK1  00010A
lcd_send_string_data@ret                              cstackBANK1  00010E
lcd_send_string_data@str                              cstackBANK1  00010C
lcd_set_cursor@_LCD_                                  cstackBANK1  00010A
lcd_set_cursor@coulmn                                 cstackBANK1  00010D
lcd_set_cursor@row                                    cstackBANK1  00010C
stackhi                                               (abs)        000000
stacklo                                               (abs)        000000
start                                                 init         00000E
start_initialization                                  cinit        004206
ttemp5                                                temp         000065
ttemp6                                                temp         000068
ttemp7                                                temp         00006C
wtemp8                                                temp         000065


MODULE INFORMATION

Module		Function		Class		Link	Load	Size
C:\Program Files\Microchip\xc8\v2.41\pic\sources\c99\common\awmod.c
		___awmod       		CODE           	39C2	0000	178

C:\Program Files\Microchip\xc8\v2.41\pic\sources\c99\common\awmod.c estimated size: 178

MCAL_Layer/ECCP/hal_eccp.c
		_ECCP_ISR      		CODE           	4824	0000	4

MCAL_Layer/ECCP/hal_eccp.c estimated size: 4

MCAL_Layer/Timer2/mcal_timer2.c
		_TIMER2_ISR    		CODE           	4804	0000	8

MCAL_Layer/Timer2/mcal_timer2.c estimated size: 8

ECU_Layer/Key_Pad/ecu_key_pad.c
		_Key_Pad_Get_Value		CODE           	3594	0000	296
		_Key_Pad_Intialize		CODE           	3CFA	0000	152

ECU_Layer/Key_Pad/ecu_key_pad.c estimated size: 448

MCAL_Layer/Timer0/mcal_timer0.c
		_Timer0_Bit_Mode_Select		CODE           	45BE	0000	64
		_Timer0_Prescaler_Config		CODE           	441E	0000	90
		_Timer0_Mode_Select		CODE           	3850	0000	188
		_TIMER0_ISR    		CODE           	45FE	0000	58
		_Timer0_Intialization		CODE           	390C	0000	182

MCAL_Layer/Timer0/mcal_timer0.c estimated size: 582

MCAL_Layer/SPI/hal_spi.c
		_MSSP_SPI_Msster_Mode_GPIO_PIN_Configurations		CODE           	4638	0000	56
		_SPI_ISR       		CODE           	4836	0000	2
		_MSSP_SPI_Slave_Mode_GPIO_PIN_Configurations		CODE           	4194	0000	114
		_SPI_Init      		CODE           	31B2	0000	336
		_SPI_Read_Byte 		CODE           	4728	0000	28
		_SPI_Send_Byte 		CODE           	4744	0000	26

MCAL_Layer/SPI/hal_spi.c estimated size: 562

ECU_Layer/Ch_LCD/ecu_ch_lcd.c
		_lcd_send_ATpos_string_data		CODE           	42E2	0000	108
		_lcd_send_command		CODE           	3F28	0000	130
		_lcd_send_char_data		CODE           	3EA6	0000	130
		_lcd_set_cursor		CODE           	3BC4	0000	156
		_lcd_send_enable		CODE           	46A8	0000	52
		_lcd_send_string_data		CODE           	3D92	0000	140
		_lcd_intialize 		CODE           	2EF6	0000	356
		_lcd_send_ATpos_char_data		CODE           	4478	0000	86
		_lcd_send_4_bit_data		CODE           	4274	0000	110

ECU_Layer/Ch_LCD/ecu_ch_lcd.c estimated size: 1268

C:\Program Files\Microchip\xc8\v2.41\pic\sources\c99\common\awdiv.c
		___awdiv       		CODE           	378A	0000	198

C:\Program Files\Microchip\xc8\v2.41\pic\sources\c99\common\awdiv.c estimated size: 198

MCAL_Layer/GPIO/hal_GPIO.c
		_GPIO_Pin_Intialize		CODE           	43B8	0000	102
		_GPIO_Pin_Read_Logic		CODE           	36BC	0000	206
		_GPIO_Pin_Direction_Intialize		CODE           	305A	0000	344
		_GPIO_Pin_Write_Logic		CODE           	3302	0000	332

MCAL_Layer/GPIO/hal_GPIO.c estimated size: 984

MCAL_Layer/I2C/hal_i2c.c
		_MSSP_I2C_ISR  		CODE           	4810	0000	4
		_MSSP_I2C_BC_ISR		CODE           	4814	0000	4

MCAL_Layer/I2C/hal_i2c.c estimated size: 8

Application.c
		_main          		CODE           	0012	0000	10862
		_timer0_isr    		CODE           	3FAA	0000	128
		_softwareReset 		CODE           	47E6	0000	10
		_intialization 		CODE           	470C	0000	28

Application.c estimated size: 11028

MCAL_Layer/CCP1/hal_ccp.c
		_CCP1_ISR      		CODE           	482C	0000	4
		_CCP2_ISR      		CODE           	4828	0000	4

MCAL_Layer/CCP1/hal_ccp.c estimated size: 8

MCAL_Layer/MCAL_ADC/mcal_adc.c
		_ADC_ISR       		CODE           	4830	0000	4

MCAL_Layer/MCAL_ADC/mcal_adc.c estimated size: 4

MCAL_Layer/Timer3/mcal_timer3.c
		_TIMER3_ISR    		CODE           	47DA	0000	12

MCAL_Layer/Timer3/mcal_timer3.c estimated size: 12

MCAL_Layer/Timer1/mcal_timer1.c
		_TIMER1_ISR    		CODE           	47F0	0000	10

MCAL_Layer/Timer1/mcal_timer1.c estimated size: 10

shared
		i2_lcd_send_4_bit_data		CODE           	44CE	0000	86
		i2_lcd_send_enable		CODE           	46DC	0000	48
		i2_lcd_set_cursor		CODE           	3C60	0000	154
		i2_softwareReset		CODE           	47FA	0000	10
		i2_lcd_send_string_data		CODE           	3E1E	0000	136
		i2_lcd_send_ATpos_string_data		CODE           	434E	0000	106
		i2_GPIO_Pin_Write_Logic		CODE           	344E	0000	326
		i2_lcd_send_command		CODE           	402A	0000	122
		i2_lcd_send_char_data		CODE           	40A4	0000	122
		_Key_Pad_Array 		MEDIUMCONST    	FDA9	0000	16
		__initialization		CODE           	4206	0000	100

shared estimated size: 1226

MCAL_Layer/Interrupt/mcal_external_interrupt.c
		_RB4_ISR       		CODE           	47AC	0000	26
		_RB5_ISR       		CODE           	4792	0000	26
		_RB6_ISR       		CODE           	4778	0000	26
		_RB7_ISR       		CODE           	475E	0000	26
		_INT0_ISR      		CODE           	4820	0000	4
		_INT1_ISR      		CODE           	481C	0000	4
		_INT2_ISR      		CODE           	4818	0000	4

MCAL_Layer/Interrupt/mcal_external_interrupt.c estimated size: 116

MCAL_Layer/Interrupt/mcal_interrupt_manager.c
		_InterruptManagerHigh		CODE           	0008	0000	1148

MCAL_Layer/Interrupt/mcal_interrupt_manager.c estimated size: 1148

MCAL_Layer/USART/hal_usart.c
		_USART_RX_ISR  		CODE           	4834	0000	2
		_USART_TX_ISR  		CODE           	480C	0000	4

MCAL_Layer/USART/hal_usart.c estimated size: 6

ECU_Layer/LED/ecu_Led.c
		_Led_Turn_On   		CODE           	3A74	0000	172
		_Led_Intialize 		CODE           	3B20	0000	164

ECU_Layer/LED/ecu_Led.c estimated size: 336

MCAL_Layer/EEPROM/mcal_eeprom.c
		_EEPROM_Data_ReadByte		CODE           	4524	0000	82
		_EEPROM_Data_WriteByte		CODE           	411E	0000	118

MCAL_Layer/EEPROM/mcal_eeprom.c estimated size: 200

ECU_Layer/ecu_intialize.c
		_ecu_intialize 		CODE           	4576	0000	72

ECU_Layer/ecu_intialize.c estimated size: 72

